; ModuleID = '/home/vgr16/nfshome/face_with_corner/src/tools/MoveAvg.cpp'
target datalayout = "e-m:e-p:32:32-i64:64-v128:64:128-n32-S64"
target triple = "armv7-xilinx-linux-gnueabi"

%class.MoveAvg = type { %"class.std::queue", i32, double }
%"class.std::queue" = type { %"class.std::deque" }
%"class.std::deque" = type { %"class.std::_Deque_base" }
%"class.std::_Deque_base" = type { %"struct.std::_Deque_base<double, std::allocator<double> >::_Deque_impl" }
%"struct.std::_Deque_base<double, std::allocator<double> >::_Deque_impl" = type { double**, i32, %"struct.std::_Deque_iterator", %"struct.std::_Deque_iterator" }
%"struct.std::_Deque_iterator" = type { double*, double*, double*, double** }
%"class.std::allocator" = type { i8 }
%"struct.std::_Deque_iterator.0" = type { double*, double*, double*, double** }
%"class.__gnu_cxx::new_allocator" = type { i8 }
%"class.std::allocator.1" = type { i8 }
%"class.__gnu_cxx::new_allocator.2" = type { i8 }

@_ZN7MoveAvgC1Ev = alias %class.MoveAvg* (%class.MoveAvg*)* @_ZN7MoveAvgC2Ev
@_ZN7MoveAvgC1Ej = alias %class.MoveAvg* (%class.MoveAvg*, i32)* @_ZN7MoveAvgC2Ej

define %class.MoveAvg* @_ZN7MoveAvgC2Ev(%class.MoveAvg* returned %this) unnamed_addr #0 align 2 {
  %1 = alloca %class.MoveAvg*, align 4
  %2 = alloca %"class.std::deque", align 4
  %3 = alloca i8*
  %4 = alloca i32
  store %class.MoveAvg* %this, %class.MoveAvg** %1, align 4
  call void @llvm.dbg.declare(metadata !{%class.MoveAvg** %1}, metadata !967), !dbg !969
  %5 = load %class.MoveAvg** %1
  %6 = getelementptr inbounds %class.MoveAvg* %5, i32 0, i32 0, !dbg !970
  %7 = call %"class.std::deque"* @_ZNSt5dequeIdSaIdEEC2Ev(%"class.std::deque"* %2), !dbg !970
  %8 = invoke %"class.std::queue"* @_ZNSt5queueIdSt5dequeIdSaIdEEEC2ERKS2_(%"class.std::queue"* %6, %"class.std::deque"* dereferenceable(40) %2)
          to label %9 unwind label %13, !dbg !970

; <label>:9                                       ; preds = %0
  %10 = call %"class.std::deque"* @_ZNSt5dequeIdSaIdEED2Ev(%"class.std::deque"* %2), !dbg !971
  %11 = getelementptr inbounds %class.MoveAvg* %5, i32 0, i32 1, !dbg !971
  store i32 2, i32* %11, align 4, !dbg !971
  %12 = getelementptr inbounds %class.MoveAvg* %5, i32 0, i32 2, !dbg !971
  store double 0.000000e+00, double* %12, align 8, !dbg !971
  ret %class.MoveAvg* %5, !dbg !973

; <label>:13                                      ; preds = %0
  %14 = landingpad { i8*, i32 } personality i8* bitcast (i32 (...)* @__gxx_personality_v0 to i8*)
          cleanup, !dbg !973
  %15 = extractvalue { i8*, i32 } %14, 0, !dbg !973
  store i8* %15, i8** %3, !dbg !973
  %16 = extractvalue { i8*, i32 } %14, 1, !dbg !973
  store i32 %16, i32* %4, !dbg !973
  %17 = invoke %"class.std::deque"* @_ZNSt5dequeIdSaIdEED2Ev(%"class.std::deque"* %2)
          to label %18 unwind label %24, !dbg !973

; <label>:18                                      ; preds = %13
  br label %19, !dbg !974

; <label>:19                                      ; preds = %18
  %20 = load i8** %3, !dbg !976
  %21 = load i32* %4, !dbg !976
  %22 = insertvalue { i8*, i32 } undef, i8* %20, 0, !dbg !976
  %23 = insertvalue { i8*, i32 } %22, i32 %21, 1, !dbg !976
  resume { i8*, i32 } %23, !dbg !976

; <label>:24                                      ; preds = %13
  %25 = landingpad { i8*, i32 } personality i8* bitcast (i32 (...)* @__gxx_personality_v0 to i8*)
          catch i8* null, !dbg !978
  %26 = extractvalue { i8*, i32 } %25, 0, !dbg !978
  call void @__clang_call_terminate(i8* %26) #10, !dbg !978
  unreachable, !dbg !978
}

; Function Attrs: nounwind readnone
declare void @llvm.dbg.declare(metadata, metadata) #1

define linkonce_odr %"class.std::deque"* @_ZNSt5dequeIdSaIdEEC2Ev(%"class.std::deque"* returned %this) unnamed_addr #0 align 2 {
  %1 = alloca %"class.std::deque"*, align 4
  store %"class.std::deque"* %this, %"class.std::deque"** %1, align 4
  call void @llvm.dbg.declare(metadata !{%"class.std::deque"** %1}, metadata !980), !dbg !982
  %2 = load %"class.std::deque"** %1
  %3 = bitcast %"class.std::deque"* %2 to %"class.std::_Deque_base"*, !dbg !983
  %4 = call %"class.std::_Deque_base"* @_ZNSt11_Deque_baseIdSaIdEEC2Ev(%"class.std::_Deque_base"* %3), !dbg !983
  ret %"class.std::deque"* %2, !dbg !984
}

define linkonce_odr %"class.std::queue"* @_ZNSt5queueIdSt5dequeIdSaIdEEEC2ERKS2_(%"class.std::queue"* returned %this, %"class.std::deque"* dereferenceable(40) %__c) unnamed_addr #0 align 2 {
  %1 = alloca %"class.std::queue"*, align 4
  %2 = alloca %"class.std::deque"*, align 4
  store %"class.std::queue"* %this, %"class.std::queue"** %1, align 4
  call void @llvm.dbg.declare(metadata !{%"class.std::queue"** %1}, metadata !985), !dbg !987
  store %"class.std::deque"* %__c, %"class.std::deque"** %2, align 4
  call void @llvm.dbg.declare(metadata !{%"class.std::deque"** %2}, metadata !988), !dbg !990
  %3 = load %"class.std::queue"** %1
  %4 = getelementptr inbounds %"class.std::queue"* %3, i32 0, i32 0, !dbg !991
  %5 = load %"class.std::deque"** %2, align 4, !dbg !991
  %6 = call %"class.std::deque"* @_ZNSt5dequeIdSaIdEEC2ERKS1_(%"class.std::deque"* %4, %"class.std::deque"* dereferenceable(40) %5), !dbg !991
  ret %"class.std::queue"* %3, !dbg !992
}

declare i32 @__gxx_personality_v0(...)

define linkonce_odr %"class.std::deque"* @_ZNSt5dequeIdSaIdEED2Ev(%"class.std::deque"* returned %this) unnamed_addr #0 align 2 {
  %1 = alloca %"class.std::deque"*, align 4
  %2 = alloca %"struct.std::_Deque_iterator", align 4
  %3 = alloca i8*
  %4 = alloca i32
  %5 = alloca %"struct.std::_Deque_iterator", align 4
  store %"class.std::deque"* %this, %"class.std::deque"** %1, align 4
  call void @llvm.dbg.declare(metadata !{%"class.std::deque"** %1}, metadata !993), !dbg !994
  %6 = load %"class.std::deque"** %1
  invoke void @_ZNSt5dequeIdSaIdEE5beginEv(%"struct.std::_Deque_iterator"* sret %2, %"class.std::deque"* %6)
          to label %7 unwind label %15, !dbg !995

; <label>:7                                       ; preds = %0
  invoke void @_ZNSt5dequeIdSaIdEE3endEv(%"struct.std::_Deque_iterator"* sret %5, %"class.std::deque"* %6)
          to label %8 unwind label %15, !dbg !997

; <label>:8                                       ; preds = %7
  %9 = bitcast %"class.std::deque"* %6 to %"class.std::_Deque_base"*, !dbg !999
  %10 = invoke dereferenceable(1) %"class.std::allocator"* @_ZNSt11_Deque_baseIdSaIdEE19_M_get_Tp_allocatorEv(%"class.std::_Deque_base"* %9)
          to label %11 unwind label %15, !dbg !999

; <label>:11                                      ; preds = %8
  invoke void @_ZNSt5dequeIdSaIdEE15_M_destroy_dataESt15_Deque_iteratorIdRdPdES5_RKS0_(%"class.std::deque"* %6, %"struct.std::_Deque_iterator"* %2, %"struct.std::_Deque_iterator"* %5, %"class.std::allocator"* dereferenceable(1) %10)
          to label %12 unwind label %15, !dbg !1001

; <label>:12                                      ; preds = %11
  %13 = bitcast %"class.std::deque"* %6 to %"class.std::_Deque_base"*, !dbg !1003
  %14 = call %"class.std::_Deque_base"* @_ZNSt11_Deque_baseIdSaIdEED2Ev(%"class.std::_Deque_base"* %13), !dbg !1003
  ret %"class.std::deque"* %6, !dbg !1005

; <label>:15                                      ; preds = %11, %8, %7, %0
  %16 = landingpad { i8*, i32 } personality i8* bitcast (i32 (...)* @__gxx_personality_v0 to i8*)
          cleanup, !dbg !1006
  %17 = extractvalue { i8*, i32 } %16, 0, !dbg !1006
  store i8* %17, i8** %3, !dbg !1006
  %18 = extractvalue { i8*, i32 } %16, 1, !dbg !1006
  store i32 %18, i32* %4, !dbg !1006
  %19 = bitcast %"class.std::deque"* %6 to %"class.std::_Deque_base"*, !dbg !1005
  %20 = invoke %"class.std::_Deque_base"* @_ZNSt11_Deque_baseIdSaIdEED2Ev(%"class.std::_Deque_base"* %19)
          to label %21 unwind label %27, !dbg !1005

; <label>:21                                      ; preds = %15
  br label %22, !dbg !1011

; <label>:22                                      ; preds = %21
  %23 = load i8** %3, !dbg !1013
  %24 = load i32* %4, !dbg !1013
  %25 = insertvalue { i8*, i32 } undef, i8* %23, 0, !dbg !1013
  %26 = insertvalue { i8*, i32 } %25, i32 %24, 1, !dbg !1013
  resume { i8*, i32 } %26, !dbg !1013

; <label>:27                                      ; preds = %15
  %28 = landingpad { i8*, i32 } personality i8* bitcast (i32 (...)* @__gxx_personality_v0 to i8*)
          catch i8* null, !dbg !1015
  %29 = extractvalue { i8*, i32 } %28, 0, !dbg !1015
  call void @__clang_call_terminate(i8* %29) #10, !dbg !1015
  unreachable, !dbg !1015
}

; Function Attrs: noinline noreturn nounwind
define linkonce_odr hidden void @__clang_call_terminate(i8*) #2 {
  %2 = call i8* @__cxa_begin_catch(i8* %0) #9
  call void @_ZSt9terminatev() #10
  unreachable
}

declare i8* @__cxa_begin_catch(i8*)

declare void @_ZSt9terminatev()

define %class.MoveAvg* @_ZN7MoveAvgC2Ej(%class.MoveAvg* returned %this, i32 %length) unnamed_addr #0 align 2 {
  %1 = alloca %class.MoveAvg*, align 4
  %2 = alloca i32, align 4
  %3 = alloca %"class.std::deque", align 4
  %4 = alloca i8*
  %5 = alloca i32
  store %class.MoveAvg* %this, %class.MoveAvg** %1, align 4
  call void @llvm.dbg.declare(metadata !{%class.MoveAvg** %1}, metadata !1017), !dbg !1018
  store i32 %length, i32* %2, align 4
  call void @llvm.dbg.declare(metadata !{i32* %2}, metadata !1019), !dbg !1021
  %6 = load %class.MoveAvg** %1
  %7 = getelementptr inbounds %class.MoveAvg* %6, i32 0, i32 0, !dbg !1022
  %8 = call %"class.std::deque"* @_ZNSt5dequeIdSaIdEEC2Ev(%"class.std::deque"* %3), !dbg !1022
  %9 = invoke %"class.std::queue"* @_ZNSt5queueIdSt5dequeIdSaIdEEEC2ERKS2_(%"class.std::queue"* %7, %"class.std::deque"* dereferenceable(40) %3)
          to label %10 unwind label %15, !dbg !1022

; <label>:10                                      ; preds = %0
  %11 = call %"class.std::deque"* @_ZNSt5dequeIdSaIdEED2Ev(%"class.std::deque"* %3), !dbg !1023
  %12 = getelementptr inbounds %class.MoveAvg* %6, i32 0, i32 1, !dbg !1023
  %13 = load i32* %2, align 4, !dbg !1023
  store i32 %13, i32* %12, align 4, !dbg !1023
  %14 = getelementptr inbounds %class.MoveAvg* %6, i32 0, i32 2, !dbg !1023
  store double 0.000000e+00, double* %14, align 8, !dbg !1023
  ret %class.MoveAvg* %6, !dbg !1025

; <label>:15                                      ; preds = %0
  %16 = landingpad { i8*, i32 } personality i8* bitcast (i32 (...)* @__gxx_personality_v0 to i8*)
          cleanup, !dbg !1025
  %17 = extractvalue { i8*, i32 } %16, 0, !dbg !1025
  store i8* %17, i8** %4, !dbg !1025
  %18 = extractvalue { i8*, i32 } %16, 1, !dbg !1025
  store i32 %18, i32* %5, !dbg !1025
  %19 = invoke %"class.std::deque"* @_ZNSt5dequeIdSaIdEED2Ev(%"class.std::deque"* %3)
          to label %20 unwind label %26, !dbg !1025

; <label>:20                                      ; preds = %15
  br label %21, !dbg !1026

; <label>:21                                      ; preds = %20
  %22 = load i8** %4, !dbg !1028
  %23 = load i32* %5, !dbg !1028
  %24 = insertvalue { i8*, i32 } undef, i8* %22, 0, !dbg !1028
  %25 = insertvalue { i8*, i32 } %24, i32 %23, 1, !dbg !1028
  resume { i8*, i32 } %25, !dbg !1028

; <label>:26                                      ; preds = %15
  %27 = landingpad { i8*, i32 } personality i8* bitcast (i32 (...)* @__gxx_personality_v0 to i8*)
          catch i8* null, !dbg !1030
  %28 = extractvalue { i8*, i32 } %27, 0, !dbg !1030
  call void @__clang_call_terminate(i8* %28) #10, !dbg !1030
  unreachable, !dbg !1030
}

define void @_ZN7MoveAvg9addSampleEd(%class.MoveAvg* %this, double %sample) #0 align 2 {
  %1 = alloca %class.MoveAvg*, align 4
  %2 = alloca double, align 8
  store %class.MoveAvg* %this, %class.MoveAvg** %1, align 4
  call void @llvm.dbg.declare(metadata !{%class.MoveAvg** %1}, metadata !1032), !dbg !1033
  store double %sample, double* %2, align 8
  call void @llvm.dbg.declare(metadata !{double* %2}, metadata !1034), !dbg !1035
  %3 = load %class.MoveAvg** %1
  %4 = getelementptr inbounds %class.MoveAvg* %3, i32 0, i32 0, !dbg !1036
  call void @_ZNSt5queueIdSt5dequeIdSaIdEEE4pushERKd(%"class.std::queue"* %4, double* dereferenceable(8) %2), !dbg !1036
  %5 = load double* %2, align 8, !dbg !1037
  %6 = getelementptr inbounds %class.MoveAvg* %3, i32 0, i32 2, !dbg !1037
  %7 = load double* %6, align 8, !dbg !1037
  %8 = fadd double %7, %5, !dbg !1037
  store double %8, double* %6, align 8, !dbg !1037
  %9 = getelementptr inbounds %class.MoveAvg* %3, i32 0, i32 0, !dbg !1038
  %10 = call i32 @_ZNKSt5queueIdSt5dequeIdSaIdEEE4sizeEv(%"class.std::queue"* %9), !dbg !1038
  %11 = getelementptr inbounds %class.MoveAvg* %3, i32 0, i32 1, !dbg !1038
  %12 = load i32* %11, align 4, !dbg !1038
  %13 = icmp ugt i32 %10, %12, !dbg !1038
  br i1 %13, label %14, label %22, !dbg !1038

; <label>:14                                      ; preds = %0
  %15 = getelementptr inbounds %class.MoveAvg* %3, i32 0, i32 0, !dbg !1040
  %16 = call dereferenceable(8) double* @_ZNSt5queueIdSt5dequeIdSaIdEEE5frontEv(%"class.std::queue"* %15), !dbg !1040
  %17 = load double* %16, !dbg !1040
  %18 = getelementptr inbounds %class.MoveAvg* %3, i32 0, i32 2, !dbg !1040
  %19 = load double* %18, align 8, !dbg !1040
  %20 = fsub double %19, %17, !dbg !1040
  store double %20, double* %18, align 8, !dbg !1040
  %21 = getelementptr inbounds %class.MoveAvg* %3, i32 0, i32 0, !dbg !1042
  call void @_ZNSt5queueIdSt5dequeIdSaIdEEE3popEv(%"class.std::queue"* %21), !dbg !1042
  br label %22, !dbg !1043

; <label>:22                                      ; preds = %14, %0
  ret void, !dbg !1044
}

define linkonce_odr void @_ZNSt5queueIdSt5dequeIdSaIdEEE4pushERKd(%"class.std::queue"* %this, double* dereferenceable(8) %__x) #0 align 2 {
  %1 = alloca %"class.std::queue"*, align 4
  %2 = alloca double*, align 4
  store %"class.std::queue"* %this, %"class.std::queue"** %1, align 4
  call void @llvm.dbg.declare(metadata !{%"class.std::queue"** %1}, metadata !1045), !dbg !1046
  store double* %__x, double** %2, align 4
  call void @llvm.dbg.declare(metadata !{double** %2}, metadata !1047), !dbg !1048
  %3 = load %"class.std::queue"** %1
  %4 = getelementptr inbounds %"class.std::queue"* %3, i32 0, i32 0, !dbg !1049
  %5 = load double** %2, align 4, !dbg !1049
  call void @_ZNSt5dequeIdSaIdEE9push_backERKd(%"class.std::deque"* %4, double* dereferenceable(8) %5), !dbg !1049
  ret void, !dbg !1050
}

define linkonce_odr i32 @_ZNKSt5queueIdSt5dequeIdSaIdEEE4sizeEv(%"class.std::queue"* %this) #0 align 2 {
  %1 = alloca %"class.std::queue"*, align 4
  store %"class.std::queue"* %this, %"class.std::queue"** %1, align 4
  call void @llvm.dbg.declare(metadata !{%"class.std::queue"** %1}, metadata !1051), !dbg !1053
  %2 = load %"class.std::queue"** %1
  %3 = getelementptr inbounds %"class.std::queue"* %2, i32 0, i32 0, !dbg !1054
  %4 = call i32 @_ZNKSt5dequeIdSaIdEE4sizeEv(%"class.std::deque"* %3), !dbg !1054
  ret i32 %4, !dbg !1054
}

define linkonce_odr dereferenceable(8) double* @_ZNSt5queueIdSt5dequeIdSaIdEEE5frontEv(%"class.std::queue"* %this) #0 align 2 {
  %1 = alloca %"class.std::queue"*, align 4
  store %"class.std::queue"* %this, %"class.std::queue"** %1, align 4
  call void @llvm.dbg.declare(metadata !{%"class.std::queue"** %1}, metadata !1055), !dbg !1056
  %2 = load %"class.std::queue"** %1
  %3 = getelementptr inbounds %"class.std::queue"* %2, i32 0, i32 0, !dbg !1057
  %4 = call dereferenceable(8) double* @_ZNSt5dequeIdSaIdEE5frontEv(%"class.std::deque"* %3), !dbg !1057
  ret double* %4, !dbg !1057
}

define linkonce_odr void @_ZNSt5queueIdSt5dequeIdSaIdEEE3popEv(%"class.std::queue"* %this) #0 align 2 {
  %1 = alloca %"class.std::queue"*, align 4
  store %"class.std::queue"* %this, %"class.std::queue"** %1, align 4
  call void @llvm.dbg.declare(metadata !{%"class.std::queue"** %1}, metadata !1058), !dbg !1059
  %2 = load %"class.std::queue"** %1
  %3 = getelementptr inbounds %"class.std::queue"* %2, i32 0, i32 0, !dbg !1060
  call void @_ZNSt5dequeIdSaIdEE9pop_frontEv(%"class.std::deque"* %3), !dbg !1060
  ret void, !dbg !1061
}

define double @_ZNK7MoveAvg13getLastSampleEv(%class.MoveAvg* %this) #0 align 2 {
  %1 = alloca double, align 8
  %2 = alloca %class.MoveAvg*, align 4
  store %class.MoveAvg* %this, %class.MoveAvg** %2, align 4
  call void @llvm.dbg.declare(metadata !{%class.MoveAvg** %2}, metadata !1062), !dbg !1064
  %3 = load %class.MoveAvg** %2
  %4 = getelementptr inbounds %class.MoveAvg* %3, i32 0, i32 0, !dbg !1065
  %5 = call zeroext i1 @_ZNKSt5queueIdSt5dequeIdSaIdEEE5emptyEv(%"class.std::queue"* %4), !dbg !1065
  br i1 %5, label %6, label %7, !dbg !1065

; <label>:6                                       ; preds = %0
  store double 0.000000e+00, double* %1, !dbg !1067
  br label %11, !dbg !1067

; <label>:7                                       ; preds = %0
  %8 = getelementptr inbounds %class.MoveAvg* %3, i32 0, i32 0, !dbg !1068
  %9 = call dereferenceable(8) double* @_ZNKSt5queueIdSt5dequeIdSaIdEEE4backEv(%"class.std::queue"* %8), !dbg !1068
  %10 = load double* %9, !dbg !1068
  store double %10, double* %1, !dbg !1068
  br label %11, !dbg !1068

; <label>:11                                      ; preds = %7, %6
  %12 = load double* %1, !dbg !1069
  ret double %12, !dbg !1069
}

define linkonce_odr zeroext i1 @_ZNKSt5queueIdSt5dequeIdSaIdEEE5emptyEv(%"class.std::queue"* %this) #0 align 2 {
  %1 = alloca %"class.std::queue"*, align 4
  store %"class.std::queue"* %this, %"class.std::queue"** %1, align 4
  call void @llvm.dbg.declare(metadata !{%"class.std::queue"** %1}, metadata !1070), !dbg !1071
  %2 = load %"class.std::queue"** %1
  %3 = getelementptr inbounds %"class.std::queue"* %2, i32 0, i32 0, !dbg !1072
  %4 = call zeroext i1 @_ZNKSt5dequeIdSaIdEE5emptyEv(%"class.std::deque"* %3), !dbg !1072
  ret i1 %4, !dbg !1072
}

define linkonce_odr dereferenceable(8) double* @_ZNKSt5queueIdSt5dequeIdSaIdEEE4backEv(%"class.std::queue"* %this) #0 align 2 {
  %1 = alloca %"class.std::queue"*, align 4
  store %"class.std::queue"* %this, %"class.std::queue"** %1, align 4
  call void @llvm.dbg.declare(metadata !{%"class.std::queue"** %1}, metadata !1073), !dbg !1074
  %2 = load %"class.std::queue"** %1
  %3 = getelementptr inbounds %"class.std::queue"* %2, i32 0, i32 0, !dbg !1075
  %4 = call dereferenceable(8) double* @_ZNKSt5dequeIdSaIdEE4backEv(%"class.std::deque"* %3), !dbg !1075
  ret double* %4, !dbg !1075
}

define double @_ZNK7MoveAvg14getCurrentMeanEv(%class.MoveAvg* %this) #0 align 2 {
  %1 = alloca double, align 8
  %2 = alloca %class.MoveAvg*, align 4
  store %class.MoveAvg* %this, %class.MoveAvg** %2, align 4
  call void @llvm.dbg.declare(metadata !{%class.MoveAvg** %2}, metadata !1076), !dbg !1077
  %3 = load %class.MoveAvg** %2
  %4 = getelementptr inbounds %class.MoveAvg* %3, i32 0, i32 0, !dbg !1078
  %5 = call zeroext i1 @_ZNKSt5queueIdSt5dequeIdSaIdEEE5emptyEv(%"class.std::queue"* %4), !dbg !1078
  br i1 %5, label %6, label %7, !dbg !1078

; <label>:6                                       ; preds = %0
  store double 0.000000e+00, double* %1, !dbg !1080
  br label %14, !dbg !1080

; <label>:7                                       ; preds = %0
  %8 = getelementptr inbounds %class.MoveAvg* %3, i32 0, i32 2, !dbg !1081
  %9 = load double* %8, align 8, !dbg !1081
  %10 = getelementptr inbounds %class.MoveAvg* %3, i32 0, i32 0, !dbg !1082
  %11 = call i32 @_ZNKSt5queueIdSt5dequeIdSaIdEEE4sizeEv(%"class.std::queue"* %10), !dbg !1082
  %12 = uitofp i32 %11 to double, !dbg !1082
  %13 = fdiv double %9, %12, !dbg !1082
  store double %13, double* %1, !dbg !1082
  br label %14, !dbg !1082

; <label>:14                                      ; preds = %7, %6
  %15 = load double* %1, !dbg !1083
  ret double %15, !dbg !1083
}

define i32 @_ZNK7MoveAvg11getSampleNBEv(%class.MoveAvg* %this) #0 align 2 {
  %1 = alloca %class.MoveAvg*, align 4
  store %class.MoveAvg* %this, %class.MoveAvg** %1, align 4
  call void @llvm.dbg.declare(metadata !{%class.MoveAvg** %1}, metadata !1084), !dbg !1085
  %2 = load %class.MoveAvg** %1
  %3 = getelementptr inbounds %class.MoveAvg* %2, i32 0, i32 0, !dbg !1086
  %4 = call i32 @_ZNKSt5queueIdSt5dequeIdSaIdEEE4sizeEv(%"class.std::queue"* %3), !dbg !1086
  ret i32 %4, !dbg !1086
}

define linkonce_odr dereferenceable(8) double* @_ZNKSt5dequeIdSaIdEE4backEv(%"class.std::deque"* %this) #0 align 2 {
  %1 = alloca %"class.std::deque"*, align 4
  %__tmp = alloca %"struct.std::_Deque_iterator.0", align 4
  store %"class.std::deque"* %this, %"class.std::deque"** %1, align 4
  call void @llvm.dbg.declare(metadata !{%"class.std::deque"** %1}, metadata !1087), !dbg !1089
  %2 = load %"class.std::deque"** %1
  call void @llvm.dbg.declare(metadata !{%"struct.std::_Deque_iterator.0"* %__tmp}, metadata !1090), !dbg !1092
  call void @_ZNKSt5dequeIdSaIdEE3endEv(%"struct.std::_Deque_iterator.0"* sret %__tmp, %"class.std::deque"* %2), !dbg !1093
  %3 = call dereferenceable(16) %"struct.std::_Deque_iterator.0"* @_ZNSt15_Deque_iteratorIdRKdPS0_EmmEv(%"struct.std::_Deque_iterator.0"* %__tmp), !dbg !1094
  %4 = call dereferenceable(8) double* @_ZNKSt15_Deque_iteratorIdRKdPS0_EdeEv(%"struct.std::_Deque_iterator.0"* %__tmp), !dbg !1095
  ret double* %4, !dbg !1095
}

define linkonce_odr void @_ZNKSt5dequeIdSaIdEE3endEv(%"struct.std::_Deque_iterator.0"* noalias sret %agg.result, %"class.std::deque"* %this) #0 align 2 {
  %1 = alloca %"class.std::deque"*, align 4
  store %"class.std::deque"* %this, %"class.std::deque"** %1, align 4
  call void @llvm.dbg.declare(metadata !{%"class.std::deque"** %1}, metadata !1096), !dbg !1097
  %2 = load %"class.std::deque"** %1
  %3 = bitcast %"class.std::deque"* %2 to %"class.std::_Deque_base"*, !dbg !1098
  %4 = getelementptr inbounds %"class.std::_Deque_base"* %3, i32 0, i32 0, !dbg !1098
  %5 = getelementptr inbounds %"struct.std::_Deque_base<double, std::allocator<double> >::_Deque_impl"* %4, i32 0, i32 3, !dbg !1098
  %6 = call %"struct.std::_Deque_iterator.0"* @_ZNSt15_Deque_iteratorIdRKdPS0_EC2ERKS_IdRdPdE(%"struct.std::_Deque_iterator.0"* %agg.result, %"struct.std::_Deque_iterator"* dereferenceable(16) %5), !dbg !1098
  ret void, !dbg !1098
}

define linkonce_odr dereferenceable(16) %"struct.std::_Deque_iterator.0"* @_ZNSt15_Deque_iteratorIdRKdPS0_EmmEv(%"struct.std::_Deque_iterator.0"* %this) #0 align 2 {
  %1 = alloca %"struct.std::_Deque_iterator.0"*, align 4
  store %"struct.std::_Deque_iterator.0"* %this, %"struct.std::_Deque_iterator.0"** %1, align 4
  call void @llvm.dbg.declare(metadata !{%"struct.std::_Deque_iterator.0"** %1}, metadata !1099), !dbg !1101
  %2 = load %"struct.std::_Deque_iterator.0"** %1
  %3 = getelementptr inbounds %"struct.std::_Deque_iterator.0"* %2, i32 0, i32 0, !dbg !1102
  %4 = load double** %3, align 4, !dbg !1102
  %5 = getelementptr inbounds %"struct.std::_Deque_iterator.0"* %2, i32 0, i32 1, !dbg !1102
  %6 = load double** %5, align 4, !dbg !1102
  %7 = icmp eq double* %4, %6, !dbg !1102
  br i1 %7, label %8, label %15, !dbg !1102

; <label>:8                                       ; preds = %0
  %9 = getelementptr inbounds %"struct.std::_Deque_iterator.0"* %2, i32 0, i32 3, !dbg !1104
  %10 = load double*** %9, align 4, !dbg !1104
  %11 = getelementptr inbounds double** %10, i32 -1, !dbg !1104
  call void @_ZNSt15_Deque_iteratorIdRKdPS0_E11_M_set_nodeEPPd(%"struct.std::_Deque_iterator.0"* %2, double** %11), !dbg !1104
  %12 = getelementptr inbounds %"struct.std::_Deque_iterator.0"* %2, i32 0, i32 2, !dbg !1106
  %13 = load double** %12, align 4, !dbg !1106
  %14 = getelementptr inbounds %"struct.std::_Deque_iterator.0"* %2, i32 0, i32 0, !dbg !1106
  store double* %13, double** %14, align 4, !dbg !1106
  br label %15, !dbg !1107

; <label>:15                                      ; preds = %8, %0
  %16 = getelementptr inbounds %"struct.std::_Deque_iterator.0"* %2, i32 0, i32 0, !dbg !1108
  %17 = load double** %16, align 4, !dbg !1108
  %18 = getelementptr inbounds double* %17, i32 -1, !dbg !1108
  store double* %18, double** %16, align 4, !dbg !1108
  ret %"struct.std::_Deque_iterator.0"* %2, !dbg !1109
}

; Function Attrs: nounwind
define linkonce_odr dereferenceable(8) double* @_ZNKSt15_Deque_iteratorIdRKdPS0_EdeEv(%"struct.std::_Deque_iterator.0"* %this) #3 align 2 {
  %1 = alloca %"struct.std::_Deque_iterator.0"*, align 4
  store %"struct.std::_Deque_iterator.0"* %this, %"struct.std::_Deque_iterator.0"** %1, align 4
  call void @llvm.dbg.declare(metadata !{%"struct.std::_Deque_iterator.0"** %1}, metadata !1110), !dbg !1112
  %2 = load %"struct.std::_Deque_iterator.0"** %1
  %3 = getelementptr inbounds %"struct.std::_Deque_iterator.0"* %2, i32 0, i32 0, !dbg !1113
  %4 = load double** %3, align 4, !dbg !1113
  ret double* %4, !dbg !1113
}

define linkonce_odr void @_ZNSt15_Deque_iteratorIdRKdPS0_E11_M_set_nodeEPPd(%"struct.std::_Deque_iterator.0"* %this, double** %__new_node) #0 align 2 {
  %1 = alloca %"struct.std::_Deque_iterator.0"*, align 4
  %2 = alloca double**, align 4
  store %"struct.std::_Deque_iterator.0"* %this, %"struct.std::_Deque_iterator.0"** %1, align 4
  call void @llvm.dbg.declare(metadata !{%"struct.std::_Deque_iterator.0"** %1}, metadata !1114), !dbg !1115
  store double** %__new_node, double*** %2, align 4
  call void @llvm.dbg.declare(metadata !{double*** %2}, metadata !1116), !dbg !1117
  %3 = load %"struct.std::_Deque_iterator.0"** %1
  %4 = load double*** %2, align 4, !dbg !1118
  %5 = getelementptr inbounds %"struct.std::_Deque_iterator.0"* %3, i32 0, i32 3, !dbg !1118
  store double** %4, double*** %5, align 4, !dbg !1118
  %6 = load double*** %2, align 4, !dbg !1119
  %7 = load double** %6, align 4, !dbg !1119
  %8 = getelementptr inbounds %"struct.std::_Deque_iterator.0"* %3, i32 0, i32 1, !dbg !1119
  store double* %7, double** %8, align 4, !dbg !1119
  %9 = getelementptr inbounds %"struct.std::_Deque_iterator.0"* %3, i32 0, i32 1, !dbg !1120
  %10 = load double** %9, align 4, !dbg !1120
  %11 = call i32 @_ZNSt15_Deque_iteratorIdRKdPS0_E14_S_buffer_sizeEv(), !dbg !1121
  %12 = getelementptr inbounds double* %10, i32 %11, !dbg !1121
  %13 = getelementptr inbounds %"struct.std::_Deque_iterator.0"* %3, i32 0, i32 2, !dbg !1121
  store double* %12, double** %13, align 4, !dbg !1121
  ret void, !dbg !1122
}

define linkonce_odr i32 @_ZNSt15_Deque_iteratorIdRKdPS0_E14_S_buffer_sizeEv() #0 align 2 {
  %1 = call i32 @_ZSt16__deque_buf_sizej(i32 8), !dbg !1123
  ret i32 %1, !dbg !1123
}

; Function Attrs: inlinehint nounwind
define linkonce_odr i32 @_ZSt16__deque_buf_sizej(i32 %__size) #4 {
  %1 = alloca i32, align 4
  store i32 %__size, i32* %1, align 4
  call void @llvm.dbg.declare(metadata !{i32* %1}, metadata !1124), !dbg !1125
  %2 = load i32* %1, align 4, !dbg !1126
  %3 = icmp ult i32 %2, 512, !dbg !1126
  br i1 %3, label %4, label %7, !dbg !1126

; <label>:4                                       ; preds = %0
  %5 = load i32* %1, align 4, !dbg !1127
  %6 = udiv i32 512, %5, !dbg !1127
  br label %8, !dbg !1127

; <label>:7                                       ; preds = %0
  br label %8, !dbg !1129

; <label>:8                                       ; preds = %7, %4
  %9 = phi i32 [ %6, %4 ], [ 1, %7 ], !dbg !1126
  ret i32 %9, !dbg !1131
}

; Function Attrs: nounwind
define linkonce_odr %"struct.std::_Deque_iterator.0"* @_ZNSt15_Deque_iteratorIdRKdPS0_EC2ERKS_IdRdPdE(%"struct.std::_Deque_iterator.0"* returned %this, %"struct.std::_Deque_iterator"* dereferenceable(16) %__x) unnamed_addr #3 align 2 {
  %1 = alloca %"struct.std::_Deque_iterator.0"*, align 4
  %2 = alloca %"struct.std::_Deque_iterator"*, align 4
  store %"struct.std::_Deque_iterator.0"* %this, %"struct.std::_Deque_iterator.0"** %1, align 4
  call void @llvm.dbg.declare(metadata !{%"struct.std::_Deque_iterator.0"** %1}, metadata !1134), !dbg !1135
  store %"struct.std::_Deque_iterator"* %__x, %"struct.std::_Deque_iterator"** %2, align 4
  call void @llvm.dbg.declare(metadata !{%"struct.std::_Deque_iterator"** %2}, metadata !1136), !dbg !1137
  %3 = load %"struct.std::_Deque_iterator.0"** %1
  %4 = getelementptr inbounds %"struct.std::_Deque_iterator.0"* %3, i32 0, i32 0, !dbg !1138
  %5 = load %"struct.std::_Deque_iterator"** %2, align 4, !dbg !1138
  %6 = getelementptr inbounds %"struct.std::_Deque_iterator"* %5, i32 0, i32 0, !dbg !1138
  %7 = load double** %6, align 4, !dbg !1138
  store double* %7, double** %4, align 4, !dbg !1138
  %8 = getelementptr inbounds %"struct.std::_Deque_iterator.0"* %3, i32 0, i32 1, !dbg !1138
  %9 = load %"struct.std::_Deque_iterator"** %2, align 4, !dbg !1138
  %10 = getelementptr inbounds %"struct.std::_Deque_iterator"* %9, i32 0, i32 1, !dbg !1138
  %11 = load double** %10, align 4, !dbg !1138
  store double* %11, double** %8, align 4, !dbg !1138
  %12 = getelementptr inbounds %"struct.std::_Deque_iterator.0"* %3, i32 0, i32 2, !dbg !1138
  %13 = load %"struct.std::_Deque_iterator"** %2, align 4, !dbg !1138
  %14 = getelementptr inbounds %"struct.std::_Deque_iterator"* %13, i32 0, i32 2, !dbg !1138
  %15 = load double** %14, align 4, !dbg !1138
  store double* %15, double** %12, align 4, !dbg !1138
  %16 = getelementptr inbounds %"struct.std::_Deque_iterator.0"* %3, i32 0, i32 3, !dbg !1138
  %17 = load %"struct.std::_Deque_iterator"** %2, align 4, !dbg !1138
  %18 = getelementptr inbounds %"struct.std::_Deque_iterator"* %17, i32 0, i32 3, !dbg !1138
  %19 = load double*** %18, align 4, !dbg !1138
  store double** %19, double*** %16, align 4, !dbg !1138
  ret %"struct.std::_Deque_iterator.0"* %3, !dbg !1139
}

define linkonce_odr zeroext i1 @_ZNKSt5dequeIdSaIdEE5emptyEv(%"class.std::deque"* %this) #0 align 2 {
  %1 = alloca %"class.std::deque"*, align 4
  store %"class.std::deque"* %this, %"class.std::deque"** %1, align 4
  call void @llvm.dbg.declare(metadata !{%"class.std::deque"** %1}, metadata !1140), !dbg !1141
  %2 = load %"class.std::deque"** %1
  %3 = bitcast %"class.std::deque"* %2 to %"class.std::_Deque_base"*, !dbg !1142
  %4 = getelementptr inbounds %"class.std::_Deque_base"* %3, i32 0, i32 0, !dbg !1142
  %5 = getelementptr inbounds %"struct.std::_Deque_base<double, std::allocator<double> >::_Deque_impl"* %4, i32 0, i32 3, !dbg !1142
  %6 = bitcast %"class.std::deque"* %2 to %"class.std::_Deque_base"*, !dbg !1142
  %7 = getelementptr inbounds %"class.std::_Deque_base"* %6, i32 0, i32 0, !dbg !1142
  %8 = getelementptr inbounds %"struct.std::_Deque_base<double, std::allocator<double> >::_Deque_impl"* %7, i32 0, i32 2, !dbg !1142
  %9 = call zeroext i1 @_ZSteqIdRdPdEbRKSt15_Deque_iteratorIT_T0_T1_ES8_(%"struct.std::_Deque_iterator"* dereferenceable(16) %5, %"struct.std::_Deque_iterator"* dereferenceable(16) %8), !dbg !1142
  ret i1 %9, !dbg !1142
}

; Function Attrs: inlinehint nounwind
define linkonce_odr zeroext i1 @_ZSteqIdRdPdEbRKSt15_Deque_iteratorIT_T0_T1_ES8_(%"struct.std::_Deque_iterator"* dereferenceable(16) %__x, %"struct.std::_Deque_iterator"* dereferenceable(16) %__y) #4 {
  %1 = alloca %"struct.std::_Deque_iterator"*, align 4
  %2 = alloca %"struct.std::_Deque_iterator"*, align 4
  store %"struct.std::_Deque_iterator"* %__x, %"struct.std::_Deque_iterator"** %1, align 4
  call void @llvm.dbg.declare(metadata !{%"struct.std::_Deque_iterator"** %1}, metadata !1143), !dbg !1144
  store %"struct.std::_Deque_iterator"* %__y, %"struct.std::_Deque_iterator"** %2, align 4
  call void @llvm.dbg.declare(metadata !{%"struct.std::_Deque_iterator"** %2}, metadata !1145), !dbg !1146
  %3 = load %"struct.std::_Deque_iterator"** %1, align 4, !dbg !1147
  %4 = getelementptr inbounds %"struct.std::_Deque_iterator"* %3, i32 0, i32 0, !dbg !1147
  %5 = load double** %4, align 4, !dbg !1147
  %6 = load %"struct.std::_Deque_iterator"** %2, align 4, !dbg !1147
  %7 = getelementptr inbounds %"struct.std::_Deque_iterator"* %6, i32 0, i32 0, !dbg !1147
  %8 = load double** %7, align 4, !dbg !1147
  %9 = icmp eq double* %5, %8, !dbg !1147
  ret i1 %9, !dbg !1147
}

define linkonce_odr void @_ZNSt5dequeIdSaIdEE9pop_frontEv(%"class.std::deque"* %this) #0 align 2 {
  %1 = alloca %"class.std::deque"*, align 4
  store %"class.std::deque"* %this, %"class.std::deque"** %1, align 4
  call void @llvm.dbg.declare(metadata !{%"class.std::deque"** %1}, metadata !1148), !dbg !1149
  %2 = load %"class.std::deque"** %1
  %3 = bitcast %"class.std::deque"* %2 to %"class.std::_Deque_base"*, !dbg !1150
  %4 = getelementptr inbounds %"class.std::_Deque_base"* %3, i32 0, i32 0, !dbg !1150
  %5 = getelementptr inbounds %"struct.std::_Deque_base<double, std::allocator<double> >::_Deque_impl"* %4, i32 0, i32 2, !dbg !1150
  %6 = getelementptr inbounds %"struct.std::_Deque_iterator"* %5, i32 0, i32 0, !dbg !1150
  %7 = load double** %6, align 4, !dbg !1150
  %8 = bitcast %"class.std::deque"* %2 to %"class.std::_Deque_base"*, !dbg !1150
  %9 = getelementptr inbounds %"class.std::_Deque_base"* %8, i32 0, i32 0, !dbg !1150
  %10 = getelementptr inbounds %"struct.std::_Deque_base<double, std::allocator<double> >::_Deque_impl"* %9, i32 0, i32 2, !dbg !1150
  %11 = getelementptr inbounds %"struct.std::_Deque_iterator"* %10, i32 0, i32 2, !dbg !1150
  %12 = load double** %11, align 4, !dbg !1150
  %13 = getelementptr inbounds double* %12, i32 -1, !dbg !1150
  %14 = icmp ne double* %7, %13, !dbg !1150
  br i1 %14, label %15, label %30, !dbg !1150

; <label>:15                                      ; preds = %0
  %16 = bitcast %"class.std::deque"* %2 to %"class.std::_Deque_base"*, !dbg !1152
  %17 = getelementptr inbounds %"class.std::_Deque_base"* %16, i32 0, i32 0, !dbg !1152
  %18 = bitcast %"struct.std::_Deque_base<double, std::allocator<double> >::_Deque_impl"* %17 to %"class.__gnu_cxx::new_allocator"*, !dbg !1152
  %19 = bitcast %"class.std::deque"* %2 to %"class.std::_Deque_base"*, !dbg !1152
  %20 = getelementptr inbounds %"class.std::_Deque_base"* %19, i32 0, i32 0, !dbg !1152
  %21 = getelementptr inbounds %"struct.std::_Deque_base<double, std::allocator<double> >::_Deque_impl"* %20, i32 0, i32 2, !dbg !1152
  %22 = getelementptr inbounds %"struct.std::_Deque_iterator"* %21, i32 0, i32 0, !dbg !1152
  %23 = load double** %22, align 4, !dbg !1152
  call void @_ZN9__gnu_cxx13new_allocatorIdE7destroyEPd(%"class.__gnu_cxx::new_allocator"* %18, double* %23), !dbg !1152
  %24 = bitcast %"class.std::deque"* %2 to %"class.std::_Deque_base"*, !dbg !1154
  %25 = getelementptr inbounds %"class.std::_Deque_base"* %24, i32 0, i32 0, !dbg !1154
  %26 = getelementptr inbounds %"struct.std::_Deque_base<double, std::allocator<double> >::_Deque_impl"* %25, i32 0, i32 2, !dbg !1154
  %27 = getelementptr inbounds %"struct.std::_Deque_iterator"* %26, i32 0, i32 0, !dbg !1154
  %28 = load double** %27, align 4, !dbg !1154
  %29 = getelementptr inbounds double* %28, i32 1, !dbg !1154
  store double* %29, double** %27, align 4, !dbg !1154
  br label %31, !dbg !1155

; <label>:30                                      ; preds = %0
  call void @_ZNSt5dequeIdSaIdEE16_M_pop_front_auxEv(%"class.std::deque"* %2), !dbg !1156
  br label %31

; <label>:31                                      ; preds = %30, %15
  ret void, !dbg !1157
}

; Function Attrs: nounwind
define linkonce_odr void @_ZN9__gnu_cxx13new_allocatorIdE7destroyEPd(%"class.__gnu_cxx::new_allocator"* %this, double* %__p) #3 align 2 {
  %1 = alloca %"class.__gnu_cxx::new_allocator"*, align 4
  %2 = alloca double*, align 4
  store %"class.__gnu_cxx::new_allocator"* %this, %"class.__gnu_cxx::new_allocator"** %1, align 4
  call void @llvm.dbg.declare(metadata !{%"class.__gnu_cxx::new_allocator"** %1}, metadata !1158), !dbg !1160
  store double* %__p, double** %2, align 4
  call void @llvm.dbg.declare(metadata !{double** %2}, metadata !1161), !dbg !1163
  %3 = load %"class.__gnu_cxx::new_allocator"** %1
  %4 = load double** %2, align 4, !dbg !1164
  ret void, !dbg !1165
}

define linkonce_odr void @_ZNSt5dequeIdSaIdEE16_M_pop_front_auxEv(%"class.std::deque"* %this) #0 align 2 {
  %1 = alloca %"class.std::deque"*, align 4
  store %"class.std::deque"* %this, %"class.std::deque"** %1, align 4
  call void @llvm.dbg.declare(metadata !{%"class.std::deque"** %1}, metadata !1166), !dbg !1167
  %2 = load %"class.std::deque"** %1
  %3 = bitcast %"class.std::deque"* %2 to %"class.std::_Deque_base"*, !dbg !1168
  %4 = getelementptr inbounds %"class.std::_Deque_base"* %3, i32 0, i32 0, !dbg !1168
  %5 = bitcast %"struct.std::_Deque_base<double, std::allocator<double> >::_Deque_impl"* %4 to %"class.__gnu_cxx::new_allocator"*, !dbg !1168
  %6 = bitcast %"class.std::deque"* %2 to %"class.std::_Deque_base"*, !dbg !1168
  %7 = getelementptr inbounds %"class.std::_Deque_base"* %6, i32 0, i32 0, !dbg !1168
  %8 = getelementptr inbounds %"struct.std::_Deque_base<double, std::allocator<double> >::_Deque_impl"* %7, i32 0, i32 2, !dbg !1168
  %9 = getelementptr inbounds %"struct.std::_Deque_iterator"* %8, i32 0, i32 0, !dbg !1168
  %10 = load double** %9, align 4, !dbg !1168
  call void @_ZN9__gnu_cxx13new_allocatorIdE7destroyEPd(%"class.__gnu_cxx::new_allocator"* %5, double* %10), !dbg !1168
  %11 = bitcast %"class.std::deque"* %2 to %"class.std::_Deque_base"*, !dbg !1169
  %12 = bitcast %"class.std::deque"* %2 to %"class.std::_Deque_base"*, !dbg !1169
  %13 = getelementptr inbounds %"class.std::_Deque_base"* %12, i32 0, i32 0, !dbg !1169
  %14 = getelementptr inbounds %"struct.std::_Deque_base<double, std::allocator<double> >::_Deque_impl"* %13, i32 0, i32 2, !dbg !1169
  %15 = getelementptr inbounds %"struct.std::_Deque_iterator"* %14, i32 0, i32 1, !dbg !1169
  %16 = load double** %15, align 4, !dbg !1169
  call void @_ZNSt11_Deque_baseIdSaIdEE18_M_deallocate_nodeEPd(%"class.std::_Deque_base"* %11, double* %16), !dbg !1169
  %17 = bitcast %"class.std::deque"* %2 to %"class.std::_Deque_base"*, !dbg !1170
  %18 = getelementptr inbounds %"class.std::_Deque_base"* %17, i32 0, i32 0, !dbg !1170
  %19 = getelementptr inbounds %"struct.std::_Deque_base<double, std::allocator<double> >::_Deque_impl"* %18, i32 0, i32 2, !dbg !1170
  %20 = bitcast %"class.std::deque"* %2 to %"class.std::_Deque_base"*, !dbg !1170
  %21 = getelementptr inbounds %"class.std::_Deque_base"* %20, i32 0, i32 0, !dbg !1170
  %22 = getelementptr inbounds %"struct.std::_Deque_base<double, std::allocator<double> >::_Deque_impl"* %21, i32 0, i32 2, !dbg !1170
  %23 = getelementptr inbounds %"struct.std::_Deque_iterator"* %22, i32 0, i32 3, !dbg !1170
  %24 = load double*** %23, align 4, !dbg !1170
  %25 = getelementptr inbounds double** %24, i32 1, !dbg !1170
  call void @_ZNSt15_Deque_iteratorIdRdPdE11_M_set_nodeEPS1_(%"struct.std::_Deque_iterator"* %19, double** %25), !dbg !1170
  %26 = bitcast %"class.std::deque"* %2 to %"class.std::_Deque_base"*, !dbg !1171
  %27 = getelementptr inbounds %"class.std::_Deque_base"* %26, i32 0, i32 0, !dbg !1171
  %28 = getelementptr inbounds %"struct.std::_Deque_base<double, std::allocator<double> >::_Deque_impl"* %27, i32 0, i32 2, !dbg !1171
  %29 = getelementptr inbounds %"struct.std::_Deque_iterator"* %28, i32 0, i32 1, !dbg !1171
  %30 = load double** %29, align 4, !dbg !1171
  %31 = bitcast %"class.std::deque"* %2 to %"class.std::_Deque_base"*, !dbg !1171
  %32 = getelementptr inbounds %"class.std::_Deque_base"* %31, i32 0, i32 0, !dbg !1171
  %33 = getelementptr inbounds %"struct.std::_Deque_base<double, std::allocator<double> >::_Deque_impl"* %32, i32 0, i32 2, !dbg !1171
  %34 = getelementptr inbounds %"struct.std::_Deque_iterator"* %33, i32 0, i32 0, !dbg !1171
  store double* %30, double** %34, align 4, !dbg !1171
  ret void, !dbg !1172
}

define linkonce_odr void @_ZNSt11_Deque_baseIdSaIdEE18_M_deallocate_nodeEPd(%"class.std::_Deque_base"* %this, double* %__p) #0 align 2 {
  %1 = alloca %"class.std::_Deque_base"*, align 4
  %2 = alloca double*, align 4
  store %"class.std::_Deque_base"* %this, %"class.std::_Deque_base"** %1, align 4
  call void @llvm.dbg.declare(metadata !{%"class.std::_Deque_base"** %1}, metadata !1173), !dbg !1175
  store double* %__p, double** %2, align 4
  call void @llvm.dbg.declare(metadata !{double** %2}, metadata !1176), !dbg !1177
  %3 = load %"class.std::_Deque_base"** %1
  %4 = getelementptr inbounds %"class.std::_Deque_base"* %3, i32 0, i32 0, !dbg !1178
  %5 = bitcast %"struct.std::_Deque_base<double, std::allocator<double> >::_Deque_impl"* %4 to %"class.std::allocator"*, !dbg !1178
  %6 = bitcast %"class.std::allocator"* %5 to %"class.__gnu_cxx::new_allocator"*, !dbg !1178
  %7 = load double** %2, align 4, !dbg !1178
  %8 = call i32 @_ZSt16__deque_buf_sizej(i32 8), !dbg !1179
  call void @_ZN9__gnu_cxx13new_allocatorIdE10deallocateEPdj(%"class.__gnu_cxx::new_allocator"* %6, double* %7, i32 %8), !dbg !1178
  ret void, !dbg !1180
}

define linkonce_odr void @_ZNSt15_Deque_iteratorIdRdPdE11_M_set_nodeEPS1_(%"struct.std::_Deque_iterator"* %this, double** %__new_node) #0 align 2 {
  %1 = alloca %"struct.std::_Deque_iterator"*, align 4
  %2 = alloca double**, align 4
  store %"struct.std::_Deque_iterator"* %this, %"struct.std::_Deque_iterator"** %1, align 4
  call void @llvm.dbg.declare(metadata !{%"struct.std::_Deque_iterator"** %1}, metadata !1181), !dbg !1183
  store double** %__new_node, double*** %2, align 4
  call void @llvm.dbg.declare(metadata !{double*** %2}, metadata !1184), !dbg !1185
  %3 = load %"struct.std::_Deque_iterator"** %1
  %4 = load double*** %2, align 4, !dbg !1186
  %5 = getelementptr inbounds %"struct.std::_Deque_iterator"* %3, i32 0, i32 3, !dbg !1186
  store double** %4, double*** %5, align 4, !dbg !1186
  %6 = load double*** %2, align 4, !dbg !1187
  %7 = load double** %6, align 4, !dbg !1187
  %8 = getelementptr inbounds %"struct.std::_Deque_iterator"* %3, i32 0, i32 1, !dbg !1187
  store double* %7, double** %8, align 4, !dbg !1187
  %9 = getelementptr inbounds %"struct.std::_Deque_iterator"* %3, i32 0, i32 1, !dbg !1188
  %10 = load double** %9, align 4, !dbg !1188
  %11 = call i32 @_ZNSt15_Deque_iteratorIdRdPdE14_S_buffer_sizeEv(), !dbg !1189
  %12 = getelementptr inbounds double* %10, i32 %11, !dbg !1189
  %13 = getelementptr inbounds %"struct.std::_Deque_iterator"* %3, i32 0, i32 2, !dbg !1189
  store double* %12, double** %13, align 4, !dbg !1189
  ret void, !dbg !1190
}

; Function Attrs: nounwind
define linkonce_odr i32 @_ZNSt15_Deque_iteratorIdRdPdE14_S_buffer_sizeEv() #3 align 2 {
  %1 = call i32 @_ZSt16__deque_buf_sizej(i32 8), !dbg !1191
  ret i32 %1, !dbg !1191
}

; Function Attrs: nounwind
define linkonce_odr void @_ZN9__gnu_cxx13new_allocatorIdE10deallocateEPdj(%"class.__gnu_cxx::new_allocator"* %this, double* %__p, i32) #3 align 2 {
  %2 = alloca %"class.__gnu_cxx::new_allocator"*, align 4
  %3 = alloca double*, align 4
  %4 = alloca i32, align 4
  store %"class.__gnu_cxx::new_allocator"* %this, %"class.__gnu_cxx::new_allocator"** %2, align 4
  call void @llvm.dbg.declare(metadata !{%"class.__gnu_cxx::new_allocator"** %2}, metadata !1192), !dbg !1193
  store double* %__p, double** %3, align 4
  call void @llvm.dbg.declare(metadata !{double** %3}, metadata !1194), !dbg !1195
  store i32 %0, i32* %4, align 4
  call void @llvm.dbg.declare(metadata !{i32* %4}, metadata !1196), !dbg !1197
  %5 = load %"class.__gnu_cxx::new_allocator"** %2
  %6 = load double** %3, align 4, !dbg !1198
  %7 = bitcast double* %6 to i8*, !dbg !1198
  call void @_ZdlPv(i8* %7) #9, !dbg !1198
  ret void, !dbg !1199
}

; Function Attrs: nobuiltin nounwind
declare void @_ZdlPv(i8*) #5

define linkonce_odr dereferenceable(8) double* @_ZNSt5dequeIdSaIdEE5frontEv(%"class.std::deque"* %this) #0 align 2 {
  %1 = alloca %"class.std::deque"*, align 4
  %2 = alloca %"struct.std::_Deque_iterator", align 4
  store %"class.std::deque"* %this, %"class.std::deque"** %1, align 4
  call void @llvm.dbg.declare(metadata !{%"class.std::deque"** %1}, metadata !1200), !dbg !1201
  %3 = load %"class.std::deque"** %1
  call void @_ZNSt5dequeIdSaIdEE5beginEv(%"struct.std::_Deque_iterator"* sret %2, %"class.std::deque"* %3), !dbg !1202
  %4 = call dereferenceable(8) double* @_ZNKSt15_Deque_iteratorIdRdPdEdeEv(%"struct.std::_Deque_iterator"* %2), !dbg !1202
  ret double* %4, !dbg !1202
}

define linkonce_odr void @_ZNSt5dequeIdSaIdEE5beginEv(%"struct.std::_Deque_iterator"* noalias sret %agg.result, %"class.std::deque"* %this) #0 align 2 {
  %1 = alloca %"class.std::deque"*, align 4
  store %"class.std::deque"* %this, %"class.std::deque"** %1, align 4
  call void @llvm.dbg.declare(metadata !{%"class.std::deque"** %1}, metadata !1203), !dbg !1204
  %2 = load %"class.std::deque"** %1
  %3 = bitcast %"class.std::deque"* %2 to %"class.std::_Deque_base"*, !dbg !1205
  %4 = getelementptr inbounds %"class.std::_Deque_base"* %3, i32 0, i32 0, !dbg !1205
  %5 = getelementptr inbounds %"struct.std::_Deque_base<double, std::allocator<double> >::_Deque_impl"* %4, i32 0, i32 2, !dbg !1205
  %6 = call %"struct.std::_Deque_iterator"* @_ZNSt15_Deque_iteratorIdRdPdEC2ERKS2_(%"struct.std::_Deque_iterator"* %agg.result, %"struct.std::_Deque_iterator"* dereferenceable(16) %5), !dbg !1205
  ret void, !dbg !1205
}

; Function Attrs: nounwind
define linkonce_odr dereferenceable(8) double* @_ZNKSt15_Deque_iteratorIdRdPdEdeEv(%"struct.std::_Deque_iterator"* %this) #3 align 2 {
  %1 = alloca %"struct.std::_Deque_iterator"*, align 4
  store %"struct.std::_Deque_iterator"* %this, %"struct.std::_Deque_iterator"** %1, align 4
  call void @llvm.dbg.declare(metadata !{%"struct.std::_Deque_iterator"** %1}, metadata !1206), !dbg !1208
  %2 = load %"struct.std::_Deque_iterator"** %1
  %3 = getelementptr inbounds %"struct.std::_Deque_iterator"* %2, i32 0, i32 0, !dbg !1209
  %4 = load double** %3, align 4, !dbg !1209
  ret double* %4, !dbg !1209
}

; Function Attrs: nounwind
define linkonce_odr %"struct.std::_Deque_iterator"* @_ZNSt15_Deque_iteratorIdRdPdEC2ERKS2_(%"struct.std::_Deque_iterator"* returned %this, %"struct.std::_Deque_iterator"* dereferenceable(16) %__x) unnamed_addr #3 align 2 {
  %1 = alloca %"struct.std::_Deque_iterator"*, align 4
  %2 = alloca %"struct.std::_Deque_iterator"*, align 4
  store %"struct.std::_Deque_iterator"* %this, %"struct.std::_Deque_iterator"** %1, align 4
  call void @llvm.dbg.declare(metadata !{%"struct.std::_Deque_iterator"** %1}, metadata !1210), !dbg !1211
  store %"struct.std::_Deque_iterator"* %__x, %"struct.std::_Deque_iterator"** %2, align 4
  call void @llvm.dbg.declare(metadata !{%"struct.std::_Deque_iterator"** %2}, metadata !1212), !dbg !1213
  %3 = load %"struct.std::_Deque_iterator"** %1
  %4 = getelementptr inbounds %"struct.std::_Deque_iterator"* %3, i32 0, i32 0, !dbg !1214
  %5 = load %"struct.std::_Deque_iterator"** %2, align 4, !dbg !1214
  %6 = getelementptr inbounds %"struct.std::_Deque_iterator"* %5, i32 0, i32 0, !dbg !1214
  %7 = load double** %6, align 4, !dbg !1214
  store double* %7, double** %4, align 4, !dbg !1214
  %8 = getelementptr inbounds %"struct.std::_Deque_iterator"* %3, i32 0, i32 1, !dbg !1214
  %9 = load %"struct.std::_Deque_iterator"** %2, align 4, !dbg !1214
  %10 = getelementptr inbounds %"struct.std::_Deque_iterator"* %9, i32 0, i32 1, !dbg !1214
  %11 = load double** %10, align 4, !dbg !1214
  store double* %11, double** %8, align 4, !dbg !1214
  %12 = getelementptr inbounds %"struct.std::_Deque_iterator"* %3, i32 0, i32 2, !dbg !1214
  %13 = load %"struct.std::_Deque_iterator"** %2, align 4, !dbg !1214
  %14 = getelementptr inbounds %"struct.std::_Deque_iterator"* %13, i32 0, i32 2, !dbg !1214
  %15 = load double** %14, align 4, !dbg !1214
  store double* %15, double** %12, align 4, !dbg !1214
  %16 = getelementptr inbounds %"struct.std::_Deque_iterator"* %3, i32 0, i32 3, !dbg !1214
  %17 = load %"struct.std::_Deque_iterator"** %2, align 4, !dbg !1214
  %18 = getelementptr inbounds %"struct.std::_Deque_iterator"* %17, i32 0, i32 3, !dbg !1214
  %19 = load double*** %18, align 4, !dbg !1214
  store double** %19, double*** %16, align 4, !dbg !1214
  ret %"struct.std::_Deque_iterator"* %3, !dbg !1215
}

define linkonce_odr i32 @_ZNKSt5dequeIdSaIdEE4sizeEv(%"class.std::deque"* %this) #0 align 2 {
  %1 = alloca %"class.std::deque"*, align 4
  store %"class.std::deque"* %this, %"class.std::deque"** %1, align 4
  call void @llvm.dbg.declare(metadata !{%"class.std::deque"** %1}, metadata !1216), !dbg !1217
  %2 = load %"class.std::deque"** %1
  %3 = bitcast %"class.std::deque"* %2 to %"class.std::_Deque_base"*, !dbg !1218
  %4 = getelementptr inbounds %"class.std::_Deque_base"* %3, i32 0, i32 0, !dbg !1218
  %5 = getelementptr inbounds %"struct.std::_Deque_base<double, std::allocator<double> >::_Deque_impl"* %4, i32 0, i32 3, !dbg !1218
  %6 = bitcast %"class.std::deque"* %2 to %"class.std::_Deque_base"*, !dbg !1218
  %7 = getelementptr inbounds %"class.std::_Deque_base"* %6, i32 0, i32 0, !dbg !1218
  %8 = getelementptr inbounds %"struct.std::_Deque_base<double, std::allocator<double> >::_Deque_impl"* %7, i32 0, i32 2, !dbg !1218
  %9 = call i32 @_ZStmiIdRdPdENSt15_Deque_iteratorIT_T0_T1_E15difference_typeERKS6_S9_(%"struct.std::_Deque_iterator"* dereferenceable(16) %5, %"struct.std::_Deque_iterator"* dereferenceable(16) %8), !dbg !1218
  ret i32 %9, !dbg !1218
}

; Function Attrs: inlinehint nounwind
define linkonce_odr i32 @_ZStmiIdRdPdENSt15_Deque_iteratorIT_T0_T1_E15difference_typeERKS6_S9_(%"struct.std::_Deque_iterator"* dereferenceable(16) %__x, %"struct.std::_Deque_iterator"* dereferenceable(16) %__y) #4 {
  %1 = alloca %"struct.std::_Deque_iterator"*, align 4
  %2 = alloca %"struct.std::_Deque_iterator"*, align 4
  store %"struct.std::_Deque_iterator"* %__x, %"struct.std::_Deque_iterator"** %1, align 4
  call void @llvm.dbg.declare(metadata !{%"struct.std::_Deque_iterator"** %1}, metadata !1219), !dbg !1220
  store %"struct.std::_Deque_iterator"* %__y, %"struct.std::_Deque_iterator"** %2, align 4
  call void @llvm.dbg.declare(metadata !{%"struct.std::_Deque_iterator"** %2}, metadata !1221), !dbg !1222
  %3 = call i32 @_ZNSt15_Deque_iteratorIdRdPdE14_S_buffer_sizeEv(), !dbg !1223
  %4 = load %"struct.std::_Deque_iterator"** %1, align 4, !dbg !1223
  %5 = getelementptr inbounds %"struct.std::_Deque_iterator"* %4, i32 0, i32 3, !dbg !1223
  %6 = load double*** %5, align 4, !dbg !1223
  %7 = load %"struct.std::_Deque_iterator"** %2, align 4, !dbg !1223
  %8 = getelementptr inbounds %"struct.std::_Deque_iterator"* %7, i32 0, i32 3, !dbg !1223
  %9 = load double*** %8, align 4, !dbg !1223
  %10 = ptrtoint double** %6 to i32, !dbg !1223
  %11 = ptrtoint double** %9 to i32, !dbg !1223
  %12 = sub i32 %10, %11, !dbg !1223
  %13 = sdiv exact i32 %12, 4, !dbg !1223
  %14 = sub nsw i32 %13, 1, !dbg !1223
  %15 = mul nsw i32 %3, %14, !dbg !1223
  %16 = load %"struct.std::_Deque_iterator"** %1, align 4, !dbg !1223
  %17 = getelementptr inbounds %"struct.std::_Deque_iterator"* %16, i32 0, i32 0, !dbg !1223
  %18 = load double** %17, align 4, !dbg !1223
  %19 = load %"struct.std::_Deque_iterator"** %1, align 4, !dbg !1223
  %20 = getelementptr inbounds %"struct.std::_Deque_iterator"* %19, i32 0, i32 1, !dbg !1223
  %21 = load double** %20, align 4, !dbg !1223
  %22 = ptrtoint double* %18 to i32, !dbg !1223
  %23 = ptrtoint double* %21 to i32, !dbg !1223
  %24 = sub i32 %22, %23, !dbg !1223
  %25 = sdiv exact i32 %24, 8, !dbg !1223
  %26 = add nsw i32 %15, %25, !dbg !1223
  %27 = load %"struct.std::_Deque_iterator"** %2, align 4, !dbg !1223
  %28 = getelementptr inbounds %"struct.std::_Deque_iterator"* %27, i32 0, i32 2, !dbg !1223
  %29 = load double** %28, align 4, !dbg !1223
  %30 = load %"struct.std::_Deque_iterator"** %2, align 4, !dbg !1223
  %31 = getelementptr inbounds %"struct.std::_Deque_iterator"* %30, i32 0, i32 0, !dbg !1223
  %32 = load double** %31, align 4, !dbg !1223
  %33 = ptrtoint double* %29 to i32, !dbg !1223
  %34 = ptrtoint double* %32 to i32, !dbg !1223
  %35 = sub i32 %33, %34, !dbg !1223
  %36 = sdiv exact i32 %35, 8, !dbg !1223
  %37 = add nsw i32 %26, %36, !dbg !1223
  ret i32 %37, !dbg !1223
}

define linkonce_odr void @_ZNSt5dequeIdSaIdEE9push_backERKd(%"class.std::deque"* %this, double* dereferenceable(8) %__x) #0 align 2 {
  %1 = alloca %"class.std::deque"*, align 4
  %2 = alloca double*, align 4
  store %"class.std::deque"* %this, %"class.std::deque"** %1, align 4
  call void @llvm.dbg.declare(metadata !{%"class.std::deque"** %1}, metadata !1224), !dbg !1225
  store double* %__x, double** %2, align 4
  call void @llvm.dbg.declare(metadata !{double** %2}, metadata !1226), !dbg !1227
  %3 = load %"class.std::deque"** %1
  %4 = bitcast %"class.std::deque"* %3 to %"class.std::_Deque_base"*, !dbg !1228
  %5 = getelementptr inbounds %"class.std::_Deque_base"* %4, i32 0, i32 0, !dbg !1228
  %6 = getelementptr inbounds %"struct.std::_Deque_base<double, std::allocator<double> >::_Deque_impl"* %5, i32 0, i32 3, !dbg !1228
  %7 = getelementptr inbounds %"struct.std::_Deque_iterator"* %6, i32 0, i32 0, !dbg !1228
  %8 = load double** %7, align 4, !dbg !1228
  %9 = bitcast %"class.std::deque"* %3 to %"class.std::_Deque_base"*, !dbg !1228
  %10 = getelementptr inbounds %"class.std::_Deque_base"* %9, i32 0, i32 0, !dbg !1228
  %11 = getelementptr inbounds %"struct.std::_Deque_base<double, std::allocator<double> >::_Deque_impl"* %10, i32 0, i32 3, !dbg !1228
  %12 = getelementptr inbounds %"struct.std::_Deque_iterator"* %11, i32 0, i32 2, !dbg !1228
  %13 = load double** %12, align 4, !dbg !1228
  %14 = getelementptr inbounds double* %13, i32 -1, !dbg !1228
  %15 = icmp ne double* %8, %14, !dbg !1228
  br i1 %15, label %16, label %32, !dbg !1228

; <label>:16                                      ; preds = %0
  %17 = bitcast %"class.std::deque"* %3 to %"class.std::_Deque_base"*, !dbg !1230
  %18 = getelementptr inbounds %"class.std::_Deque_base"* %17, i32 0, i32 0, !dbg !1230
  %19 = bitcast %"struct.std::_Deque_base<double, std::allocator<double> >::_Deque_impl"* %18 to %"class.__gnu_cxx::new_allocator"*, !dbg !1230
  %20 = bitcast %"class.std::deque"* %3 to %"class.std::_Deque_base"*, !dbg !1230
  %21 = getelementptr inbounds %"class.std::_Deque_base"* %20, i32 0, i32 0, !dbg !1230
  %22 = getelementptr inbounds %"struct.std::_Deque_base<double, std::allocator<double> >::_Deque_impl"* %21, i32 0, i32 3, !dbg !1230
  %23 = getelementptr inbounds %"struct.std::_Deque_iterator"* %22, i32 0, i32 0, !dbg !1230
  %24 = load double** %23, align 4, !dbg !1230
  %25 = load double** %2, align 4, !dbg !1230
  call void @_ZN9__gnu_cxx13new_allocatorIdE9constructEPdRKd(%"class.__gnu_cxx::new_allocator"* %19, double* %24, double* dereferenceable(8) %25), !dbg !1230
  %26 = bitcast %"class.std::deque"* %3 to %"class.std::_Deque_base"*, !dbg !1232
  %27 = getelementptr inbounds %"class.std::_Deque_base"* %26, i32 0, i32 0, !dbg !1232
  %28 = getelementptr inbounds %"struct.std::_Deque_base<double, std::allocator<double> >::_Deque_impl"* %27, i32 0, i32 3, !dbg !1232
  %29 = getelementptr inbounds %"struct.std::_Deque_iterator"* %28, i32 0, i32 0, !dbg !1232
  %30 = load double** %29, align 4, !dbg !1232
  %31 = getelementptr inbounds double* %30, i32 1, !dbg !1232
  store double* %31, double** %29, align 4, !dbg !1232
  br label %34, !dbg !1233

; <label>:32                                      ; preds = %0
  %33 = load double** %2, align 4, !dbg !1234
  call void @_ZNSt5dequeIdSaIdEE16_M_push_back_auxERKd(%"class.std::deque"* %3, double* dereferenceable(8) %33), !dbg !1234
  br label %34

; <label>:34                                      ; preds = %32, %16
  ret void, !dbg !1235
}

; Function Attrs: nounwind
define linkonce_odr void @_ZN9__gnu_cxx13new_allocatorIdE9constructEPdRKd(%"class.__gnu_cxx::new_allocator"* %this, double* %__p, double* dereferenceable(8) %__val) #3 align 2 {
  %1 = alloca %"class.__gnu_cxx::new_allocator"*, align 4
  %2 = alloca double*, align 4
  %3 = alloca double*, align 4
  store %"class.__gnu_cxx::new_allocator"* %this, %"class.__gnu_cxx::new_allocator"** %1, align 4
  call void @llvm.dbg.declare(metadata !{%"class.__gnu_cxx::new_allocator"** %1}, metadata !1236), !dbg !1237
  store double* %__p, double** %2, align 4
  call void @llvm.dbg.declare(metadata !{double** %2}, metadata !1238), !dbg !1239
  store double* %__val, double** %3, align 4
  call void @llvm.dbg.declare(metadata !{double** %3}, metadata !1240), !dbg !1241
  %4 = load %"class.__gnu_cxx::new_allocator"** %1
  %5 = load double** %2, align 4, !dbg !1242
  %6 = bitcast double* %5 to i8*, !dbg !1242
  %7 = icmp eq i8* %6, null, !dbg !1242
  br i1 %7, label %12, label %8, !dbg !1242

; <label>:8                                       ; preds = %0
  %9 = bitcast i8* %6 to double*, !dbg !1243
  %10 = load double** %3, align 4, !dbg !1243
  %11 = load double* %10, align 8, !dbg !1243
  store double %11, double* %9, align 8, !dbg !1243
  br label %12, !dbg !1243

; <label>:12                                      ; preds = %8, %0
  %13 = phi double* [ %9, %8 ], [ null, %0 ], !dbg !1242
  ret void, !dbg !1245
}

define linkonce_odr void @_ZNSt5dequeIdSaIdEE16_M_push_back_auxERKd(%"class.std::deque"* %this, double* dereferenceable(8) %__t) #0 align 2 {
  %1 = alloca %"class.std::deque"*, align 4
  %2 = alloca double*, align 4
  %3 = alloca i8*
  %4 = alloca i32
  store %"class.std::deque"* %this, %"class.std::deque"** %1, align 4
  call void @llvm.dbg.declare(metadata !{%"class.std::deque"** %1}, metadata !1248), !dbg !1249
  store double* %__t, double** %2, align 4
  call void @llvm.dbg.declare(metadata !{double** %2}, metadata !1250), !dbg !1251
  %5 = load %"class.std::deque"** %1
  call void @_ZNSt5dequeIdSaIdEE22_M_reserve_map_at_backEj(%"class.std::deque"* %5, i32 1), !dbg !1252
  %6 = bitcast %"class.std::deque"* %5 to %"class.std::_Deque_base"*, !dbg !1253
  %7 = call double* @_ZNSt11_Deque_baseIdSaIdEE16_M_allocate_nodeEv(%"class.std::_Deque_base"* %6), !dbg !1253
  %8 = bitcast %"class.std::deque"* %5 to %"class.std::_Deque_base"*, !dbg !1253
  %9 = getelementptr inbounds %"class.std::_Deque_base"* %8, i32 0, i32 0, !dbg !1253
  %10 = getelementptr inbounds %"struct.std::_Deque_base<double, std::allocator<double> >::_Deque_impl"* %9, i32 0, i32 3, !dbg !1253
  %11 = getelementptr inbounds %"struct.std::_Deque_iterator"* %10, i32 0, i32 3, !dbg !1253
  %12 = load double*** %11, align 4, !dbg !1253
  %13 = getelementptr inbounds double** %12, i32 1, !dbg !1253
  store double* %7, double** %13, align 4, !dbg !1253
  %14 = bitcast %"class.std::deque"* %5 to %"class.std::_Deque_base"*, !dbg !1254
  %15 = getelementptr inbounds %"class.std::_Deque_base"* %14, i32 0, i32 0, !dbg !1254
  %16 = bitcast %"struct.std::_Deque_base<double, std::allocator<double> >::_Deque_impl"* %15 to %"class.__gnu_cxx::new_allocator"*, !dbg !1254
  %17 = bitcast %"class.std::deque"* %5 to %"class.std::_Deque_base"*, !dbg !1254
  %18 = getelementptr inbounds %"class.std::_Deque_base"* %17, i32 0, i32 0, !dbg !1254
  %19 = getelementptr inbounds %"struct.std::_Deque_base<double, std::allocator<double> >::_Deque_impl"* %18, i32 0, i32 3, !dbg !1254
  %20 = getelementptr inbounds %"struct.std::_Deque_iterator"* %19, i32 0, i32 0, !dbg !1254
  %21 = load double** %20, align 4, !dbg !1254
  %22 = load double** %2, align 4, !dbg !1254
  invoke void @_ZN9__gnu_cxx13new_allocatorIdE9constructEPdRKd(%"class.__gnu_cxx::new_allocator"* %16, double* %21, double* dereferenceable(8) %22)
          to label %23 unwind label %43, !dbg !1254

; <label>:23                                      ; preds = %0
  %24 = bitcast %"class.std::deque"* %5 to %"class.std::_Deque_base"*, !dbg !1256
  %25 = getelementptr inbounds %"class.std::_Deque_base"* %24, i32 0, i32 0, !dbg !1256
  %26 = getelementptr inbounds %"struct.std::_Deque_base<double, std::allocator<double> >::_Deque_impl"* %25, i32 0, i32 3, !dbg !1256
  %27 = bitcast %"class.std::deque"* %5 to %"class.std::_Deque_base"*, !dbg !1256
  %28 = getelementptr inbounds %"class.std::_Deque_base"* %27, i32 0, i32 0, !dbg !1256
  %29 = getelementptr inbounds %"struct.std::_Deque_base<double, std::allocator<double> >::_Deque_impl"* %28, i32 0, i32 3, !dbg !1256
  %30 = getelementptr inbounds %"struct.std::_Deque_iterator"* %29, i32 0, i32 3, !dbg !1256
  %31 = load double*** %30, align 4, !dbg !1256
  %32 = getelementptr inbounds double** %31, i32 1, !dbg !1256
  invoke void @_ZNSt15_Deque_iteratorIdRdPdE11_M_set_nodeEPS1_(%"struct.std::_Deque_iterator"* %26, double** %32)
          to label %33 unwind label %43, !dbg !1256

; <label>:33                                      ; preds = %23
  %34 = bitcast %"class.std::deque"* %5 to %"class.std::_Deque_base"*, !dbg !1257
  %35 = getelementptr inbounds %"class.std::_Deque_base"* %34, i32 0, i32 0, !dbg !1257
  %36 = getelementptr inbounds %"struct.std::_Deque_base<double, std::allocator<double> >::_Deque_impl"* %35, i32 0, i32 3, !dbg !1257
  %37 = getelementptr inbounds %"struct.std::_Deque_iterator"* %36, i32 0, i32 1, !dbg !1257
  %38 = load double** %37, align 4, !dbg !1257
  %39 = bitcast %"class.std::deque"* %5 to %"class.std::_Deque_base"*, !dbg !1257
  %40 = getelementptr inbounds %"class.std::_Deque_base"* %39, i32 0, i32 0, !dbg !1257
  %41 = getelementptr inbounds %"struct.std::_Deque_base<double, std::allocator<double> >::_Deque_impl"* %40, i32 0, i32 3, !dbg !1257
  %42 = getelementptr inbounds %"struct.std::_Deque_iterator"* %41, i32 0, i32 0, !dbg !1257
  store double* %38, double** %42, align 4, !dbg !1257
  br label %64, !dbg !1258

; <label>:43                                      ; preds = %23, %0
  %44 = landingpad { i8*, i32 } personality i8* bitcast (i32 (...)* @__gxx_personality_v0 to i8*)
          catch i8* null, !dbg !1259
  %45 = extractvalue { i8*, i32 } %44, 0, !dbg !1259
  store i8* %45, i8** %3, !dbg !1259
  %46 = extractvalue { i8*, i32 } %44, 1, !dbg !1259
  store i32 %46, i32* %4, !dbg !1259
  br label %47, !dbg !1259

; <label>:47                                      ; preds = %43
  %48 = load i8** %3, !dbg !1258
  %49 = call i8* @__cxa_begin_catch(i8* %48) #9, !dbg !1258
  %50 = bitcast %"class.std::deque"* %5 to %"class.std::_Deque_base"*, !dbg !1260
  %51 = bitcast %"class.std::deque"* %5 to %"class.std::_Deque_base"*, !dbg !1260
  %52 = getelementptr inbounds %"class.std::_Deque_base"* %51, i32 0, i32 0, !dbg !1260
  %53 = getelementptr inbounds %"struct.std::_Deque_base<double, std::allocator<double> >::_Deque_impl"* %52, i32 0, i32 3, !dbg !1260
  %54 = getelementptr inbounds %"struct.std::_Deque_iterator"* %53, i32 0, i32 3, !dbg !1260
  %55 = load double*** %54, align 4, !dbg !1260
  %56 = getelementptr inbounds double** %55, i32 1, !dbg !1260
  %57 = load double** %56, align 4, !dbg !1260
  invoke void @_ZNSt11_Deque_baseIdSaIdEE18_M_deallocate_nodeEPd(%"class.std::_Deque_base"* %50, double* %57)
          to label %58 unwind label %59, !dbg !1260

; <label>:58                                      ; preds = %47
  invoke void @__cxa_rethrow() #11
          to label %73 unwind label %59, !dbg !1262

; <label>:59                                      ; preds = %58, %47
  %60 = landingpad { i8*, i32 } personality i8* bitcast (i32 (...)* @__gxx_personality_v0 to i8*)
          cleanup, !dbg !1263
  %61 = extractvalue { i8*, i32 } %60, 0, !dbg !1263
  store i8* %61, i8** %3, !dbg !1263
  %62 = extractvalue { i8*, i32 } %60, 1, !dbg !1263
  store i32 %62, i32* %4, !dbg !1263
  invoke void @__cxa_end_catch()
          to label %63 unwind label %70, !dbg !1264

; <label>:63                                      ; preds = %59
  br label %65, !dbg !1265

; <label>:64                                      ; preds = %33
  ret void, !dbg !1264

; <label>:65                                      ; preds = %63
  %66 = load i8** %3, !dbg !1267
  %67 = load i32* %4, !dbg !1267
  %68 = insertvalue { i8*, i32 } undef, i8* %66, 0, !dbg !1267
  %69 = insertvalue { i8*, i32 } %68, i32 %67, 1, !dbg !1267
  resume { i8*, i32 } %69, !dbg !1267

; <label>:70                                      ; preds = %59
  %71 = landingpad { i8*, i32 } personality i8* bitcast (i32 (...)* @__gxx_personality_v0 to i8*)
          catch i8* null, !dbg !1269
  %72 = extractvalue { i8*, i32 } %71, 0, !dbg !1269
  call void @__clang_call_terminate(i8* %72) #10, !dbg !1269
  unreachable, !dbg !1269

; <label>:73                                      ; preds = %58
  unreachable
}

define linkonce_odr void @_ZNSt5dequeIdSaIdEE22_M_reserve_map_at_backEj(%"class.std::deque"* %this, i32 %__nodes_to_add) #0 align 2 {
  %1 = alloca %"class.std::deque"*, align 4
  %2 = alloca i32, align 4
  store %"class.std::deque"* %this, %"class.std::deque"** %1, align 4
  call void @llvm.dbg.declare(metadata !{%"class.std::deque"** %1}, metadata !1271), !dbg !1272
  store i32 %__nodes_to_add, i32* %2, align 4
  call void @llvm.dbg.declare(metadata !{i32* %2}, metadata !1273), !dbg !1274
  %3 = load %"class.std::deque"** %1
  %4 = load i32* %2, align 4, !dbg !1275
  %5 = add i32 %4, 1, !dbg !1275
  %6 = bitcast %"class.std::deque"* %3 to %"class.std::_Deque_base"*, !dbg !1275
  %7 = getelementptr inbounds %"class.std::_Deque_base"* %6, i32 0, i32 0, !dbg !1275
  %8 = getelementptr inbounds %"struct.std::_Deque_base<double, std::allocator<double> >::_Deque_impl"* %7, i32 0, i32 1, !dbg !1275
  %9 = load i32* %8, align 4, !dbg !1275
  %10 = bitcast %"class.std::deque"* %3 to %"class.std::_Deque_base"*, !dbg !1275
  %11 = getelementptr inbounds %"class.std::_Deque_base"* %10, i32 0, i32 0, !dbg !1275
  %12 = getelementptr inbounds %"struct.std::_Deque_base<double, std::allocator<double> >::_Deque_impl"* %11, i32 0, i32 3, !dbg !1275
  %13 = getelementptr inbounds %"struct.std::_Deque_iterator"* %12, i32 0, i32 3, !dbg !1275
  %14 = load double*** %13, align 4, !dbg !1275
  %15 = bitcast %"class.std::deque"* %3 to %"class.std::_Deque_base"*, !dbg !1275
  %16 = getelementptr inbounds %"class.std::_Deque_base"* %15, i32 0, i32 0, !dbg !1275
  %17 = getelementptr inbounds %"struct.std::_Deque_base<double, std::allocator<double> >::_Deque_impl"* %16, i32 0, i32 0, !dbg !1275
  %18 = load double*** %17, align 4, !dbg !1275
  %19 = ptrtoint double** %14 to i32, !dbg !1275
  %20 = ptrtoint double** %18 to i32, !dbg !1275
  %21 = sub i32 %19, %20, !dbg !1275
  %22 = sdiv exact i32 %21, 4, !dbg !1275
  %23 = sub i32 %9, %22, !dbg !1275
  %24 = icmp ugt i32 %5, %23, !dbg !1275
  br i1 %24, label %25, label %27, !dbg !1275

; <label>:25                                      ; preds = %0
  %26 = load i32* %2, align 4, !dbg !1277
  call void @_ZNSt5dequeIdSaIdEE17_M_reallocate_mapEjb(%"class.std::deque"* %3, i32 %26, i1 zeroext false), !dbg !1277
  br label %27, !dbg !1277

; <label>:27                                      ; preds = %25, %0
  ret void, !dbg !1278
}

define linkonce_odr double* @_ZNSt11_Deque_baseIdSaIdEE16_M_allocate_nodeEv(%"class.std::_Deque_base"* %this) #0 align 2 {
  %1 = alloca %"class.std::_Deque_base"*, align 4
  store %"class.std::_Deque_base"* %this, %"class.std::_Deque_base"** %1, align 4
  call void @llvm.dbg.declare(metadata !{%"class.std::_Deque_base"** %1}, metadata !1279), !dbg !1280
  %2 = load %"class.std::_Deque_base"** %1
  %3 = getelementptr inbounds %"class.std::_Deque_base"* %2, i32 0, i32 0, !dbg !1281
  %4 = bitcast %"struct.std::_Deque_base<double, std::allocator<double> >::_Deque_impl"* %3 to %"class.std::allocator"*, !dbg !1281
  %5 = bitcast %"class.std::allocator"* %4 to %"class.__gnu_cxx::new_allocator"*, !dbg !1281
  %6 = call i32 @_ZSt16__deque_buf_sizej(i32 8), !dbg !1282
  %7 = call double* @_ZN9__gnu_cxx13new_allocatorIdE8allocateEjPKv(%"class.__gnu_cxx::new_allocator"* %5, i32 %6, i8* null), !dbg !1281
  ret double* %7, !dbg !1281
}

declare void @__cxa_rethrow()

declare void @__cxa_end_catch()

define linkonce_odr double* @_ZN9__gnu_cxx13new_allocatorIdE8allocateEjPKv(%"class.__gnu_cxx::new_allocator"* %this, i32 %__n, i8*) #0 align 2 {
  %2 = alloca %"class.__gnu_cxx::new_allocator"*, align 4
  %3 = alloca i32, align 4
  %4 = alloca i8*, align 4
  store %"class.__gnu_cxx::new_allocator"* %this, %"class.__gnu_cxx::new_allocator"** %2, align 4
  call void @llvm.dbg.declare(metadata !{%"class.__gnu_cxx::new_allocator"** %2}, metadata !1283), !dbg !1284
  store i32 %__n, i32* %3, align 4
  call void @llvm.dbg.declare(metadata !{i32* %3}, metadata !1285), !dbg !1286
  store i8* %0, i8** %4, align 4
  call void @llvm.dbg.declare(metadata !{i8** %4}, metadata !1287), !dbg !1288
  %5 = load %"class.__gnu_cxx::new_allocator"** %2
  %6 = load i32* %3, align 4, !dbg !1289
  %7 = call i32 @_ZNK9__gnu_cxx13new_allocatorIdE8max_sizeEv(%"class.__gnu_cxx::new_allocator"* %5) #9, !dbg !1291
  %8 = icmp ugt i32 %6, %7, !dbg !1291
  br i1 %8, label %9, label %10, !dbg !1291

; <label>:9                                       ; preds = %1
  call void @_ZSt17__throw_bad_allocv() #11, !dbg !1292
  unreachable, !dbg !1292

; <label>:10                                      ; preds = %1
  %11 = load i32* %3, align 4, !dbg !1293
  %12 = mul i32 %11, 8, !dbg !1293
  %13 = call noalias i8* @_Znwj(i32 %12), !dbg !1293
  %14 = bitcast i8* %13 to double*, !dbg !1293
  ret double* %14, !dbg !1293
}

; Function Attrs: nounwind
define linkonce_odr i32 @_ZNK9__gnu_cxx13new_allocatorIdE8max_sizeEv(%"class.__gnu_cxx::new_allocator"* %this) #3 align 2 {
  %1 = alloca %"class.__gnu_cxx::new_allocator"*, align 4
  store %"class.__gnu_cxx::new_allocator"* %this, %"class.__gnu_cxx::new_allocator"** %1, align 4
  call void @llvm.dbg.declare(metadata !{%"class.__gnu_cxx::new_allocator"** %1}, metadata !1294), !dbg !1296
  %2 = load %"class.__gnu_cxx::new_allocator"** %1
  ret i32 536870911, !dbg !1297
}

; Function Attrs: noreturn
declare void @_ZSt17__throw_bad_allocv() #6

; Function Attrs: nobuiltin
declare noalias i8* @_Znwj(i32) #7

define linkonce_odr void @_ZNSt5dequeIdSaIdEE17_M_reallocate_mapEjb(%"class.std::deque"* %this, i32 %__nodes_to_add, i1 zeroext %__add_at_front) #0 align 2 {
  %1 = alloca %"class.std::deque"*, align 4
  %2 = alloca i32, align 4
  %3 = alloca i8, align 1
  %__old_num_nodes = alloca i32, align 4
  %__new_num_nodes = alloca i32, align 4
  %__new_nstart = alloca double**, align 4
  %__new_map_size = alloca i32, align 4
  %__new_map = alloca double**, align 4
  store %"class.std::deque"* %this, %"class.std::deque"** %1, align 4
  call void @llvm.dbg.declare(metadata !{%"class.std::deque"** %1}, metadata !1298), !dbg !1299
  store i32 %__nodes_to_add, i32* %2, align 4
  call void @llvm.dbg.declare(metadata !{i32* %2}, metadata !1300), !dbg !1301
  %4 = zext i1 %__add_at_front to i8
  store i8 %4, i8* %3, align 1
  call void @llvm.dbg.declare(metadata !{i8* %3}, metadata !1302), !dbg !1303
  %5 = load %"class.std::deque"** %1
  call void @llvm.dbg.declare(metadata !{i32* %__old_num_nodes}, metadata !1304), !dbg !1307
  %6 = bitcast %"class.std::deque"* %5 to %"class.std::_Deque_base"*, !dbg !1308
  %7 = getelementptr inbounds %"class.std::_Deque_base"* %6, i32 0, i32 0, !dbg !1308
  %8 = getelementptr inbounds %"struct.std::_Deque_base<double, std::allocator<double> >::_Deque_impl"* %7, i32 0, i32 3, !dbg !1308
  %9 = getelementptr inbounds %"struct.std::_Deque_iterator"* %8, i32 0, i32 3, !dbg !1308
  %10 = load double*** %9, align 4, !dbg !1308
  %11 = bitcast %"class.std::deque"* %5 to %"class.std::_Deque_base"*, !dbg !1308
  %12 = getelementptr inbounds %"class.std::_Deque_base"* %11, i32 0, i32 0, !dbg !1308
  %13 = getelementptr inbounds %"struct.std::_Deque_base<double, std::allocator<double> >::_Deque_impl"* %12, i32 0, i32 2, !dbg !1308
  %14 = getelementptr inbounds %"struct.std::_Deque_iterator"* %13, i32 0, i32 3, !dbg !1308
  %15 = load double*** %14, align 4, !dbg !1308
  %16 = ptrtoint double** %10 to i32, !dbg !1308
  %17 = ptrtoint double** %15 to i32, !dbg !1308
  %18 = sub i32 %16, %17, !dbg !1308
  %19 = sdiv exact i32 %18, 4, !dbg !1308
  %20 = add nsw i32 %19, 1, !dbg !1308
  store i32 %20, i32* %__old_num_nodes, align 4, !dbg !1308
  call void @llvm.dbg.declare(metadata !{i32* %__new_num_nodes}, metadata !1309), !dbg !1310
  %21 = load i32* %__old_num_nodes, align 4, !dbg !1311
  %22 = load i32* %2, align 4, !dbg !1311
  %23 = add i32 %21, %22, !dbg !1311
  store i32 %23, i32* %__new_num_nodes, align 4, !dbg !1311
  call void @llvm.dbg.declare(metadata !{double*** %__new_nstart}, metadata !1312), !dbg !1317
  %24 = bitcast %"class.std::deque"* %5 to %"class.std::_Deque_base"*, !dbg !1318
  %25 = getelementptr inbounds %"class.std::_Deque_base"* %24, i32 0, i32 0, !dbg !1318
  %26 = getelementptr inbounds %"struct.std::_Deque_base<double, std::allocator<double> >::_Deque_impl"* %25, i32 0, i32 1, !dbg !1318
  %27 = load i32* %26, align 4, !dbg !1318
  %28 = load i32* %__new_num_nodes, align 4, !dbg !1318
  %29 = mul i32 2, %28, !dbg !1318
  %30 = icmp ugt i32 %27, %29, !dbg !1318
  br i1 %30, label %31, label %90, !dbg !1318

; <label>:31                                      ; preds = %0
  %32 = bitcast %"class.std::deque"* %5 to %"class.std::_Deque_base"*, !dbg !1320
  %33 = getelementptr inbounds %"class.std::_Deque_base"* %32, i32 0, i32 0, !dbg !1320
  %34 = getelementptr inbounds %"struct.std::_Deque_base<double, std::allocator<double> >::_Deque_impl"* %33, i32 0, i32 0, !dbg !1320
  %35 = load double*** %34, align 4, !dbg !1320
  %36 = bitcast %"class.std::deque"* %5 to %"class.std::_Deque_base"*, !dbg !1320
  %37 = getelementptr inbounds %"class.std::_Deque_base"* %36, i32 0, i32 0, !dbg !1320
  %38 = getelementptr inbounds %"struct.std::_Deque_base<double, std::allocator<double> >::_Deque_impl"* %37, i32 0, i32 1, !dbg !1320
  %39 = load i32* %38, align 4, !dbg !1320
  %40 = load i32* %__new_num_nodes, align 4, !dbg !1320
  %41 = sub i32 %39, %40, !dbg !1320
  %42 = udiv i32 %41, 2, !dbg !1320
  %43 = getelementptr inbounds double** %35, i32 %42, !dbg !1320
  %44 = load i8* %3, align 1, !dbg !1320
  %45 = trunc i8 %44 to i1, !dbg !1320
  br i1 %45, label %46, label %48, !dbg !1320

; <label>:46                                      ; preds = %31
  %47 = load i32* %2, align 4, !dbg !1322
  br label %49, !dbg !1322

; <label>:48                                      ; preds = %31
  br label %49, !dbg !1324

; <label>:49                                      ; preds = %48, %46
  %50 = phi i32 [ %47, %46 ], [ 0, %48 ], !dbg !1320
  %51 = getelementptr inbounds double** %43, i32 %50, !dbg !1326
  store double** %51, double*** %__new_nstart, align 4, !dbg !1326
  %52 = load double*** %__new_nstart, align 4, !dbg !1329
  %53 = bitcast %"class.std::deque"* %5 to %"class.std::_Deque_base"*, !dbg !1329
  %54 = getelementptr inbounds %"class.std::_Deque_base"* %53, i32 0, i32 0, !dbg !1329
  %55 = getelementptr inbounds %"struct.std::_Deque_base<double, std::allocator<double> >::_Deque_impl"* %54, i32 0, i32 2, !dbg !1329
  %56 = getelementptr inbounds %"struct.std::_Deque_iterator"* %55, i32 0, i32 3, !dbg !1329
  %57 = load double*** %56, align 4, !dbg !1329
  %58 = icmp ult double** %52, %57, !dbg !1329
  br i1 %58, label %59, label %73, !dbg !1329

; <label>:59                                      ; preds = %49
  %60 = bitcast %"class.std::deque"* %5 to %"class.std::_Deque_base"*, !dbg !1331
  %61 = getelementptr inbounds %"class.std::_Deque_base"* %60, i32 0, i32 0, !dbg !1331
  %62 = getelementptr inbounds %"struct.std::_Deque_base<double, std::allocator<double> >::_Deque_impl"* %61, i32 0, i32 2, !dbg !1331
  %63 = getelementptr inbounds %"struct.std::_Deque_iterator"* %62, i32 0, i32 3, !dbg !1331
  %64 = load double*** %63, align 4, !dbg !1331
  %65 = bitcast %"class.std::deque"* %5 to %"class.std::_Deque_base"*, !dbg !1331
  %66 = getelementptr inbounds %"class.std::_Deque_base"* %65, i32 0, i32 0, !dbg !1331
  %67 = getelementptr inbounds %"struct.std::_Deque_base<double, std::allocator<double> >::_Deque_impl"* %66, i32 0, i32 3, !dbg !1331
  %68 = getelementptr inbounds %"struct.std::_Deque_iterator"* %67, i32 0, i32 3, !dbg !1331
  %69 = load double*** %68, align 4, !dbg !1331
  %70 = getelementptr inbounds double** %69, i32 1, !dbg !1331
  %71 = load double*** %__new_nstart, align 4, !dbg !1331
  %72 = call double** @_ZSt4copyIPPdS1_ET0_T_S3_S2_(double** %64, double** %70, double** %71), !dbg !1331
  br label %89, !dbg !1331

; <label>:73                                      ; preds = %49
  %74 = bitcast %"class.std::deque"* %5 to %"class.std::_Deque_base"*, !dbg !1332
  %75 = getelementptr inbounds %"class.std::_Deque_base"* %74, i32 0, i32 0, !dbg !1332
  %76 = getelementptr inbounds %"struct.std::_Deque_base<double, std::allocator<double> >::_Deque_impl"* %75, i32 0, i32 2, !dbg !1332
  %77 = getelementptr inbounds %"struct.std::_Deque_iterator"* %76, i32 0, i32 3, !dbg !1332
  %78 = load double*** %77, align 4, !dbg !1332
  %79 = bitcast %"class.std::deque"* %5 to %"class.std::_Deque_base"*, !dbg !1332
  %80 = getelementptr inbounds %"class.std::_Deque_base"* %79, i32 0, i32 0, !dbg !1332
  %81 = getelementptr inbounds %"struct.std::_Deque_base<double, std::allocator<double> >::_Deque_impl"* %80, i32 0, i32 3, !dbg !1332
  %82 = getelementptr inbounds %"struct.std::_Deque_iterator"* %81, i32 0, i32 3, !dbg !1332
  %83 = load double*** %82, align 4, !dbg !1332
  %84 = getelementptr inbounds double** %83, i32 1, !dbg !1332
  %85 = load double*** %__new_nstart, align 4, !dbg !1332
  %86 = load i32* %__old_num_nodes, align 4, !dbg !1332
  %87 = getelementptr inbounds double** %85, i32 %86, !dbg !1332
  %88 = call double** @_ZSt13copy_backwardIPPdS1_ET0_T_S3_S2_(double** %78, double** %84, double** %87), !dbg !1332
  br label %89

; <label>:89                                      ; preds = %73, %59
  br label %149, !dbg !1333

; <label>:90                                      ; preds = %0
  call void @llvm.dbg.declare(metadata !{i32* %__new_map_size}, metadata !1334), !dbg !1336
  %91 = bitcast %"class.std::deque"* %5 to %"class.std::_Deque_base"*, !dbg !1337
  %92 = getelementptr inbounds %"class.std::_Deque_base"* %91, i32 0, i32 0, !dbg !1337
  %93 = getelementptr inbounds %"struct.std::_Deque_base<double, std::allocator<double> >::_Deque_impl"* %92, i32 0, i32 1, !dbg !1337
  %94 = load i32* %93, align 4, !dbg !1337
  %95 = bitcast %"class.std::deque"* %5 to %"class.std::_Deque_base"*, !dbg !1338
  %96 = getelementptr inbounds %"class.std::_Deque_base"* %95, i32 0, i32 0, !dbg !1338
  %97 = getelementptr inbounds %"struct.std::_Deque_base<double, std::allocator<double> >::_Deque_impl"* %96, i32 0, i32 1, !dbg !1338
  %98 = call dereferenceable(4) i32* @_ZSt3maxIjERKT_S2_S2_(i32* dereferenceable(4) %97, i32* dereferenceable(4) %2), !dbg !1338
  %99 = load i32* %98, !dbg !1338
  %100 = add i32 %94, %99, !dbg !1338
  %101 = add i32 %100, 2, !dbg !1338
  store i32 %101, i32* %__new_map_size, align 4, !dbg !1338
  call void @llvm.dbg.declare(metadata !{double*** %__new_map}, metadata !1339), !dbg !1340
  %102 = bitcast %"class.std::deque"* %5 to %"class.std::_Deque_base"*, !dbg !1341
  %103 = load i32* %__new_map_size, align 4, !dbg !1341
  %104 = call double** @_ZNSt11_Deque_baseIdSaIdEE15_M_allocate_mapEj(%"class.std::_Deque_base"* %102, i32 %103), !dbg !1341
  store double** %104, double*** %__new_map, align 4, !dbg !1341
  %105 = load double*** %__new_map, align 4, !dbg !1342
  %106 = load i32* %__new_map_size, align 4, !dbg !1342
  %107 = load i32* %__new_num_nodes, align 4, !dbg !1342
  %108 = sub i32 %106, %107, !dbg !1342
  %109 = udiv i32 %108, 2, !dbg !1342
  %110 = getelementptr inbounds double** %105, i32 %109, !dbg !1342
  %111 = load i8* %3, align 1, !dbg !1342
  %112 = trunc i8 %111 to i1, !dbg !1342
  br i1 %112, label %113, label %115, !dbg !1342

; <label>:113                                     ; preds = %90
  %114 = load i32* %2, align 4, !dbg !1343
  br label %116, !dbg !1343

; <label>:115                                     ; preds = %90
  br label %116, !dbg !1345

; <label>:116                                     ; preds = %115, %113
  %117 = phi i32 [ %114, %113 ], [ 0, %115 ], !dbg !1342
  %118 = getelementptr inbounds double** %110, i32 %117, !dbg !1347
  store double** %118, double*** %__new_nstart, align 4, !dbg !1347
  %119 = bitcast %"class.std::deque"* %5 to %"class.std::_Deque_base"*, !dbg !1350
  %120 = getelementptr inbounds %"class.std::_Deque_base"* %119, i32 0, i32 0, !dbg !1350
  %121 = getelementptr inbounds %"struct.std::_Deque_base<double, std::allocator<double> >::_Deque_impl"* %120, i32 0, i32 2, !dbg !1350
  %122 = getelementptr inbounds %"struct.std::_Deque_iterator"* %121, i32 0, i32 3, !dbg !1350
  %123 = load double*** %122, align 4, !dbg !1350
  %124 = bitcast %"class.std::deque"* %5 to %"class.std::_Deque_base"*, !dbg !1350
  %125 = getelementptr inbounds %"class.std::_Deque_base"* %124, i32 0, i32 0, !dbg !1350
  %126 = getelementptr inbounds %"struct.std::_Deque_base<double, std::allocator<double> >::_Deque_impl"* %125, i32 0, i32 3, !dbg !1350
  %127 = getelementptr inbounds %"struct.std::_Deque_iterator"* %126, i32 0, i32 3, !dbg !1350
  %128 = load double*** %127, align 4, !dbg !1350
  %129 = getelementptr inbounds double** %128, i32 1, !dbg !1350
  %130 = load double*** %__new_nstart, align 4, !dbg !1350
  %131 = call double** @_ZSt4copyIPPdS1_ET0_T_S3_S2_(double** %123, double** %129, double** %130), !dbg !1350
  %132 = bitcast %"class.std::deque"* %5 to %"class.std::_Deque_base"*, !dbg !1351
  %133 = bitcast %"class.std::deque"* %5 to %"class.std::_Deque_base"*, !dbg !1351
  %134 = getelementptr inbounds %"class.std::_Deque_base"* %133, i32 0, i32 0, !dbg !1351
  %135 = getelementptr inbounds %"struct.std::_Deque_base<double, std::allocator<double> >::_Deque_impl"* %134, i32 0, i32 0, !dbg !1351
  %136 = load double*** %135, align 4, !dbg !1351
  %137 = bitcast %"class.std::deque"* %5 to %"class.std::_Deque_base"*, !dbg !1351
  %138 = getelementptr inbounds %"class.std::_Deque_base"* %137, i32 0, i32 0, !dbg !1351
  %139 = getelementptr inbounds %"struct.std::_Deque_base<double, std::allocator<double> >::_Deque_impl"* %138, i32 0, i32 1, !dbg !1351
  %140 = load i32* %139, align 4, !dbg !1351
  call void @_ZNSt11_Deque_baseIdSaIdEE17_M_deallocate_mapEPPdj(%"class.std::_Deque_base"* %132, double** %136, i32 %140), !dbg !1351
  %141 = load double*** %__new_map, align 4, !dbg !1352
  %142 = bitcast %"class.std::deque"* %5 to %"class.std::_Deque_base"*, !dbg !1352
  %143 = getelementptr inbounds %"class.std::_Deque_base"* %142, i32 0, i32 0, !dbg !1352
  %144 = getelementptr inbounds %"struct.std::_Deque_base<double, std::allocator<double> >::_Deque_impl"* %143, i32 0, i32 0, !dbg !1352
  store double** %141, double*** %144, align 4, !dbg !1352
  %145 = load i32* %__new_map_size, align 4, !dbg !1353
  %146 = bitcast %"class.std::deque"* %5 to %"class.std::_Deque_base"*, !dbg !1353
  %147 = getelementptr inbounds %"class.std::_Deque_base"* %146, i32 0, i32 0, !dbg !1353
  %148 = getelementptr inbounds %"struct.std::_Deque_base<double, std::allocator<double> >::_Deque_impl"* %147, i32 0, i32 1, !dbg !1353
  store i32 %145, i32* %148, align 4, !dbg !1353
  br label %149

; <label>:149                                     ; preds = %116, %89
  %150 = bitcast %"class.std::deque"* %5 to %"class.std::_Deque_base"*, !dbg !1354
  %151 = getelementptr inbounds %"class.std::_Deque_base"* %150, i32 0, i32 0, !dbg !1354
  %152 = getelementptr inbounds %"struct.std::_Deque_base<double, std::allocator<double> >::_Deque_impl"* %151, i32 0, i32 2, !dbg !1354
  %153 = load double*** %__new_nstart, align 4, !dbg !1354
  call void @_ZNSt15_Deque_iteratorIdRdPdE11_M_set_nodeEPS1_(%"struct.std::_Deque_iterator"* %152, double** %153), !dbg !1354
  %154 = bitcast %"class.std::deque"* %5 to %"class.std::_Deque_base"*, !dbg !1355
  %155 = getelementptr inbounds %"class.std::_Deque_base"* %154, i32 0, i32 0, !dbg !1355
  %156 = getelementptr inbounds %"struct.std::_Deque_base<double, std::allocator<double> >::_Deque_impl"* %155, i32 0, i32 3, !dbg !1355
  %157 = load double*** %__new_nstart, align 4, !dbg !1355
  %158 = load i32* %__old_num_nodes, align 4, !dbg !1355
  %159 = getelementptr inbounds double** %157, i32 %158, !dbg !1355
  %160 = getelementptr inbounds double** %159, i32 -1, !dbg !1355
  call void @_ZNSt15_Deque_iteratorIdRdPdE11_M_set_nodeEPS1_(%"struct.std::_Deque_iterator"* %156, double** %160), !dbg !1355
  ret void, !dbg !1356
}

; Function Attrs: inlinehint
define linkonce_odr double** @_ZSt4copyIPPdS1_ET0_T_S3_S2_(double** %__first, double** %__last, double** %__result) #8 {
  %1 = alloca double**, align 4
  %2 = alloca double**, align 4
  %3 = alloca double**, align 4
  store double** %__first, double*** %1, align 4
  call void @llvm.dbg.declare(metadata !{double*** %1}, metadata !1357), !dbg !1359
  store double** %__last, double*** %2, align 4
  call void @llvm.dbg.declare(metadata !{double*** %2}, metadata !1360), !dbg !1361
  store double** %__result, double*** %3, align 4
  call void @llvm.dbg.declare(metadata !{double*** %3}, metadata !1362), !dbg !1363
  %4 = load double*** %1, align 4, !dbg !1364
  %5 = call double** @_ZSt12__miter_baseIPPdENSt11_Miter_baseIT_E13iterator_typeES3_(double** %4), !dbg !1364
  %6 = load double*** %2, align 4, !dbg !1365
  %7 = call double** @_ZSt12__miter_baseIPPdENSt11_Miter_baseIT_E13iterator_typeES3_(double** %6), !dbg !1365
  %8 = load double*** %3, align 4, !dbg !1366
  %9 = call double** @_ZSt14__copy_move_a2ILb0EPPdS1_ET1_T0_S3_S2_(double** %5, double** %7, double** %8), !dbg !1366
  ret double** %9, !dbg !1366
}

; Function Attrs: inlinehint
define linkonce_odr double** @_ZSt13copy_backwardIPPdS1_ET0_T_S3_S2_(double** %__first, double** %__last, double** %__result) #8 {
  %1 = alloca double**, align 4
  %2 = alloca double**, align 4
  %3 = alloca double**, align 4
  store double** %__first, double*** %1, align 4
  call void @llvm.dbg.declare(metadata !{double*** %1}, metadata !1367), !dbg !1368
  store double** %__last, double*** %2, align 4
  call void @llvm.dbg.declare(metadata !{double*** %2}, metadata !1369), !dbg !1370
  store double** %__result, double*** %3, align 4
  call void @llvm.dbg.declare(metadata !{double*** %3}, metadata !1371), !dbg !1372
  %4 = load double*** %1, align 4, !dbg !1373
  %5 = call double** @_ZSt12__miter_baseIPPdENSt11_Miter_baseIT_E13iterator_typeES3_(double** %4), !dbg !1373
  %6 = load double*** %2, align 4, !dbg !1374
  %7 = call double** @_ZSt12__miter_baseIPPdENSt11_Miter_baseIT_E13iterator_typeES3_(double** %6), !dbg !1374
  %8 = load double*** %3, align 4, !dbg !1375
  %9 = call double** @_ZSt23__copy_move_backward_a2ILb0EPPdS1_ET1_T0_S3_S2_(double** %5, double** %7, double** %8), !dbg !1375
  ret double** %9, !dbg !1375
}

; Function Attrs: inlinehint nounwind
define linkonce_odr dereferenceable(4) i32* @_ZSt3maxIjERKT_S2_S2_(i32* dereferenceable(4) %__a, i32* dereferenceable(4) %__b) #4 {
  %1 = alloca i32*, align 4
  %2 = alloca i32*, align 4
  %3 = alloca i32*, align 4
  store i32* %__a, i32** %2, align 4
  call void @llvm.dbg.declare(metadata !{i32** %2}, metadata !1376), !dbg !1377
  store i32* %__b, i32** %3, align 4
  call void @llvm.dbg.declare(metadata !{i32** %3}, metadata !1378), !dbg !1379
  %4 = load i32** %2, align 4, !dbg !1380
  %5 = load i32* %4, align 4, !dbg !1380
  %6 = load i32** %3, align 4, !dbg !1380
  %7 = load i32* %6, align 4, !dbg !1380
  %8 = icmp ult i32 %5, %7, !dbg !1380
  br i1 %8, label %9, label %11, !dbg !1380

; <label>:9                                       ; preds = %0
  %10 = load i32** %3, align 4, !dbg !1382
  store i32* %10, i32** %1, !dbg !1382
  br label %13, !dbg !1382

; <label>:11                                      ; preds = %0
  %12 = load i32** %2, align 4, !dbg !1383
  store i32* %12, i32** %1, !dbg !1383
  br label %13, !dbg !1383

; <label>:13                                      ; preds = %11, %9
  %14 = load i32** %1, !dbg !1384
  ret i32* %14, !dbg !1384
}

define linkonce_odr double** @_ZNSt11_Deque_baseIdSaIdEE15_M_allocate_mapEj(%"class.std::_Deque_base"* %this, i32 %__n) #0 align 2 {
  %1 = alloca %"class.std::_Deque_base"*, align 4
  %2 = alloca i32, align 4
  %3 = alloca %"class.std::allocator.1", align 1
  %4 = alloca i8*
  %5 = alloca i32
  store %"class.std::_Deque_base"* %this, %"class.std::_Deque_base"** %1, align 4
  call void @llvm.dbg.declare(metadata !{%"class.std::_Deque_base"** %1}, metadata !1385), !dbg !1386
  store i32 %__n, i32* %2, align 4
  call void @llvm.dbg.declare(metadata !{i32* %2}, metadata !1387), !dbg !1388
  %6 = load %"class.std::_Deque_base"** %1
  call void @_ZNKSt11_Deque_baseIdSaIdEE20_M_get_map_allocatorEv(%"class.std::allocator.1"* sret %3, %"class.std::_Deque_base"* %6), !dbg !1389
  %7 = bitcast %"class.std::allocator.1"* %3 to %"class.__gnu_cxx::new_allocator.2"*, !dbg !1389
  %8 = load i32* %2, align 4, !dbg !1389
  %9 = invoke double** @_ZN9__gnu_cxx13new_allocatorIPdE8allocateEjPKv(%"class.__gnu_cxx::new_allocator.2"* %7, i32 %8, i8* null)
          to label %10 unwind label %12, !dbg !1389

; <label>:10                                      ; preds = %0
  %11 = call %"class.std::allocator.1"* @_ZNSaIPdED2Ev(%"class.std::allocator.1"* %3) #9, !dbg !1390
  ret double** %9, !dbg !1390

; <label>:12                                      ; preds = %0
  %13 = landingpad { i8*, i32 } personality i8* bitcast (i32 (...)* @__gxx_personality_v0 to i8*)
          cleanup, !dbg !1392
  %14 = extractvalue { i8*, i32 } %13, 0, !dbg !1392
  store i8* %14, i8** %4, !dbg !1392
  %15 = extractvalue { i8*, i32 } %13, 1, !dbg !1392
  store i32 %15, i32* %5, !dbg !1392
  %16 = call %"class.std::allocator.1"* @_ZNSaIPdED2Ev(%"class.std::allocator.1"* %3) #9, !dbg !1392
  br label %17, !dbg !1392

; <label>:17                                      ; preds = %12
  %18 = load i8** %4, !dbg !1394
  %19 = load i32* %5, !dbg !1394
  %20 = insertvalue { i8*, i32 } undef, i8* %18, 0, !dbg !1394
  %21 = insertvalue { i8*, i32 } %20, i32 %19, 1, !dbg !1394
  resume { i8*, i32 } %21, !dbg !1394
}

define linkonce_odr void @_ZNSt11_Deque_baseIdSaIdEE17_M_deallocate_mapEPPdj(%"class.std::_Deque_base"* %this, double** %__p, i32 %__n) #0 align 2 {
  %1 = alloca %"class.std::_Deque_base"*, align 4
  %2 = alloca double**, align 4
  %3 = alloca i32, align 4
  %4 = alloca %"class.std::allocator.1", align 1
  %5 = alloca i8*
  %6 = alloca i32
  store %"class.std::_Deque_base"* %this, %"class.std::_Deque_base"** %1, align 4
  call void @llvm.dbg.declare(metadata !{%"class.std::_Deque_base"** %1}, metadata !1396), !dbg !1397
  store double** %__p, double*** %2, align 4
  call void @llvm.dbg.declare(metadata !{double*** %2}, metadata !1398), !dbg !1399
  store i32 %__n, i32* %3, align 4
  call void @llvm.dbg.declare(metadata !{i32* %3}, metadata !1400), !dbg !1401
  %7 = load %"class.std::_Deque_base"** %1
  call void @_ZNKSt11_Deque_baseIdSaIdEE20_M_get_map_allocatorEv(%"class.std::allocator.1"* sret %4, %"class.std::_Deque_base"* %7), !dbg !1402
  %8 = bitcast %"class.std::allocator.1"* %4 to %"class.__gnu_cxx::new_allocator.2"*, !dbg !1402
  %9 = load double*** %2, align 4, !dbg !1402
  %10 = load i32* %3, align 4, !dbg !1402
  invoke void @_ZN9__gnu_cxx13new_allocatorIPdE10deallocateEPS1_j(%"class.__gnu_cxx::new_allocator.2"* %8, double** %9, i32 %10)
          to label %11 unwind label %13, !dbg !1402

; <label>:11                                      ; preds = %0
  %12 = call %"class.std::allocator.1"* @_ZNSaIPdED2Ev(%"class.std::allocator.1"* %4) #9, !dbg !1403
  ret void, !dbg !1405

; <label>:13                                      ; preds = %0
  %14 = landingpad { i8*, i32 } personality i8* bitcast (i32 (...)* @__gxx_personality_v0 to i8*)
          cleanup, !dbg !1406
  %15 = extractvalue { i8*, i32 } %14, 0, !dbg !1406
  store i8* %15, i8** %5, !dbg !1406
  %16 = extractvalue { i8*, i32 } %14, 1, !dbg !1406
  store i32 %16, i32* %6, !dbg !1406
  %17 = call %"class.std::allocator.1"* @_ZNSaIPdED2Ev(%"class.std::allocator.1"* %4) #9, !dbg !1406
  br label %18, !dbg !1406

; <label>:18                                      ; preds = %13
  %19 = load i8** %5, !dbg !1408
  %20 = load i32* %6, !dbg !1408
  %21 = insertvalue { i8*, i32 } undef, i8* %19, 0, !dbg !1408
  %22 = insertvalue { i8*, i32 } %21, i32 %20, 1, !dbg !1408
  resume { i8*, i32 } %22, !dbg !1408
}

define linkonce_odr void @_ZNKSt11_Deque_baseIdSaIdEE20_M_get_map_allocatorEv(%"class.std::allocator.1"* noalias sret %agg.result, %"class.std::_Deque_base"* %this) #0 align 2 {
  %1 = alloca %"class.std::_Deque_base"*, align 4
  store %"class.std::_Deque_base"* %this, %"class.std::_Deque_base"** %1, align 4
  call void @llvm.dbg.declare(metadata !{%"class.std::_Deque_base"** %1}, metadata !1410), !dbg !1412
  %2 = load %"class.std::_Deque_base"** %1
  %3 = call dereferenceable(1) %"class.std::allocator"* @_ZNKSt11_Deque_baseIdSaIdEE19_M_get_Tp_allocatorEv(%"class.std::_Deque_base"* %2), !dbg !1413
  %4 = call %"class.std::allocator.1"* @_ZNSaIPdEC2IdEERKSaIT_E(%"class.std::allocator.1"* %agg.result, %"class.std::allocator"* dereferenceable(1) %3) #9, !dbg !1414
  ret void, !dbg !1414
}

; Function Attrs: nounwind
define linkonce_odr void @_ZN9__gnu_cxx13new_allocatorIPdE10deallocateEPS1_j(%"class.__gnu_cxx::new_allocator.2"* %this, double** %__p, i32) #3 align 2 {
  %2 = alloca %"class.__gnu_cxx::new_allocator.2"*, align 4
  %3 = alloca double**, align 4
  %4 = alloca i32, align 4
  store %"class.__gnu_cxx::new_allocator.2"* %this, %"class.__gnu_cxx::new_allocator.2"** %2, align 4
  call void @llvm.dbg.declare(metadata !{%"class.__gnu_cxx::new_allocator.2"** %2}, metadata !1415), !dbg !1417
  store double** %__p, double*** %3, align 4
  call void @llvm.dbg.declare(metadata !{double*** %3}, metadata !1418), !dbg !1419
  store i32 %0, i32* %4, align 4
  call void @llvm.dbg.declare(metadata !{i32* %4}, metadata !1420), !dbg !1421
  %5 = load %"class.__gnu_cxx::new_allocator.2"** %2
  %6 = load double*** %3, align 4, !dbg !1422
  %7 = bitcast double** %6 to i8*, !dbg !1422
  call void @_ZdlPv(i8* %7) #9, !dbg !1422
  ret void, !dbg !1423
}

; Function Attrs: nounwind
define linkonce_odr %"class.std::allocator.1"* @_ZNSaIPdED2Ev(%"class.std::allocator.1"* returned %this) unnamed_addr #3 align 2 {
  %1 = alloca %"class.std::allocator.1"*, align 4
  store %"class.std::allocator.1"* %this, %"class.std::allocator.1"** %1, align 4
  call void @llvm.dbg.declare(metadata !{%"class.std::allocator.1"** %1}, metadata !1424), !dbg !1426
  %2 = load %"class.std::allocator.1"** %1
  %3 = bitcast %"class.std::allocator.1"* %2 to %"class.__gnu_cxx::new_allocator.2"*, !dbg !1427
  %4 = call %"class.__gnu_cxx::new_allocator.2"* @_ZN9__gnu_cxx13new_allocatorIPdED2Ev(%"class.__gnu_cxx::new_allocator.2"* %3) #9, !dbg !1427
  ret %"class.std::allocator.1"* %2, !dbg !1429
}

; Function Attrs: nounwind
define linkonce_odr %"class.__gnu_cxx::new_allocator.2"* @_ZN9__gnu_cxx13new_allocatorIPdED2Ev(%"class.__gnu_cxx::new_allocator.2"* returned %this) unnamed_addr #3 align 2 {
  %1 = alloca %"class.__gnu_cxx::new_allocator.2"*, align 4
  store %"class.__gnu_cxx::new_allocator.2"* %this, %"class.__gnu_cxx::new_allocator.2"** %1, align 4
  call void @llvm.dbg.declare(metadata !{%"class.__gnu_cxx::new_allocator.2"** %1}, metadata !1430), !dbg !1431
  %2 = load %"class.__gnu_cxx::new_allocator.2"** %1
  ret %"class.__gnu_cxx::new_allocator.2"* %2, !dbg !1432
}

; Function Attrs: nounwind
define linkonce_odr dereferenceable(1) %"class.std::allocator"* @_ZNKSt11_Deque_baseIdSaIdEE19_M_get_Tp_allocatorEv(%"class.std::_Deque_base"* %this) #3 align 2 {
  %1 = alloca %"class.std::_Deque_base"*, align 4
  store %"class.std::_Deque_base"* %this, %"class.std::_Deque_base"** %1, align 4
  call void @llvm.dbg.declare(metadata !{%"class.std::_Deque_base"** %1}, metadata !1433), !dbg !1434
  %2 = load %"class.std::_Deque_base"** %1
  %3 = getelementptr inbounds %"class.std::_Deque_base"* %2, i32 0, i32 0, !dbg !1435
  %4 = bitcast %"struct.std::_Deque_base<double, std::allocator<double> >::_Deque_impl"* %3 to %"class.std::allocator"*, !dbg !1435
  ret %"class.std::allocator"* %4, !dbg !1435
}

; Function Attrs: nounwind
define linkonce_odr %"class.std::allocator.1"* @_ZNSaIPdEC2IdEERKSaIT_E(%"class.std::allocator.1"* returned %this, %"class.std::allocator"* dereferenceable(1)) unnamed_addr #3 align 2 {
  %2 = alloca %"class.std::allocator.1"*, align 4
  %3 = alloca %"class.std::allocator"*, align 4
  store %"class.std::allocator.1"* %this, %"class.std::allocator.1"** %2, align 4
  call void @llvm.dbg.declare(metadata !{%"class.std::allocator.1"** %2}, metadata !1436), !dbg !1437
  store %"class.std::allocator"* %0, %"class.std::allocator"** %3, align 4
  call void @llvm.dbg.declare(metadata !{%"class.std::allocator"** %3}, metadata !1438), !dbg !1440
  %4 = load %"class.std::allocator.1"** %2
  %5 = bitcast %"class.std::allocator.1"* %4 to %"class.__gnu_cxx::new_allocator.2"*, !dbg !1441
  %6 = call %"class.__gnu_cxx::new_allocator.2"* @_ZN9__gnu_cxx13new_allocatorIPdEC2Ev(%"class.__gnu_cxx::new_allocator.2"* %5) #9, !dbg !1441
  ret %"class.std::allocator.1"* %4, !dbg !1442
}

; Function Attrs: nounwind
define linkonce_odr %"class.__gnu_cxx::new_allocator.2"* @_ZN9__gnu_cxx13new_allocatorIPdEC2Ev(%"class.__gnu_cxx::new_allocator.2"* returned %this) unnamed_addr #3 align 2 {
  %1 = alloca %"class.__gnu_cxx::new_allocator.2"*, align 4
  store %"class.__gnu_cxx::new_allocator.2"* %this, %"class.__gnu_cxx::new_allocator.2"** %1, align 4
  call void @llvm.dbg.declare(metadata !{%"class.__gnu_cxx::new_allocator.2"** %1}, metadata !1443), !dbg !1444
  %2 = load %"class.__gnu_cxx::new_allocator.2"** %1
  ret %"class.__gnu_cxx::new_allocator.2"* %2, !dbg !1445
}

define linkonce_odr double** @_ZN9__gnu_cxx13new_allocatorIPdE8allocateEjPKv(%"class.__gnu_cxx::new_allocator.2"* %this, i32 %__n, i8*) #0 align 2 {
  %2 = alloca %"class.__gnu_cxx::new_allocator.2"*, align 4
  %3 = alloca i32, align 4
  %4 = alloca i8*, align 4
  store %"class.__gnu_cxx::new_allocator.2"* %this, %"class.__gnu_cxx::new_allocator.2"** %2, align 4
  call void @llvm.dbg.declare(metadata !{%"class.__gnu_cxx::new_allocator.2"** %2}, metadata !1446), !dbg !1447
  store i32 %__n, i32* %3, align 4
  call void @llvm.dbg.declare(metadata !{i32* %3}, metadata !1448), !dbg !1449
  store i8* %0, i8** %4, align 4
  call void @llvm.dbg.declare(metadata !{i8** %4}, metadata !1450), !dbg !1451
  %5 = load %"class.__gnu_cxx::new_allocator.2"** %2
  %6 = load i32* %3, align 4, !dbg !1452
  %7 = call i32 @_ZNK9__gnu_cxx13new_allocatorIPdE8max_sizeEv(%"class.__gnu_cxx::new_allocator.2"* %5) #9, !dbg !1454
  %8 = icmp ugt i32 %6, %7, !dbg !1454
  br i1 %8, label %9, label %10, !dbg !1454

; <label>:9                                       ; preds = %1
  call void @_ZSt17__throw_bad_allocv() #11, !dbg !1455
  unreachable, !dbg !1455

; <label>:10                                      ; preds = %1
  %11 = load i32* %3, align 4, !dbg !1456
  %12 = mul i32 %11, 4, !dbg !1456
  %13 = call noalias i8* @_Znwj(i32 %12), !dbg !1456
  %14 = bitcast i8* %13 to double**, !dbg !1456
  ret double** %14, !dbg !1456
}

; Function Attrs: nounwind
define linkonce_odr i32 @_ZNK9__gnu_cxx13new_allocatorIPdE8max_sizeEv(%"class.__gnu_cxx::new_allocator.2"* %this) #3 align 2 {
  %1 = alloca %"class.__gnu_cxx::new_allocator.2"*, align 4
  store %"class.__gnu_cxx::new_allocator.2"* %this, %"class.__gnu_cxx::new_allocator.2"** %1, align 4
  call void @llvm.dbg.declare(metadata !{%"class.__gnu_cxx::new_allocator.2"** %1}, metadata !1457), !dbg !1459
  %2 = load %"class.__gnu_cxx::new_allocator.2"** %1
  ret i32 1073741823, !dbg !1460
}

; Function Attrs: inlinehint
define linkonce_odr double** @_ZSt23__copy_move_backward_a2ILb0EPPdS1_ET1_T0_S3_S2_(double** %__first, double** %__last, double** %__result) #8 {
  %1 = alloca double**, align 4
  %2 = alloca double**, align 4
  %3 = alloca double**, align 4
  store double** %__first, double*** %1, align 4
  call void @llvm.dbg.declare(metadata !{double*** %1}, metadata !1461), !dbg !1462
  store double** %__last, double*** %2, align 4
  call void @llvm.dbg.declare(metadata !{double*** %2}, metadata !1463), !dbg !1464
  store double** %__result, double*** %3, align 4
  call void @llvm.dbg.declare(metadata !{double*** %3}, metadata !1465), !dbg !1466
  %4 = load double*** %1, align 4, !dbg !1467
  %5 = call double** @_ZSt12__niter_baseIPPdENSt11_Niter_baseIT_E13iterator_typeES3_(double** %4), !dbg !1467
  %6 = load double*** %2, align 4, !dbg !1468
  %7 = call double** @_ZSt12__niter_baseIPPdENSt11_Niter_baseIT_E13iterator_typeES3_(double** %6), !dbg !1468
  %8 = load double*** %3, align 4, !dbg !1469
  %9 = call double** @_ZSt12__niter_baseIPPdENSt11_Niter_baseIT_E13iterator_typeES3_(double** %8), !dbg !1469
  %10 = call double** @_ZSt22__copy_move_backward_aILb0EPPdS1_ET1_T0_S3_S2_(double** %5, double** %7, double** %9), !dbg !1470
  ret double** %10, !dbg !1470
}

; Function Attrs: inlinehint
define linkonce_odr double** @_ZSt12__miter_baseIPPdENSt11_Miter_baseIT_E13iterator_typeES3_(double** %__it) #8 {
  %1 = alloca double**, align 4
  store double** %__it, double*** %1, align 4
  call void @llvm.dbg.declare(metadata !{double*** %1}, metadata !1471), !dbg !1472
  %2 = load double*** %1, align 4, !dbg !1473
  %3 = call double** @_ZNSt10_Iter_baseIPPdLb0EE7_S_baseES1_(double** %2), !dbg !1473
  ret double** %3, !dbg !1473
}

; Function Attrs: nounwind
define linkonce_odr double** @_ZNSt10_Iter_baseIPPdLb0EE7_S_baseES1_(double** %__it) #3 align 2 {
  %1 = alloca double**, align 4
  store double** %__it, double*** %1, align 4
  call void @llvm.dbg.declare(metadata !{double*** %1}, metadata !1474), !dbg !1476
  %2 = load double*** %1, align 4, !dbg !1477
  ret double** %2, !dbg !1477
}

; Function Attrs: inlinehint
define linkonce_odr double** @_ZSt22__copy_move_backward_aILb0EPPdS1_ET1_T0_S3_S2_(double** %__first, double** %__last, double** %__result) #8 {
  %1 = alloca double**, align 4
  %2 = alloca double**, align 4
  %3 = alloca double**, align 4
  %__simple = alloca i8, align 1
  store double** %__first, double*** %1, align 4
  call void @llvm.dbg.declare(metadata !{double*** %1}, metadata !1478), !dbg !1479
  store double** %__last, double*** %2, align 4
  call void @llvm.dbg.declare(metadata !{double*** %2}, metadata !1480), !dbg !1481
  store double** %__result, double*** %3, align 4
  call void @llvm.dbg.declare(metadata !{double*** %3}, metadata !1482), !dbg !1483
  call void @llvm.dbg.declare(metadata !{i8* %__simple}, metadata !1484), !dbg !1486
  store i8 1, i8* %__simple, align 1, !dbg !1487
  %4 = load double*** %1, align 4, !dbg !1488
  %5 = load double*** %2, align 4, !dbg !1488
  %6 = load double*** %3, align 4, !dbg !1488
  %7 = call double** @_ZNSt20__copy_move_backwardILb0ELb1ESt26random_access_iterator_tagE13__copy_move_bIPdEEPT_PKS4_S7_S5_(double** %4, double** %5, double** %6), !dbg !1488
  ret double** %7, !dbg !1488
}

; Function Attrs: inlinehint nounwind
define linkonce_odr double** @_ZSt12__niter_baseIPPdENSt11_Niter_baseIT_E13iterator_typeES3_(double** %__it) #4 {
  %1 = alloca double**, align 4
  store double** %__it, double*** %1, align 4
  call void @llvm.dbg.declare(metadata !{double*** %1}, metadata !1489), !dbg !1490
  %2 = load double*** %1, align 4, !dbg !1491
  %3 = call double** @_ZNSt10_Iter_baseIPPdLb0EE7_S_baseES1_(double** %2), !dbg !1491
  ret double** %3, !dbg !1491
}

; Function Attrs: nounwind
define linkonce_odr double** @_ZNSt20__copy_move_backwardILb0ELb1ESt26random_access_iterator_tagE13__copy_move_bIPdEEPT_PKS4_S7_S5_(double** %__first, double** %__last, double** %__result) #3 align 2 {
  %1 = alloca double**, align 4
  %2 = alloca double**, align 4
  %3 = alloca double**, align 4
  %_Num = alloca i32, align 4
  store double** %__first, double*** %1, align 4
  call void @llvm.dbg.declare(metadata !{double*** %1}, metadata !1492), !dbg !1493
  store double** %__last, double*** %2, align 4
  call void @llvm.dbg.declare(metadata !{double*** %2}, metadata !1494), !dbg !1495
  store double** %__result, double*** %3, align 4
  call void @llvm.dbg.declare(metadata !{double*** %3}, metadata !1496), !dbg !1497
  call void @llvm.dbg.declare(metadata !{i32* %_Num}, metadata !1498), !dbg !1500
  %4 = load double*** %2, align 4, !dbg !1501
  %5 = load double*** %1, align 4, !dbg !1501
  %6 = ptrtoint double** %4 to i32, !dbg !1501
  %7 = ptrtoint double** %5 to i32, !dbg !1501
  %8 = sub i32 %6, %7, !dbg !1501
  %9 = sdiv exact i32 %8, 4, !dbg !1501
  store i32 %9, i32* %_Num, align 4, !dbg !1501
  %10 = load i32* %_Num, align 4, !dbg !1502
  %11 = icmp ne i32 %10, 0, !dbg !1502
  br i1 %11, label %12, label %22, !dbg !1502

; <label>:12                                      ; preds = %0
  %13 = load double*** %3, align 4, !dbg !1504
  %14 = load i32* %_Num, align 4, !dbg !1504
  %15 = sub i32 0, %14, !dbg !1504
  %16 = getelementptr inbounds double** %13, i32 %15, !dbg !1504
  %17 = bitcast double** %16 to i8*, !dbg !1504
  %18 = load double*** %1, align 4, !dbg !1504
  %19 = bitcast double** %18 to i8*, !dbg !1504
  %20 = load i32* %_Num, align 4, !dbg !1504
  %21 = mul i32 4, %20, !dbg !1504
  call void @llvm.memmove.p0i8.p0i8.i32(i8* %17, i8* %19, i32 %21, i32 4, i1 false), !dbg !1504
  br label %22, !dbg !1504

; <label>:22                                      ; preds = %12, %0
  %23 = load double*** %3, align 4, !dbg !1505
  %24 = load i32* %_Num, align 4, !dbg !1505
  %25 = sub i32 0, %24, !dbg !1505
  %26 = getelementptr inbounds double** %23, i32 %25, !dbg !1505
  ret double** %26, !dbg !1505
}

; Function Attrs: nounwind
declare void @llvm.memmove.p0i8.p0i8.i32(i8* nocapture, i8* nocapture readonly, i32, i32, i1) #9

; Function Attrs: inlinehint
define linkonce_odr double** @_ZSt14__copy_move_a2ILb0EPPdS1_ET1_T0_S3_S2_(double** %__first, double** %__last, double** %__result) #8 {
  %1 = alloca double**, align 4
  %2 = alloca double**, align 4
  %3 = alloca double**, align 4
  store double** %__first, double*** %1, align 4
  call void @llvm.dbg.declare(metadata !{double*** %1}, metadata !1506), !dbg !1507
  store double** %__last, double*** %2, align 4
  call void @llvm.dbg.declare(metadata !{double*** %2}, metadata !1508), !dbg !1509
  store double** %__result, double*** %3, align 4
  call void @llvm.dbg.declare(metadata !{double*** %3}, metadata !1510), !dbg !1511
  %4 = load double*** %1, align 4, !dbg !1512
  %5 = call double** @_ZSt12__niter_baseIPPdENSt11_Niter_baseIT_E13iterator_typeES3_(double** %4), !dbg !1512
  %6 = load double*** %2, align 4, !dbg !1513
  %7 = call double** @_ZSt12__niter_baseIPPdENSt11_Niter_baseIT_E13iterator_typeES3_(double** %6), !dbg !1513
  %8 = load double*** %3, align 4, !dbg !1514
  %9 = call double** @_ZSt12__niter_baseIPPdENSt11_Niter_baseIT_E13iterator_typeES3_(double** %8), !dbg !1514
  %10 = call double** @_ZSt13__copy_move_aILb0EPPdS1_ET1_T0_S3_S2_(double** %5, double** %7, double** %9), !dbg !1515
  ret double** %10, !dbg !1515
}

; Function Attrs: inlinehint
define linkonce_odr double** @_ZSt13__copy_move_aILb0EPPdS1_ET1_T0_S3_S2_(double** %__first, double** %__last, double** %__result) #8 {
  %1 = alloca double**, align 4
  %2 = alloca double**, align 4
  %3 = alloca double**, align 4
  %__simple = alloca i8, align 1
  store double** %__first, double*** %1, align 4
  call void @llvm.dbg.declare(metadata !{double*** %1}, metadata !1516), !dbg !1517
  store double** %__last, double*** %2, align 4
  call void @llvm.dbg.declare(metadata !{double*** %2}, metadata !1518), !dbg !1519
  store double** %__result, double*** %3, align 4
  call void @llvm.dbg.declare(metadata !{double*** %3}, metadata !1520), !dbg !1521
  call void @llvm.dbg.declare(metadata !{i8* %__simple}, metadata !1522), !dbg !1523
  store i8 1, i8* %__simple, align 1, !dbg !1524
  %4 = load double*** %1, align 4, !dbg !1525
  %5 = load double*** %2, align 4, !dbg !1525
  %6 = load double*** %3, align 4, !dbg !1525
  %7 = call double** @_ZNSt11__copy_moveILb0ELb1ESt26random_access_iterator_tagE8__copy_mIPdEEPT_PKS4_S7_S5_(double** %4, double** %5, double** %6), !dbg !1525
  ret double** %7, !dbg !1525
}

; Function Attrs: nounwind
define linkonce_odr double** @_ZNSt11__copy_moveILb0ELb1ESt26random_access_iterator_tagE8__copy_mIPdEEPT_PKS4_S7_S5_(double** %__first, double** %__last, double** %__result) #3 align 2 {
  %1 = alloca double**, align 4
  %2 = alloca double**, align 4
  %3 = alloca double**, align 4
  %_Num = alloca i32, align 4
  store double** %__first, double*** %1, align 4
  call void @llvm.dbg.declare(metadata !{double*** %1}, metadata !1526), !dbg !1527
  store double** %__last, double*** %2, align 4
  call void @llvm.dbg.declare(metadata !{double*** %2}, metadata !1528), !dbg !1529
  store double** %__result, double*** %3, align 4
  call void @llvm.dbg.declare(metadata !{double*** %3}, metadata !1530), !dbg !1531
  call void @llvm.dbg.declare(metadata !{i32* %_Num}, metadata !1532), !dbg !1533
  %4 = load double*** %2, align 4, !dbg !1534
  %5 = load double*** %1, align 4, !dbg !1534
  %6 = ptrtoint double** %4 to i32, !dbg !1534
  %7 = ptrtoint double** %5 to i32, !dbg !1534
  %8 = sub i32 %6, %7, !dbg !1534
  %9 = sdiv exact i32 %8, 4, !dbg !1534
  store i32 %9, i32* %_Num, align 4, !dbg !1534
  %10 = load i32* %_Num, align 4, !dbg !1535
  %11 = icmp ne i32 %10, 0, !dbg !1535
  br i1 %11, label %12, label %19, !dbg !1535

; <label>:12                                      ; preds = %0
  %13 = load double*** %3, align 4, !dbg !1537
  %14 = bitcast double** %13 to i8*, !dbg !1537
  %15 = load double*** %1, align 4, !dbg !1537
  %16 = bitcast double** %15 to i8*, !dbg !1537
  %17 = load i32* %_Num, align 4, !dbg !1537
  %18 = mul i32 4, %17, !dbg !1537
  call void @llvm.memmove.p0i8.p0i8.i32(i8* %14, i8* %16, i32 %18, i32 4, i1 false), !dbg !1537
  br label %19, !dbg !1537

; <label>:19                                      ; preds = %12, %0
  %20 = load double*** %3, align 4, !dbg !1538
  %21 = load i32* %_Num, align 4, !dbg !1538
  %22 = getelementptr inbounds double** %20, i32 %21, !dbg !1538
  ret double** %22, !dbg !1538
}

define linkonce_odr %"class.std::deque"* @_ZNSt5dequeIdSaIdEEC2ERKS1_(%"class.std::deque"* returned %this, %"class.std::deque"* dereferenceable(40) %__x) unnamed_addr #0 align 2 {
  %1 = alloca %"class.std::deque"*, align 4
  %2 = alloca %"class.std::deque"*, align 4
  %3 = alloca %"struct.std::_Deque_iterator.0", align 4
  %4 = alloca i8*
  %5 = alloca i32
  %6 = alloca %"struct.std::_Deque_iterator.0", align 4
  %7 = alloca %"struct.std::_Deque_iterator", align 4
  %8 = alloca %"struct.std::_Deque_iterator", align 4
  store %"class.std::deque"* %this, %"class.std::deque"** %1, align 4
  call void @llvm.dbg.declare(metadata !{%"class.std::deque"** %1}, metadata !1539), !dbg !1540
  store %"class.std::deque"* %__x, %"class.std::deque"** %2, align 4
  call void @llvm.dbg.declare(metadata !{%"class.std::deque"** %2}, metadata !1541), !dbg !1542
  %9 = load %"class.std::deque"** %1
  %10 = bitcast %"class.std::deque"* %9 to %"class.std::_Deque_base"*, !dbg !1543
  %11 = load %"class.std::deque"** %2, align 4, !dbg !1544
  %12 = bitcast %"class.std::deque"* %11 to %"class.std::_Deque_base"*, !dbg !1544
  %13 = call dereferenceable(1) %"class.std::allocator"* @_ZNKSt11_Deque_baseIdSaIdEE19_M_get_Tp_allocatorEv(%"class.std::_Deque_base"* %12), !dbg !1544
  %14 = load %"class.std::deque"** %2, align 4, !dbg !1545
  %15 = call i32 @_ZNKSt5dequeIdSaIdEE4sizeEv(%"class.std::deque"* %14), !dbg !1545
  %16 = call %"class.std::_Deque_base"* @_ZNSt11_Deque_baseIdSaIdEEC2ERKS0_j(%"class.std::_Deque_base"* %10, %"class.std::allocator"* dereferenceable(1) %13, i32 %15), !dbg !1543
  %17 = load %"class.std::deque"** %2, align 4, !dbg !1546
  invoke void @_ZNKSt5dequeIdSaIdEE5beginEv(%"struct.std::_Deque_iterator.0"* sret %3, %"class.std::deque"* %17)
          to label %18 unwind label %36, !dbg !1546

; <label>:18                                      ; preds = %0
  %19 = load %"class.std::deque"** %2, align 4, !dbg !1548
  invoke void @_ZNKSt5dequeIdSaIdEE3endEv(%"struct.std::_Deque_iterator.0"* sret %6, %"class.std::deque"* %19)
          to label %20 unwind label %36, !dbg !1548

; <label>:20                                      ; preds = %18
  %21 = bitcast %"class.std::deque"* %9 to %"class.std::_Deque_base"*, !dbg !1550
  %22 = getelementptr inbounds %"class.std::_Deque_base"* %21, i32 0, i32 0, !dbg !1550
  %23 = getelementptr inbounds %"struct.std::_Deque_base<double, std::allocator<double> >::_Deque_impl"* %22, i32 0, i32 2, !dbg !1550
  %24 = invoke %"struct.std::_Deque_iterator"* @_ZNSt15_Deque_iteratorIdRdPdEC2ERKS2_(%"struct.std::_Deque_iterator"* %7, %"struct.std::_Deque_iterator"* dereferenceable(16) %23)
          to label %25 unwind label %36, !dbg !1550

; <label>:25                                      ; preds = %20
  %26 = bitcast %"class.std::deque"* %9 to %"class.std::_Deque_base"*, !dbg !1552
  %27 = invoke dereferenceable(1) %"class.std::allocator"* @_ZNSt11_Deque_baseIdSaIdEE19_M_get_Tp_allocatorEv(%"class.std::_Deque_base"* %26)
          to label %28 unwind label %36, !dbg !1552

; <label>:28                                      ; preds = %25
  %29 = bitcast %"struct.std::_Deque_iterator.0"* %3 to { [4 x i32] }*, !dbg !1553
  %30 = getelementptr { [4 x i32] }* %29, i32 0, i32 0, !dbg !1553
  %31 = load [4 x i32]* %30, align 1, !dbg !1553
  %32 = bitcast %"struct.std::_Deque_iterator.0"* %6 to { [4 x i32] }*, !dbg !1553
  %33 = getelementptr { [4 x i32] }* %32, i32 0, i32 0, !dbg !1553
  %34 = load [4 x i32]* %33, align 1, !dbg !1553
  invoke void @_ZSt22__uninitialized_copy_aISt15_Deque_iteratorIdRKdPS1_ES0_IdRdPdEdET0_T_S9_S8_RSaIT1_E(%"struct.std::_Deque_iterator"* sret %8, [4 x i32] %31, [4 x i32] %34, %"struct.std::_Deque_iterator"* %7, %"class.std::allocator"* dereferenceable(1) %27)
          to label %35 unwind label %36, !dbg !1553

; <label>:35                                      ; preds = %28
  ret %"class.std::deque"* %9, !dbg !1554

; <label>:36                                      ; preds = %28, %25, %20, %18, %0
  %37 = landingpad { i8*, i32 } personality i8* bitcast (i32 (...)* @__gxx_personality_v0 to i8*)
          cleanup, !dbg !1555
  %38 = extractvalue { i8*, i32 } %37, 0, !dbg !1555
  store i8* %38, i8** %4, !dbg !1555
  %39 = extractvalue { i8*, i32 } %37, 1, !dbg !1555
  store i32 %39, i32* %5, !dbg !1555
  %40 = bitcast %"class.std::deque"* %9 to %"class.std::_Deque_base"*, !dbg !1554
  %41 = invoke %"class.std::_Deque_base"* @_ZNSt11_Deque_baseIdSaIdEED2Ev(%"class.std::_Deque_base"* %40)
          to label %42 unwind label %48, !dbg !1554

; <label>:42                                      ; preds = %36
  br label %43, !dbg !1557

; <label>:43                                      ; preds = %42
  %44 = load i8** %4, !dbg !1559
  %45 = load i32* %5, !dbg !1559
  %46 = insertvalue { i8*, i32 } undef, i8* %44, 0, !dbg !1559
  %47 = insertvalue { i8*, i32 } %46, i32 %45, 1, !dbg !1559
  resume { i8*, i32 } %47, !dbg !1559

; <label>:48                                      ; preds = %36
  %49 = landingpad { i8*, i32 } personality i8* bitcast (i32 (...)* @__gxx_personality_v0 to i8*)
          catch i8* null, !dbg !1561
  %50 = extractvalue { i8*, i32 } %49, 0, !dbg !1561
  call void @__clang_call_terminate(i8* %50) #10, !dbg !1561
  unreachable, !dbg !1561
}

define linkonce_odr %"class.std::_Deque_base"* @_ZNSt11_Deque_baseIdSaIdEEC2ERKS0_j(%"class.std::_Deque_base"* returned %this, %"class.std::allocator"* dereferenceable(1) %__a, i32 %__num_elements) unnamed_addr #0 align 2 {
  %1 = alloca %"class.std::_Deque_base"*, align 4
  %2 = alloca %"class.std::allocator"*, align 4
  %3 = alloca i32, align 4
  %4 = alloca i8*
  %5 = alloca i32
  store %"class.std::_Deque_base"* %this, %"class.std::_Deque_base"** %1, align 4
  call void @llvm.dbg.declare(metadata !{%"class.std::_Deque_base"** %1}, metadata !1563), !dbg !1564
  store %"class.std::allocator"* %__a, %"class.std::allocator"** %2, align 4
  call void @llvm.dbg.declare(metadata !{%"class.std::allocator"** %2}, metadata !1565), !dbg !1566
  store i32 %__num_elements, i32* %3, align 4
  call void @llvm.dbg.declare(metadata !{i32* %3}, metadata !1567), !dbg !1568
  %6 = load %"class.std::_Deque_base"** %1
  %7 = getelementptr inbounds %"class.std::_Deque_base"* %6, i32 0, i32 0, !dbg !1569
  %8 = load %"class.std::allocator"** %2, align 4, !dbg !1569
  %9 = call %"struct.std::_Deque_base<double, std::allocator<double> >::_Deque_impl"* @_ZNSt11_Deque_baseIdSaIdEE11_Deque_implC2ERKS0_(%"struct.std::_Deque_base<double, std::allocator<double> >::_Deque_impl"* %7, %"class.std::allocator"* dereferenceable(1) %8), !dbg !1569
  %10 = load i32* %3, align 4, !dbg !1570
  invoke void @_ZNSt11_Deque_baseIdSaIdEE17_M_initialize_mapEj(%"class.std::_Deque_base"* %6, i32 %10)
          to label %11 unwind label %12, !dbg !1570

; <label>:11                                      ; preds = %0
  ret %"class.std::_Deque_base"* %6, !dbg !1572

; <label>:12                                      ; preds = %0
  %13 = landingpad { i8*, i32 } personality i8* bitcast (i32 (...)* @__gxx_personality_v0 to i8*)
          cleanup, !dbg !1574
  %14 = extractvalue { i8*, i32 } %13, 0, !dbg !1574
  store i8* %14, i8** %4, !dbg !1574
  %15 = extractvalue { i8*, i32 } %13, 1, !dbg !1574
  store i32 %15, i32* %5, !dbg !1574
  %16 = call %"struct.std::_Deque_base<double, std::allocator<double> >::_Deque_impl"* @_ZNSt11_Deque_baseIdSaIdEE11_Deque_implD2Ev(%"struct.std::_Deque_base<double, std::allocator<double> >::_Deque_impl"* %7) #9, !dbg !1576
  br label %17, !dbg !1576

; <label>:17                                      ; preds = %12
  %18 = load i8** %4, !dbg !1577
  %19 = load i32* %5, !dbg !1577
  %20 = insertvalue { i8*, i32 } undef, i8* %18, 0, !dbg !1577
  %21 = insertvalue { i8*, i32 } %20, i32 %19, 1, !dbg !1577
  resume { i8*, i32 } %21, !dbg !1577
}

; Function Attrs: inlinehint
define linkonce_odr void @_ZSt22__uninitialized_copy_aISt15_Deque_iteratorIdRKdPS1_ES0_IdRdPdEdET0_T_S9_S8_RSaIT1_E(%"struct.std::_Deque_iterator"* noalias sret %agg.result, [4 x i32] %__first.coerce, [4 x i32] %__last.coerce, %"struct.std::_Deque_iterator"* %__result, %"class.std::allocator"* dereferenceable(1)) #8 {
  %__first = alloca %"struct.std::_Deque_iterator.0", align 4
  %__last = alloca %"struct.std::_Deque_iterator.0", align 4
  %2 = alloca %"class.std::allocator"*, align 4
  %3 = alloca %"struct.std::_Deque_iterator.0", align 4
  %4 = alloca %"struct.std::_Deque_iterator.0", align 4
  %5 = alloca %"struct.std::_Deque_iterator", align 4
  %6 = bitcast %"struct.std::_Deque_iterator.0"* %__first to [4 x i32]*
  store [4 x i32] %__first.coerce, [4 x i32]* %6, align 1
  %7 = bitcast %"struct.std::_Deque_iterator.0"* %__last to [4 x i32]*
  store [4 x i32] %__last.coerce, [4 x i32]* %7, align 1
  call void @llvm.dbg.declare(metadata !{%"struct.std::_Deque_iterator.0"* %__first}, metadata !1579), !dbg !1581
  call void @llvm.dbg.declare(metadata !{%"struct.std::_Deque_iterator.0"* %__last}, metadata !1582), !dbg !1583
  call void @llvm.dbg.declare(metadata !{%"struct.std::_Deque_iterator"* %__result}, metadata !1584), !dbg !1585
  store %"class.std::allocator"* %0, %"class.std::allocator"** %2, align 4
  call void @llvm.dbg.declare(metadata !{%"class.std::allocator"** %2}, metadata !1586), !dbg !1587
  %8 = bitcast %"struct.std::_Deque_iterator.0"* %3 to i8*, !dbg !1588
  %9 = bitcast %"struct.std::_Deque_iterator.0"* %__first to i8*, !dbg !1588
  call void @llvm.memcpy.p0i8.p0i8.i32(i8* %8, i8* %9, i32 16, i32 4, i1 false), !dbg !1588
  %10 = bitcast %"struct.std::_Deque_iterator.0"* %4 to i8*, !dbg !1588
  %11 = bitcast %"struct.std::_Deque_iterator.0"* %__last to i8*, !dbg !1588
  call void @llvm.memcpy.p0i8.p0i8.i32(i8* %10, i8* %11, i32 16, i32 4, i1 false), !dbg !1588
  %12 = call %"struct.std::_Deque_iterator"* @_ZNSt15_Deque_iteratorIdRdPdEC2ERKS2_(%"struct.std::_Deque_iterator"* %5, %"struct.std::_Deque_iterator"* dereferenceable(16) %__result), !dbg !1588
  %13 = bitcast %"struct.std::_Deque_iterator.0"* %3 to { [4 x i32] }*, !dbg !1588
  %14 = getelementptr { [4 x i32] }* %13, i32 0, i32 0, !dbg !1588
  %15 = load [4 x i32]* %14, align 1, !dbg !1588
  %16 = bitcast %"struct.std::_Deque_iterator.0"* %4 to { [4 x i32] }*, !dbg !1588
  %17 = getelementptr { [4 x i32] }* %16, i32 0, i32 0, !dbg !1588
  %18 = load [4 x i32]* %17, align 1, !dbg !1588
  call void @_ZSt18uninitialized_copyISt15_Deque_iteratorIdRKdPS1_ES0_IdRdPdEET0_T_S9_S8_(%"struct.std::_Deque_iterator"* sret %agg.result, [4 x i32] %15, [4 x i32] %18, %"struct.std::_Deque_iterator"* %5), !dbg !1588
  ret void, !dbg !1588
}

define linkonce_odr void @_ZNKSt5dequeIdSaIdEE5beginEv(%"struct.std::_Deque_iterator.0"* noalias sret %agg.result, %"class.std::deque"* %this) #0 align 2 {
  %1 = alloca %"class.std::deque"*, align 4
  store %"class.std::deque"* %this, %"class.std::deque"** %1, align 4
  call void @llvm.dbg.declare(metadata !{%"class.std::deque"** %1}, metadata !1589), !dbg !1590
  %2 = load %"class.std::deque"** %1
  %3 = bitcast %"class.std::deque"* %2 to %"class.std::_Deque_base"*, !dbg !1591
  %4 = getelementptr inbounds %"class.std::_Deque_base"* %3, i32 0, i32 0, !dbg !1591
  %5 = getelementptr inbounds %"struct.std::_Deque_base<double, std::allocator<double> >::_Deque_impl"* %4, i32 0, i32 2, !dbg !1591
  %6 = call %"struct.std::_Deque_iterator.0"* @_ZNSt15_Deque_iteratorIdRKdPS0_EC2ERKS_IdRdPdE(%"struct.std::_Deque_iterator.0"* %agg.result, %"struct.std::_Deque_iterator"* dereferenceable(16) %5), !dbg !1591
  ret void, !dbg !1591
}

; Function Attrs: nounwind
define linkonce_odr dereferenceable(1) %"class.std::allocator"* @_ZNSt11_Deque_baseIdSaIdEE19_M_get_Tp_allocatorEv(%"class.std::_Deque_base"* %this) #3 align 2 {
  %1 = alloca %"class.std::_Deque_base"*, align 4
  store %"class.std::_Deque_base"* %this, %"class.std::_Deque_base"** %1, align 4
  call void @llvm.dbg.declare(metadata !{%"class.std::_Deque_base"** %1}, metadata !1592), !dbg !1593
  %2 = load %"class.std::_Deque_base"** %1
  %3 = getelementptr inbounds %"class.std::_Deque_base"* %2, i32 0, i32 0, !dbg !1594
  %4 = bitcast %"struct.std::_Deque_base<double, std::allocator<double> >::_Deque_impl"* %3 to %"class.std::allocator"*, !dbg !1594
  ret %"class.std::allocator"* %4, !dbg !1594
}

define linkonce_odr %"class.std::_Deque_base"* @_ZNSt11_Deque_baseIdSaIdEED2Ev(%"class.std::_Deque_base"* returned %this) unnamed_addr #0 align 2 {
  %1 = alloca %"class.std::_Deque_base"*, align 4
  %2 = alloca %"class.std::_Deque_base"*, align 4
  %3 = alloca i8*
  %4 = alloca i32
  store %"class.std::_Deque_base"* %this, %"class.std::_Deque_base"** %2, align 4
  call void @llvm.dbg.declare(metadata !{%"class.std::_Deque_base"** %2}, metadata !1595), !dbg !1596
  %5 = load %"class.std::_Deque_base"** %2
  store %"class.std::_Deque_base"* %5, %"class.std::_Deque_base"** %1
  %6 = getelementptr inbounds %"class.std::_Deque_base"* %5, i32 0, i32 0, !dbg !1597
  %7 = getelementptr inbounds %"struct.std::_Deque_base<double, std::allocator<double> >::_Deque_impl"* %6, i32 0, i32 0, !dbg !1597
  %8 = load double*** %7, align 4, !dbg !1597
  %9 = icmp ne double** %8, null, !dbg !1597
  br i1 %9, label %10, label %34, !dbg !1597

; <label>:10                                      ; preds = %0
  %11 = getelementptr inbounds %"class.std::_Deque_base"* %5, i32 0, i32 0, !dbg !1600
  %12 = getelementptr inbounds %"struct.std::_Deque_base<double, std::allocator<double> >::_Deque_impl"* %11, i32 0, i32 2, !dbg !1600
  %13 = getelementptr inbounds %"struct.std::_Deque_iterator"* %12, i32 0, i32 3, !dbg !1600
  %14 = load double*** %13, align 4, !dbg !1600
  %15 = getelementptr inbounds %"class.std::_Deque_base"* %5, i32 0, i32 0, !dbg !1600
  %16 = getelementptr inbounds %"struct.std::_Deque_base<double, std::allocator<double> >::_Deque_impl"* %15, i32 0, i32 3, !dbg !1600
  %17 = getelementptr inbounds %"struct.std::_Deque_iterator"* %16, i32 0, i32 3, !dbg !1600
  %18 = load double*** %17, align 4, !dbg !1600
  %19 = getelementptr inbounds double** %18, i32 1, !dbg !1600
  invoke void @_ZNSt11_Deque_baseIdSaIdEE16_M_destroy_nodesEPPdS3_(%"class.std::_Deque_base"* %5, double** %14, double** %19)
          to label %20 unwind label %28, !dbg !1600

; <label>:20                                      ; preds = %10
  %21 = getelementptr inbounds %"class.std::_Deque_base"* %5, i32 0, i32 0, !dbg !1602
  %22 = getelementptr inbounds %"struct.std::_Deque_base<double, std::allocator<double> >::_Deque_impl"* %21, i32 0, i32 0, !dbg !1602
  %23 = load double*** %22, align 4, !dbg !1602
  %24 = getelementptr inbounds %"class.std::_Deque_base"* %5, i32 0, i32 0, !dbg !1602
  %25 = getelementptr inbounds %"struct.std::_Deque_base<double, std::allocator<double> >::_Deque_impl"* %24, i32 0, i32 1, !dbg !1602
  %26 = load i32* %25, align 4, !dbg !1602
  invoke void @_ZNSt11_Deque_baseIdSaIdEE17_M_deallocate_mapEPPdj(%"class.std::_Deque_base"* %5, double** %23, i32 %26)
          to label %27 unwind label %28, !dbg !1602

; <label>:27                                      ; preds = %20
  br label %34, !dbg !1603

; <label>:28                                      ; preds = %20, %10
  %29 = landingpad { i8*, i32 } personality i8* bitcast (i32 (...)* @__gxx_personality_v0 to i8*)
          cleanup, !dbg !1604
  %30 = extractvalue { i8*, i32 } %29, 0, !dbg !1604
  store i8* %30, i8** %3, !dbg !1604
  %31 = extractvalue { i8*, i32 } %29, 1, !dbg !1604
  store i32 %31, i32* %4, !dbg !1604
  %32 = getelementptr inbounds %"class.std::_Deque_base"* %5, i32 0, i32 0, !dbg !1605
  %33 = call %"struct.std::_Deque_base<double, std::allocator<double> >::_Deque_impl"* @_ZNSt11_Deque_baseIdSaIdEE11_Deque_implD2Ev(%"struct.std::_Deque_base<double, std::allocator<double> >::_Deque_impl"* %32) #9, !dbg !1605
  br label %38, !dbg !1605

; <label>:34                                      ; preds = %27, %0
  %35 = getelementptr inbounds %"class.std::_Deque_base"* %5, i32 0, i32 0, !dbg !1606
  %36 = call %"struct.std::_Deque_base<double, std::allocator<double> >::_Deque_impl"* @_ZNSt11_Deque_baseIdSaIdEE11_Deque_implD2Ev(%"struct.std::_Deque_base<double, std::allocator<double> >::_Deque_impl"* %35) #9, !dbg !1606
  %37 = load %"class.std::_Deque_base"** %1, !dbg !1605
  ret %"class.std::_Deque_base"* %37, !dbg !1605

; <label>:38                                      ; preds = %28
  %39 = load i8** %3, !dbg !1607
  %40 = load i32* %4, !dbg !1607
  %41 = insertvalue { i8*, i32 } undef, i8* %39, 0, !dbg !1607
  %42 = insertvalue { i8*, i32 } %41, i32 %40, 1, !dbg !1607
  resume { i8*, i32 } %42, !dbg !1607
}

define linkonce_odr void @_ZNSt11_Deque_baseIdSaIdEE16_M_destroy_nodesEPPdS3_(%"class.std::_Deque_base"* %this, double** %__nstart, double** %__nfinish) #0 align 2 {
  %1 = alloca %"class.std::_Deque_base"*, align 4
  %2 = alloca double**, align 4
  %3 = alloca double**, align 4
  %__n = alloca double**, align 4
  store %"class.std::_Deque_base"* %this, %"class.std::_Deque_base"** %1, align 4
  call void @llvm.dbg.declare(metadata !{%"class.std::_Deque_base"** %1}, metadata !1609), !dbg !1610
  store double** %__nstart, double*** %2, align 4
  call void @llvm.dbg.declare(metadata !{double*** %2}, metadata !1611), !dbg !1612
  store double** %__nfinish, double*** %3, align 4
  call void @llvm.dbg.declare(metadata !{double*** %3}, metadata !1613), !dbg !1614
  %4 = load %"class.std::_Deque_base"** %1
  call void @llvm.dbg.declare(metadata !{double*** %__n}, metadata !1615), !dbg !1617
  %5 = load double*** %2, align 4, !dbg !1618
  store double** %5, double*** %__n, align 4, !dbg !1618
  br label %6, !dbg !1618

; <label>:6                                       ; preds = %13, %0
  %7 = load double*** %__n, align 4, !dbg !1619
  %8 = load double*** %3, align 4, !dbg !1619
  %9 = icmp ult double** %7, %8, !dbg !1619
  br i1 %9, label %10, label %16, !dbg !1619

; <label>:10                                      ; preds = %6
  %11 = load double*** %__n, align 4, !dbg !1622
  %12 = load double** %11, align 4, !dbg !1622
  call void @_ZNSt11_Deque_baseIdSaIdEE18_M_deallocate_nodeEPd(%"class.std::_Deque_base"* %4, double* %12), !dbg !1622
  br label %13, !dbg !1622

; <label>:13                                      ; preds = %10
  %14 = load double*** %__n, align 4, !dbg !1623
  %15 = getelementptr inbounds double** %14, i32 1, !dbg !1623
  store double** %15, double*** %__n, align 4, !dbg !1623
  br label %6, !dbg !1623

; <label>:16                                      ; preds = %6
  ret void, !dbg !1624
}

; Function Attrs: inlinehint nounwind
define linkonce_odr %"struct.std::_Deque_base<double, std::allocator<double> >::_Deque_impl"* @_ZNSt11_Deque_baseIdSaIdEE11_Deque_implD2Ev(%"struct.std::_Deque_base<double, std::allocator<double> >::_Deque_impl"* returned %this) unnamed_addr #4 align 2 {
  %1 = alloca %"struct.std::_Deque_base<double, std::allocator<double> >::_Deque_impl"*, align 4
  store %"struct.std::_Deque_base<double, std::allocator<double> >::_Deque_impl"* %this, %"struct.std::_Deque_base<double, std::allocator<double> >::_Deque_impl"** %1, align 4
  call void @llvm.dbg.declare(metadata !{%"struct.std::_Deque_base<double, std::allocator<double> >::_Deque_impl"** %1}, metadata !1625), !dbg !1627
  %2 = load %"struct.std::_Deque_base<double, std::allocator<double> >::_Deque_impl"** %1
  %3 = bitcast %"struct.std::_Deque_base<double, std::allocator<double> >::_Deque_impl"* %2 to %"class.std::allocator"*, !dbg !1628
  %4 = call %"class.std::allocator"* @_ZNSaIdED2Ev(%"class.std::allocator"* %3) #9, !dbg !1628
  ret %"struct.std::_Deque_base<double, std::allocator<double> >::_Deque_impl"* %2, !dbg !1630
}

; Function Attrs: nounwind
define linkonce_odr %"class.std::allocator"* @_ZNSaIdED2Ev(%"class.std::allocator"* returned %this) unnamed_addr #3 align 2 {
  %1 = alloca %"class.std::allocator"*, align 4
  store %"class.std::allocator"* %this, %"class.std::allocator"** %1, align 4
  call void @llvm.dbg.declare(metadata !{%"class.std::allocator"** %1}, metadata !1631), !dbg !1633
  %2 = load %"class.std::allocator"** %1
  %3 = bitcast %"class.std::allocator"* %2 to %"class.__gnu_cxx::new_allocator"*, !dbg !1634
  %4 = call %"class.__gnu_cxx::new_allocator"* @_ZN9__gnu_cxx13new_allocatorIdED2Ev(%"class.__gnu_cxx::new_allocator"* %3) #9, !dbg !1634
  ret %"class.std::allocator"* %2, !dbg !1636
}

; Function Attrs: nounwind
define linkonce_odr %"class.__gnu_cxx::new_allocator"* @_ZN9__gnu_cxx13new_allocatorIdED2Ev(%"class.__gnu_cxx::new_allocator"* returned %this) unnamed_addr #3 align 2 {
  %1 = alloca %"class.__gnu_cxx::new_allocator"*, align 4
  store %"class.__gnu_cxx::new_allocator"* %this, %"class.__gnu_cxx::new_allocator"** %1, align 4
  call void @llvm.dbg.declare(metadata !{%"class.__gnu_cxx::new_allocator"** %1}, metadata !1637), !dbg !1638
  %2 = load %"class.__gnu_cxx::new_allocator"** %1
  ret %"class.__gnu_cxx::new_allocator"* %2, !dbg !1639
}

; Function Attrs: inlinehint
define linkonce_odr void @_ZSt18uninitialized_copyISt15_Deque_iteratorIdRKdPS1_ES0_IdRdPdEET0_T_S9_S8_(%"struct.std::_Deque_iterator"* noalias sret %agg.result, [4 x i32] %__first.coerce, [4 x i32] %__last.coerce, %"struct.std::_Deque_iterator"* %__result) #8 {
  %__first = alloca %"struct.std::_Deque_iterator.0", align 4
  %__last = alloca %"struct.std::_Deque_iterator.0", align 4
  %__assignable = alloca i8, align 1
  %1 = alloca %"struct.std::_Deque_iterator.0", align 4
  %2 = alloca %"struct.std::_Deque_iterator.0", align 4
  %3 = alloca %"struct.std::_Deque_iterator", align 4
  %4 = bitcast %"struct.std::_Deque_iterator.0"* %__first to [4 x i32]*
  store [4 x i32] %__first.coerce, [4 x i32]* %4, align 1
  %5 = bitcast %"struct.std::_Deque_iterator.0"* %__last to [4 x i32]*
  store [4 x i32] %__last.coerce, [4 x i32]* %5, align 1
  call void @llvm.dbg.declare(metadata !{%"struct.std::_Deque_iterator.0"* %__first}, metadata !1640), !dbg !1641
  call void @llvm.dbg.declare(metadata !{%"struct.std::_Deque_iterator.0"* %__last}, metadata !1642), !dbg !1643
  call void @llvm.dbg.declare(metadata !{%"struct.std::_Deque_iterator"* %__result}, metadata !1644), !dbg !1645
  call void @llvm.dbg.declare(metadata !{i8* %__assignable}, metadata !1646), !dbg !1647
  store i8 1, i8* %__assignable, align 1, !dbg !1648
  %6 = bitcast %"struct.std::_Deque_iterator.0"* %1 to i8*, !dbg !1649
  %7 = bitcast %"struct.std::_Deque_iterator.0"* %__first to i8*, !dbg !1649
  call void @llvm.memcpy.p0i8.p0i8.i32(i8* %6, i8* %7, i32 16, i32 4, i1 false), !dbg !1649
  %8 = bitcast %"struct.std::_Deque_iterator.0"* %2 to i8*, !dbg !1649
  %9 = bitcast %"struct.std::_Deque_iterator.0"* %__last to i8*, !dbg !1649
  call void @llvm.memcpy.p0i8.p0i8.i32(i8* %8, i8* %9, i32 16, i32 4, i1 false), !dbg !1649
  %10 = call %"struct.std::_Deque_iterator"* @_ZNSt15_Deque_iteratorIdRdPdEC2ERKS2_(%"struct.std::_Deque_iterator"* %3, %"struct.std::_Deque_iterator"* dereferenceable(16) %__result), !dbg !1649
  %11 = bitcast %"struct.std::_Deque_iterator.0"* %1 to { [4 x i32] }*, !dbg !1649
  %12 = getelementptr { [4 x i32] }* %11, i32 0, i32 0, !dbg !1649
  %13 = load [4 x i32]* %12, align 1, !dbg !1649
  %14 = bitcast %"struct.std::_Deque_iterator.0"* %2 to { [4 x i32] }*, !dbg !1649
  %15 = getelementptr { [4 x i32] }* %14, i32 0, i32 0, !dbg !1649
  %16 = load [4 x i32]* %15, align 1, !dbg !1649
  call void @_ZNSt20__uninitialized_copyILb1EE13__uninit_copyISt15_Deque_iteratorIdRKdPS3_ES2_IdRdPdEEET0_T_SB_SA_(%"struct.std::_Deque_iterator"* sret %agg.result, [4 x i32] %13, [4 x i32] %16, %"struct.std::_Deque_iterator"* %3), !dbg !1649
  ret void, !dbg !1649
}

; Function Attrs: nounwind
declare void @llvm.memcpy.p0i8.p0i8.i32(i8* nocapture, i8* nocapture readonly, i32, i32, i1) #9

define linkonce_odr void @_ZNSt20__uninitialized_copyILb1EE13__uninit_copyISt15_Deque_iteratorIdRKdPS3_ES2_IdRdPdEEET0_T_SB_SA_(%"struct.std::_Deque_iterator"* noalias sret %agg.result, [4 x i32] %__first.coerce, [4 x i32] %__last.coerce, %"struct.std::_Deque_iterator"* %__result) #0 align 2 {
  %__first = alloca %"struct.std::_Deque_iterator.0", align 4
  %__last = alloca %"struct.std::_Deque_iterator.0", align 4
  %1 = alloca %"struct.std::_Deque_iterator.0", align 4
  %2 = alloca %"struct.std::_Deque_iterator.0", align 4
  %3 = alloca %"struct.std::_Deque_iterator", align 4
  %4 = bitcast %"struct.std::_Deque_iterator.0"* %__first to [4 x i32]*
  store [4 x i32] %__first.coerce, [4 x i32]* %4, align 1
  %5 = bitcast %"struct.std::_Deque_iterator.0"* %__last to [4 x i32]*
  store [4 x i32] %__last.coerce, [4 x i32]* %5, align 1
  call void @llvm.dbg.declare(metadata !{%"struct.std::_Deque_iterator.0"* %__first}, metadata !1650), !dbg !1651
  call void @llvm.dbg.declare(metadata !{%"struct.std::_Deque_iterator.0"* %__last}, metadata !1652), !dbg !1653
  call void @llvm.dbg.declare(metadata !{%"struct.std::_Deque_iterator"* %__result}, metadata !1654), !dbg !1655
  %6 = bitcast %"struct.std::_Deque_iterator.0"* %1 to i8*, !dbg !1656
  %7 = bitcast %"struct.std::_Deque_iterator.0"* %__first to i8*, !dbg !1656
  call void @llvm.memcpy.p0i8.p0i8.i32(i8* %6, i8* %7, i32 16, i32 4, i1 false), !dbg !1656
  %8 = bitcast %"struct.std::_Deque_iterator.0"* %2 to i8*, !dbg !1656
  %9 = bitcast %"struct.std::_Deque_iterator.0"* %__last to i8*, !dbg !1656
  call void @llvm.memcpy.p0i8.p0i8.i32(i8* %8, i8* %9, i32 16, i32 4, i1 false), !dbg !1656
  %10 = call %"struct.std::_Deque_iterator"* @_ZNSt15_Deque_iteratorIdRdPdEC2ERKS2_(%"struct.std::_Deque_iterator"* %3, %"struct.std::_Deque_iterator"* dereferenceable(16) %__result), !dbg !1656
  %11 = bitcast %"struct.std::_Deque_iterator.0"* %1 to { [4 x i32] }*, !dbg !1656
  %12 = getelementptr { [4 x i32] }* %11, i32 0, i32 0, !dbg !1656
  %13 = load [4 x i32]* %12, align 1, !dbg !1656
  %14 = bitcast %"struct.std::_Deque_iterator.0"* %2 to { [4 x i32] }*, !dbg !1656
  %15 = getelementptr { [4 x i32] }* %14, i32 0, i32 0, !dbg !1656
  %16 = load [4 x i32]* %15, align 1, !dbg !1656
  call void @_ZSt4copyISt15_Deque_iteratorIdRKdPS1_ES0_IdRdPdEET0_T_S9_S8_(%"struct.std::_Deque_iterator"* sret %agg.result, [4 x i32] %13, [4 x i32] %16, %"struct.std::_Deque_iterator"* %3), !dbg !1656
  ret void, !dbg !1656
}

; Function Attrs: inlinehint
define linkonce_odr void @_ZSt4copyISt15_Deque_iteratorIdRKdPS1_ES0_IdRdPdEET0_T_S9_S8_(%"struct.std::_Deque_iterator"* noalias sret %agg.result, [4 x i32] %__first.coerce, [4 x i32] %__last.coerce, %"struct.std::_Deque_iterator"* %__result) #8 {
  %__first = alloca %"struct.std::_Deque_iterator.0", align 4
  %__last = alloca %"struct.std::_Deque_iterator.0", align 4
  %1 = alloca %"struct.std::_Deque_iterator.0", align 4
  %2 = alloca %"struct.std::_Deque_iterator.0", align 4
  %3 = alloca %"struct.std::_Deque_iterator.0", align 4
  %4 = alloca %"struct.std::_Deque_iterator.0", align 4
  %5 = alloca %"struct.std::_Deque_iterator", align 4
  %6 = bitcast %"struct.std::_Deque_iterator.0"* %__first to [4 x i32]*
  store [4 x i32] %__first.coerce, [4 x i32]* %6, align 1
  %7 = bitcast %"struct.std::_Deque_iterator.0"* %__last to [4 x i32]*
  store [4 x i32] %__last.coerce, [4 x i32]* %7, align 1
  call void @llvm.dbg.declare(metadata !{%"struct.std::_Deque_iterator.0"* %__first}, metadata !1657), !dbg !1658
  call void @llvm.dbg.declare(metadata !{%"struct.std::_Deque_iterator.0"* %__last}, metadata !1659), !dbg !1660
  call void @llvm.dbg.declare(metadata !{%"struct.std::_Deque_iterator"* %__result}, metadata !1661), !dbg !1662
  %8 = bitcast %"struct.std::_Deque_iterator.0"* %2 to i8*, !dbg !1663
  %9 = bitcast %"struct.std::_Deque_iterator.0"* %__first to i8*, !dbg !1663
  call void @llvm.memcpy.p0i8.p0i8.i32(i8* %8, i8* %9, i32 16, i32 4, i1 false), !dbg !1663
  %10 = bitcast %"struct.std::_Deque_iterator.0"* %2 to { [4 x i32] }*, !dbg !1663
  %11 = getelementptr { [4 x i32] }* %10, i32 0, i32 0, !dbg !1663
  %12 = load [4 x i32]* %11, align 1, !dbg !1663
  call void @_ZSt12__miter_baseISt15_Deque_iteratorIdRKdPS1_EENSt11_Miter_baseIT_E13iterator_typeES6_(%"struct.std::_Deque_iterator.0"* sret %1, [4 x i32] %12), !dbg !1663
  %13 = bitcast %"struct.std::_Deque_iterator.0"* %4 to i8*, !dbg !1664
  %14 = bitcast %"struct.std::_Deque_iterator.0"* %__last to i8*, !dbg !1664
  call void @llvm.memcpy.p0i8.p0i8.i32(i8* %13, i8* %14, i32 16, i32 4, i1 false), !dbg !1664
  %15 = bitcast %"struct.std::_Deque_iterator.0"* %4 to { [4 x i32] }*, !dbg !1664
  %16 = getelementptr { [4 x i32] }* %15, i32 0, i32 0, !dbg !1664
  %17 = load [4 x i32]* %16, align 1, !dbg !1664
  call void @_ZSt12__miter_baseISt15_Deque_iteratorIdRKdPS1_EENSt11_Miter_baseIT_E13iterator_typeES6_(%"struct.std::_Deque_iterator.0"* sret %3, [4 x i32] %17), !dbg !1664
  %18 = call %"struct.std::_Deque_iterator"* @_ZNSt15_Deque_iteratorIdRdPdEC2ERKS2_(%"struct.std::_Deque_iterator"* %5, %"struct.std::_Deque_iterator"* dereferenceable(16) %__result), !dbg !1665
  %19 = bitcast %"struct.std::_Deque_iterator.0"* %1 to { [4 x i32] }*, !dbg !1665
  %20 = getelementptr { [4 x i32] }* %19, i32 0, i32 0, !dbg !1665
  %21 = load [4 x i32]* %20, align 1, !dbg !1665
  %22 = bitcast %"struct.std::_Deque_iterator.0"* %3 to { [4 x i32] }*, !dbg !1665
  %23 = getelementptr { [4 x i32] }* %22, i32 0, i32 0, !dbg !1665
  %24 = load [4 x i32]* %23, align 1, !dbg !1665
  call void @_ZSt14__copy_move_a2ILb0ESt15_Deque_iteratorIdRKdPS1_ES0_IdRdPdEET1_T0_S9_S8_(%"struct.std::_Deque_iterator"* sret %agg.result, [4 x i32] %21, [4 x i32] %24, %"struct.std::_Deque_iterator"* %5), !dbg !1665
  ret void, !dbg !1665
}

; Function Attrs: inlinehint
define linkonce_odr void @_ZSt14__copy_move_a2ILb0ESt15_Deque_iteratorIdRKdPS1_ES0_IdRdPdEET1_T0_S9_S8_(%"struct.std::_Deque_iterator"* noalias sret %agg.result, [4 x i32] %__first.coerce, [4 x i32] %__last.coerce, %"struct.std::_Deque_iterator"* %__result) #8 {
  %__first = alloca %"struct.std::_Deque_iterator.0", align 4
  %__last = alloca %"struct.std::_Deque_iterator.0", align 4
  %1 = alloca %"struct.std::_Deque_iterator.0", align 4
  %2 = alloca %"struct.std::_Deque_iterator.0", align 4
  %3 = alloca %"struct.std::_Deque_iterator.0", align 4
  %4 = alloca %"struct.std::_Deque_iterator.0", align 4
  %5 = alloca %"struct.std::_Deque_iterator", align 4
  %6 = alloca %"struct.std::_Deque_iterator", align 4
  %7 = bitcast %"struct.std::_Deque_iterator.0"* %__first to [4 x i32]*
  store [4 x i32] %__first.coerce, [4 x i32]* %7, align 1
  %8 = bitcast %"struct.std::_Deque_iterator.0"* %__last to [4 x i32]*
  store [4 x i32] %__last.coerce, [4 x i32]* %8, align 1
  call void @llvm.dbg.declare(metadata !{%"struct.std::_Deque_iterator.0"* %__first}, metadata !1666), !dbg !1667
  call void @llvm.dbg.declare(metadata !{%"struct.std::_Deque_iterator.0"* %__last}, metadata !1668), !dbg !1669
  call void @llvm.dbg.declare(metadata !{%"struct.std::_Deque_iterator"* %__result}, metadata !1670), !dbg !1671
  %9 = bitcast %"struct.std::_Deque_iterator.0"* %2 to i8*, !dbg !1672
  %10 = bitcast %"struct.std::_Deque_iterator.0"* %__first to i8*, !dbg !1672
  call void @llvm.memcpy.p0i8.p0i8.i32(i8* %9, i8* %10, i32 16, i32 4, i1 false), !dbg !1672
  %11 = bitcast %"struct.std::_Deque_iterator.0"* %2 to { [4 x i32] }*, !dbg !1672
  %12 = getelementptr { [4 x i32] }* %11, i32 0, i32 0, !dbg !1672
  %13 = load [4 x i32]* %12, align 1, !dbg !1672
  call void @_ZSt12__niter_baseISt15_Deque_iteratorIdRKdPS1_EENSt11_Niter_baseIT_E13iterator_typeES6_(%"struct.std::_Deque_iterator.0"* sret %1, [4 x i32] %13), !dbg !1672
  %14 = bitcast %"struct.std::_Deque_iterator.0"* %4 to i8*, !dbg !1673
  %15 = bitcast %"struct.std::_Deque_iterator.0"* %__last to i8*, !dbg !1673
  call void @llvm.memcpy.p0i8.p0i8.i32(i8* %14, i8* %15, i32 16, i32 4, i1 false), !dbg !1673
  %16 = bitcast %"struct.std::_Deque_iterator.0"* %4 to { [4 x i32] }*, !dbg !1673
  %17 = getelementptr { [4 x i32] }* %16, i32 0, i32 0, !dbg !1673
  %18 = load [4 x i32]* %17, align 1, !dbg !1673
  call void @_ZSt12__niter_baseISt15_Deque_iteratorIdRKdPS1_EENSt11_Niter_baseIT_E13iterator_typeES6_(%"struct.std::_Deque_iterator.0"* sret %3, [4 x i32] %18), !dbg !1673
  %19 = call %"struct.std::_Deque_iterator"* @_ZNSt15_Deque_iteratorIdRdPdEC2ERKS2_(%"struct.std::_Deque_iterator"* %6, %"struct.std::_Deque_iterator"* dereferenceable(16) %__result), !dbg !1674
  call void @_ZSt12__niter_baseISt15_Deque_iteratorIdRdPdEENSt11_Niter_baseIT_E13iterator_typeES5_(%"struct.std::_Deque_iterator"* sret %5, %"struct.std::_Deque_iterator"* %6), !dbg !1674
  %20 = bitcast %"struct.std::_Deque_iterator.0"* %1 to { [4 x i32] }*, !dbg !1675
  %21 = getelementptr { [4 x i32] }* %20, i32 0, i32 0, !dbg !1675
  %22 = load [4 x i32]* %21, align 1, !dbg !1675
  %23 = bitcast %"struct.std::_Deque_iterator.0"* %3 to { [4 x i32] }*, !dbg !1675
  %24 = getelementptr { [4 x i32] }* %23, i32 0, i32 0, !dbg !1675
  %25 = load [4 x i32]* %24, align 1, !dbg !1675
  call void @_ZSt13__copy_move_aILb0ESt15_Deque_iteratorIdRKdPS1_ES0_IdRdPdEET1_T0_S9_S8_(%"struct.std::_Deque_iterator"* sret %agg.result, [4 x i32] %22, [4 x i32] %25, %"struct.std::_Deque_iterator"* %5), !dbg !1675
  ret void, !dbg !1675
}

; Function Attrs: inlinehint
define linkonce_odr void @_ZSt12__miter_baseISt15_Deque_iteratorIdRKdPS1_EENSt11_Miter_baseIT_E13iterator_typeES6_(%"struct.std::_Deque_iterator.0"* noalias sret %agg.result, [4 x i32] %__it.coerce) #8 {
  %__it = alloca %"struct.std::_Deque_iterator.0", align 4
  %1 = alloca %"struct.std::_Deque_iterator.0", align 4
  %2 = bitcast %"struct.std::_Deque_iterator.0"* %__it to [4 x i32]*
  store [4 x i32] %__it.coerce, [4 x i32]* %2, align 1
  call void @llvm.dbg.declare(metadata !{%"struct.std::_Deque_iterator.0"* %__it}, metadata !1676), !dbg !1677
  %3 = bitcast %"struct.std::_Deque_iterator.0"* %1 to i8*, !dbg !1678
  %4 = bitcast %"struct.std::_Deque_iterator.0"* %__it to i8*, !dbg !1678
  call void @llvm.memcpy.p0i8.p0i8.i32(i8* %3, i8* %4, i32 16, i32 4, i1 false), !dbg !1678
  %5 = bitcast %"struct.std::_Deque_iterator.0"* %1 to { [4 x i32] }*, !dbg !1678
  %6 = getelementptr { [4 x i32] }* %5, i32 0, i32 0, !dbg !1678
  %7 = load [4 x i32]* %6, align 1, !dbg !1678
  call void @_ZNSt10_Iter_baseISt15_Deque_iteratorIdRKdPS1_ELb0EE7_S_baseES4_(%"struct.std::_Deque_iterator.0"* sret %agg.result, [4 x i32] %7), !dbg !1678
  ret void, !dbg !1678
}

; Function Attrs: nounwind
define linkonce_odr void @_ZNSt10_Iter_baseISt15_Deque_iteratorIdRKdPS1_ELb0EE7_S_baseES4_(%"struct.std::_Deque_iterator.0"* noalias sret %agg.result, [4 x i32] %__it.coerce) #3 align 2 {
  %__it = alloca %"struct.std::_Deque_iterator.0", align 4
  %1 = bitcast %"struct.std::_Deque_iterator.0"* %__it to [4 x i32]*
  store [4 x i32] %__it.coerce, [4 x i32]* %1, align 1
  call void @llvm.dbg.declare(metadata !{%"struct.std::_Deque_iterator.0"* %__it}, metadata !1679), !dbg !1680
  %2 = bitcast %"struct.std::_Deque_iterator.0"* %agg.result to i8*, !dbg !1681
  %3 = bitcast %"struct.std::_Deque_iterator.0"* %__it to i8*, !dbg !1681
  call void @llvm.memcpy.p0i8.p0i8.i32(i8* %2, i8* %3, i32 16, i32 4, i1 false), !dbg !1681
  ret void, !dbg !1681
}

; Function Attrs: inlinehint
define linkonce_odr void @_ZSt13__copy_move_aILb0ESt15_Deque_iteratorIdRKdPS1_ES0_IdRdPdEET1_T0_S9_S8_(%"struct.std::_Deque_iterator"* noalias sret %agg.result, [4 x i32] %__first.coerce, [4 x i32] %__last.coerce, %"struct.std::_Deque_iterator"* %__result) #8 {
  %__first = alloca %"struct.std::_Deque_iterator.0", align 4
  %__last = alloca %"struct.std::_Deque_iterator.0", align 4
  %__simple = alloca i8, align 1
  %1 = alloca %"struct.std::_Deque_iterator.0", align 4
  %2 = alloca %"struct.std::_Deque_iterator.0", align 4
  %3 = alloca %"struct.std::_Deque_iterator", align 4
  %4 = bitcast %"struct.std::_Deque_iterator.0"* %__first to [4 x i32]*
  store [4 x i32] %__first.coerce, [4 x i32]* %4, align 1
  %5 = bitcast %"struct.std::_Deque_iterator.0"* %__last to [4 x i32]*
  store [4 x i32] %__last.coerce, [4 x i32]* %5, align 1
  call void @llvm.dbg.declare(metadata !{%"struct.std::_Deque_iterator.0"* %__first}, metadata !1682), !dbg !1683
  call void @llvm.dbg.declare(metadata !{%"struct.std::_Deque_iterator.0"* %__last}, metadata !1684), !dbg !1685
  call void @llvm.dbg.declare(metadata !{%"struct.std::_Deque_iterator"* %__result}, metadata !1686), !dbg !1687
  call void @llvm.dbg.declare(metadata !{i8* %__simple}, metadata !1688), !dbg !1689
  store i8 0, i8* %__simple, align 1, !dbg !1690
  %6 = bitcast %"struct.std::_Deque_iterator.0"* %1 to i8*, !dbg !1691
  %7 = bitcast %"struct.std::_Deque_iterator.0"* %__first to i8*, !dbg !1691
  call void @llvm.memcpy.p0i8.p0i8.i32(i8* %6, i8* %7, i32 16, i32 4, i1 false), !dbg !1691
  %8 = bitcast %"struct.std::_Deque_iterator.0"* %2 to i8*, !dbg !1691
  %9 = bitcast %"struct.std::_Deque_iterator.0"* %__last to i8*, !dbg !1691
  call void @llvm.memcpy.p0i8.p0i8.i32(i8* %8, i8* %9, i32 16, i32 4, i1 false), !dbg !1691
  %10 = call %"struct.std::_Deque_iterator"* @_ZNSt15_Deque_iteratorIdRdPdEC2ERKS2_(%"struct.std::_Deque_iterator"* %3, %"struct.std::_Deque_iterator"* dereferenceable(16) %__result), !dbg !1691
  %11 = bitcast %"struct.std::_Deque_iterator.0"* %1 to { [4 x i32] }*, !dbg !1691
  %12 = getelementptr { [4 x i32] }* %11, i32 0, i32 0, !dbg !1691
  %13 = load [4 x i32]* %12, align 1, !dbg !1691
  %14 = bitcast %"struct.std::_Deque_iterator.0"* %2 to { [4 x i32] }*, !dbg !1691
  %15 = getelementptr { [4 x i32] }* %14, i32 0, i32 0, !dbg !1691
  %16 = load [4 x i32]* %15, align 1, !dbg !1691
  call void @_ZNSt11__copy_moveILb0ELb0ESt26random_access_iterator_tagE8__copy_mISt15_Deque_iteratorIdRKdPS4_ES3_IdRdPdEEET0_T_SC_SB_(%"struct.std::_Deque_iterator"* sret %agg.result, [4 x i32] %13, [4 x i32] %16, %"struct.std::_Deque_iterator"* %3), !dbg !1691
  ret void, !dbg !1691
}

; Function Attrs: inlinehint nounwind
define linkonce_odr void @_ZSt12__niter_baseISt15_Deque_iteratorIdRKdPS1_EENSt11_Niter_baseIT_E13iterator_typeES6_(%"struct.std::_Deque_iterator.0"* noalias sret %agg.result, [4 x i32] %__it.coerce) #4 {
  %__it = alloca %"struct.std::_Deque_iterator.0", align 4
  %1 = alloca %"struct.std::_Deque_iterator.0", align 4
  %2 = bitcast %"struct.std::_Deque_iterator.0"* %__it to [4 x i32]*
  store [4 x i32] %__it.coerce, [4 x i32]* %2, align 1
  call void @llvm.dbg.declare(metadata !{%"struct.std::_Deque_iterator.0"* %__it}, metadata !1692), !dbg !1693
  %3 = bitcast %"struct.std::_Deque_iterator.0"* %1 to i8*, !dbg !1694
  %4 = bitcast %"struct.std::_Deque_iterator.0"* %__it to i8*, !dbg !1694
  call void @llvm.memcpy.p0i8.p0i8.i32(i8* %3, i8* %4, i32 16, i32 4, i1 false), !dbg !1694
  %5 = bitcast %"struct.std::_Deque_iterator.0"* %1 to { [4 x i32] }*, !dbg !1694
  %6 = getelementptr { [4 x i32] }* %5, i32 0, i32 0, !dbg !1694
  %7 = load [4 x i32]* %6, align 1, !dbg !1694
  call void @_ZNSt10_Iter_baseISt15_Deque_iteratorIdRKdPS1_ELb0EE7_S_baseES4_(%"struct.std::_Deque_iterator.0"* sret %agg.result, [4 x i32] %7), !dbg !1694
  ret void, !dbg !1694
}

; Function Attrs: inlinehint
define linkonce_odr void @_ZSt12__niter_baseISt15_Deque_iteratorIdRdPdEENSt11_Niter_baseIT_E13iterator_typeES5_(%"struct.std::_Deque_iterator"* noalias sret %agg.result, %"struct.std::_Deque_iterator"* %__it) #8 {
  %1 = alloca %"struct.std::_Deque_iterator", align 4
  call void @llvm.dbg.declare(metadata !{%"struct.std::_Deque_iterator"* %__it}, metadata !1695), !dbg !1696
  %2 = call %"struct.std::_Deque_iterator"* @_ZNSt15_Deque_iteratorIdRdPdEC2ERKS2_(%"struct.std::_Deque_iterator"* %1, %"struct.std::_Deque_iterator"* dereferenceable(16) %__it), !dbg !1697
  call void @_ZNSt10_Iter_baseISt15_Deque_iteratorIdRdPdELb0EE7_S_baseES3_(%"struct.std::_Deque_iterator"* sret %agg.result, %"struct.std::_Deque_iterator"* %1), !dbg !1697
  ret void, !dbg !1697
}

define linkonce_odr void @_ZNSt10_Iter_baseISt15_Deque_iteratorIdRdPdELb0EE7_S_baseES3_(%"struct.std::_Deque_iterator"* noalias sret %agg.result, %"struct.std::_Deque_iterator"* %__it) #0 align 2 {
  call void @llvm.dbg.declare(metadata !{%"struct.std::_Deque_iterator"* %__it}, metadata !1698), !dbg !1699
  %1 = call %"struct.std::_Deque_iterator"* @_ZNSt15_Deque_iteratorIdRdPdEC2ERKS2_(%"struct.std::_Deque_iterator"* %agg.result, %"struct.std::_Deque_iterator"* dereferenceable(16) %__it), !dbg !1700
  ret void, !dbg !1700
}

define linkonce_odr void @_ZNSt11__copy_moveILb0ELb0ESt26random_access_iterator_tagE8__copy_mISt15_Deque_iteratorIdRKdPS4_ES3_IdRdPdEEET0_T_SC_SB_(%"struct.std::_Deque_iterator"* noalias sret %agg.result, [4 x i32] %__first.coerce, [4 x i32] %__last.coerce, %"struct.std::_Deque_iterator"* %__result) #0 align 2 {
  %__first = alloca %"struct.std::_Deque_iterator.0", align 4
  %__last = alloca %"struct.std::_Deque_iterator.0", align 4
  %__n = alloca i32, align 4
  %1 = bitcast %"struct.std::_Deque_iterator.0"* %__first to [4 x i32]*
  store [4 x i32] %__first.coerce, [4 x i32]* %1, align 1
  %2 = bitcast %"struct.std::_Deque_iterator.0"* %__last to [4 x i32]*
  store [4 x i32] %__last.coerce, [4 x i32]* %2, align 1
  call void @llvm.dbg.declare(metadata !{%"struct.std::_Deque_iterator.0"* %__first}, metadata !1701), !dbg !1702
  call void @llvm.dbg.declare(metadata !{%"struct.std::_Deque_iterator.0"* %__last}, metadata !1703), !dbg !1704
  call void @llvm.dbg.declare(metadata !{%"struct.std::_Deque_iterator"* %__result}, metadata !1705), !dbg !1706
  call void @llvm.dbg.declare(metadata !{i32* %__n}, metadata !1707), !dbg !1711
  %3 = call i32 @_ZStmiIdRKdPS0_ENSt15_Deque_iteratorIT_T0_T1_E15difference_typeERKS7_SA_(%"struct.std::_Deque_iterator.0"* dereferenceable(16) %__last, %"struct.std::_Deque_iterator.0"* dereferenceable(16) %__first), !dbg !1712
  store i32 %3, i32* %__n, align 4, !dbg !1712
  br label %4, !dbg !1712

; <label>:4                                       ; preds = %13, %0
  %5 = load i32* %__n, align 4, !dbg !1713
  %6 = icmp sgt i32 %5, 0, !dbg !1713
  br i1 %6, label %7, label %16, !dbg !1713

; <label>:7                                       ; preds = %4
  %8 = call dereferenceable(8) double* @_ZNKSt15_Deque_iteratorIdRKdPS0_EdeEv(%"struct.std::_Deque_iterator.0"* %__first), !dbg !1716
  %9 = load double* %8, !dbg !1716
  %10 = call dereferenceable(8) double* @_ZNKSt15_Deque_iteratorIdRdPdEdeEv(%"struct.std::_Deque_iterator"* %__result), !dbg !1718
  store double %9, double* %10, !dbg !1718
  %11 = call dereferenceable(16) %"struct.std::_Deque_iterator.0"* @_ZNSt15_Deque_iteratorIdRKdPS0_EppEv(%"struct.std::_Deque_iterator.0"* %__first), !dbg !1719
  %12 = call dereferenceable(16) %"struct.std::_Deque_iterator"* @_ZNSt15_Deque_iteratorIdRdPdEppEv(%"struct.std::_Deque_iterator"* %__result), !dbg !1720
  br label %13, !dbg !1721

; <label>:13                                      ; preds = %7
  %14 = load i32* %__n, align 4, !dbg !1722
  %15 = add nsw i32 %14, -1, !dbg !1722
  store i32 %15, i32* %__n, align 4, !dbg !1722
  br label %4, !dbg !1722

; <label>:16                                      ; preds = %4
  %17 = call %"struct.std::_Deque_iterator"* @_ZNSt15_Deque_iteratorIdRdPdEC2ERKS2_(%"struct.std::_Deque_iterator"* %agg.result, %"struct.std::_Deque_iterator"* dereferenceable(16) %__result), !dbg !1723
  ret void, !dbg !1723
}

; Function Attrs: inlinehint
define linkonce_odr i32 @_ZStmiIdRKdPS0_ENSt15_Deque_iteratorIT_T0_T1_E15difference_typeERKS7_SA_(%"struct.std::_Deque_iterator.0"* dereferenceable(16) %__x, %"struct.std::_Deque_iterator.0"* dereferenceable(16) %__y) #8 {
  %1 = alloca %"struct.std::_Deque_iterator.0"*, align 4
  %2 = alloca %"struct.std::_Deque_iterator.0"*, align 4
  store %"struct.std::_Deque_iterator.0"* %__x, %"struct.std::_Deque_iterator.0"** %1, align 4
  call void @llvm.dbg.declare(metadata !{%"struct.std::_Deque_iterator.0"** %1}, metadata !1724), !dbg !1725
  store %"struct.std::_Deque_iterator.0"* %__y, %"struct.std::_Deque_iterator.0"** %2, align 4
  call void @llvm.dbg.declare(metadata !{%"struct.std::_Deque_iterator.0"** %2}, metadata !1726), !dbg !1727
  %3 = call i32 @_ZNSt15_Deque_iteratorIdRKdPS0_E14_S_buffer_sizeEv(), !dbg !1728
  %4 = load %"struct.std::_Deque_iterator.0"** %1, align 4, !dbg !1728
  %5 = getelementptr inbounds %"struct.std::_Deque_iterator.0"* %4, i32 0, i32 3, !dbg !1728
  %6 = load double*** %5, align 4, !dbg !1728
  %7 = load %"struct.std::_Deque_iterator.0"** %2, align 4, !dbg !1728
  %8 = getelementptr inbounds %"struct.std::_Deque_iterator.0"* %7, i32 0, i32 3, !dbg !1728
  %9 = load double*** %8, align 4, !dbg !1728
  %10 = ptrtoint double** %6 to i32, !dbg !1728
  %11 = ptrtoint double** %9 to i32, !dbg !1728
  %12 = sub i32 %10, %11, !dbg !1728
  %13 = sdiv exact i32 %12, 4, !dbg !1728
  %14 = sub nsw i32 %13, 1, !dbg !1728
  %15 = mul nsw i32 %3, %14, !dbg !1728
  %16 = load %"struct.std::_Deque_iterator.0"** %1, align 4, !dbg !1728
  %17 = getelementptr inbounds %"struct.std::_Deque_iterator.0"* %16, i32 0, i32 0, !dbg !1728
  %18 = load double** %17, align 4, !dbg !1728
  %19 = load %"struct.std::_Deque_iterator.0"** %1, align 4, !dbg !1728
  %20 = getelementptr inbounds %"struct.std::_Deque_iterator.0"* %19, i32 0, i32 1, !dbg !1728
  %21 = load double** %20, align 4, !dbg !1728
  %22 = ptrtoint double* %18 to i32, !dbg !1728
  %23 = ptrtoint double* %21 to i32, !dbg !1728
  %24 = sub i32 %22, %23, !dbg !1728
  %25 = sdiv exact i32 %24, 8, !dbg !1728
  %26 = add nsw i32 %15, %25, !dbg !1728
  %27 = load %"struct.std::_Deque_iterator.0"** %2, align 4, !dbg !1728
  %28 = getelementptr inbounds %"struct.std::_Deque_iterator.0"* %27, i32 0, i32 2, !dbg !1728
  %29 = load double** %28, align 4, !dbg !1728
  %30 = load %"struct.std::_Deque_iterator.0"** %2, align 4, !dbg !1728
  %31 = getelementptr inbounds %"struct.std::_Deque_iterator.0"* %30, i32 0, i32 0, !dbg !1728
  %32 = load double** %31, align 4, !dbg !1728
  %33 = ptrtoint double* %29 to i32, !dbg !1728
  %34 = ptrtoint double* %32 to i32, !dbg !1728
  %35 = sub i32 %33, %34, !dbg !1728
  %36 = sdiv exact i32 %35, 8, !dbg !1728
  %37 = add nsw i32 %26, %36, !dbg !1728
  ret i32 %37, !dbg !1728
}

define linkonce_odr dereferenceable(16) %"struct.std::_Deque_iterator.0"* @_ZNSt15_Deque_iteratorIdRKdPS0_EppEv(%"struct.std::_Deque_iterator.0"* %this) #0 align 2 {
  %1 = alloca %"struct.std::_Deque_iterator.0"*, align 4
  store %"struct.std::_Deque_iterator.0"* %this, %"struct.std::_Deque_iterator.0"** %1, align 4
  call void @llvm.dbg.declare(metadata !{%"struct.std::_Deque_iterator.0"** %1}, metadata !1729), !dbg !1730
  %2 = load %"struct.std::_Deque_iterator.0"** %1
  %3 = getelementptr inbounds %"struct.std::_Deque_iterator.0"* %2, i32 0, i32 0, !dbg !1731
  %4 = load double** %3, align 4, !dbg !1731
  %5 = getelementptr inbounds double* %4, i32 1, !dbg !1731
  store double* %5, double** %3, align 4, !dbg !1731
  %6 = getelementptr inbounds %"struct.std::_Deque_iterator.0"* %2, i32 0, i32 0, !dbg !1732
  %7 = load double** %6, align 4, !dbg !1732
  %8 = getelementptr inbounds %"struct.std::_Deque_iterator.0"* %2, i32 0, i32 2, !dbg !1732
  %9 = load double** %8, align 4, !dbg !1732
  %10 = icmp eq double* %7, %9, !dbg !1732
  br i1 %10, label %11, label %18, !dbg !1732

; <label>:11                                      ; preds = %0
  %12 = getelementptr inbounds %"struct.std::_Deque_iterator.0"* %2, i32 0, i32 3, !dbg !1734
  %13 = load double*** %12, align 4, !dbg !1734
  %14 = getelementptr inbounds double** %13, i32 1, !dbg !1734
  call void @_ZNSt15_Deque_iteratorIdRKdPS0_E11_M_set_nodeEPPd(%"struct.std::_Deque_iterator.0"* %2, double** %14), !dbg !1734
  %15 = getelementptr inbounds %"struct.std::_Deque_iterator.0"* %2, i32 0, i32 1, !dbg !1736
  %16 = load double** %15, align 4, !dbg !1736
  %17 = getelementptr inbounds %"struct.std::_Deque_iterator.0"* %2, i32 0, i32 0, !dbg !1736
  store double* %16, double** %17, align 4, !dbg !1736
  br label %18, !dbg !1737

; <label>:18                                      ; preds = %11, %0
  ret %"struct.std::_Deque_iterator.0"* %2, !dbg !1738
}

define linkonce_odr dereferenceable(16) %"struct.std::_Deque_iterator"* @_ZNSt15_Deque_iteratorIdRdPdEppEv(%"struct.std::_Deque_iterator"* %this) #0 align 2 {
  %1 = alloca %"struct.std::_Deque_iterator"*, align 4
  store %"struct.std::_Deque_iterator"* %this, %"struct.std::_Deque_iterator"** %1, align 4
  call void @llvm.dbg.declare(metadata !{%"struct.std::_Deque_iterator"** %1}, metadata !1739), !dbg !1740
  %2 = load %"struct.std::_Deque_iterator"** %1
  %3 = getelementptr inbounds %"struct.std::_Deque_iterator"* %2, i32 0, i32 0, !dbg !1741
  %4 = load double** %3, align 4, !dbg !1741
  %5 = getelementptr inbounds double* %4, i32 1, !dbg !1741
  store double* %5, double** %3, align 4, !dbg !1741
  %6 = getelementptr inbounds %"struct.std::_Deque_iterator"* %2, i32 0, i32 0, !dbg !1742
  %7 = load double** %6, align 4, !dbg !1742
  %8 = getelementptr inbounds %"struct.std::_Deque_iterator"* %2, i32 0, i32 2, !dbg !1742
  %9 = load double** %8, align 4, !dbg !1742
  %10 = icmp eq double* %7, %9, !dbg !1742
  br i1 %10, label %11, label %18, !dbg !1742

; <label>:11                                      ; preds = %0
  %12 = getelementptr inbounds %"struct.std::_Deque_iterator"* %2, i32 0, i32 3, !dbg !1744
  %13 = load double*** %12, align 4, !dbg !1744
  %14 = getelementptr inbounds double** %13, i32 1, !dbg !1744
  call void @_ZNSt15_Deque_iteratorIdRdPdE11_M_set_nodeEPS1_(%"struct.std::_Deque_iterator"* %2, double** %14), !dbg !1744
  %15 = getelementptr inbounds %"struct.std::_Deque_iterator"* %2, i32 0, i32 1, !dbg !1746
  %16 = load double** %15, align 4, !dbg !1746
  %17 = getelementptr inbounds %"struct.std::_Deque_iterator"* %2, i32 0, i32 0, !dbg !1746
  store double* %16, double** %17, align 4, !dbg !1746
  br label %18, !dbg !1747

; <label>:18                                      ; preds = %11, %0
  ret %"struct.std::_Deque_iterator"* %2, !dbg !1748
}

define linkonce_odr %"struct.std::_Deque_base<double, std::allocator<double> >::_Deque_impl"* @_ZNSt11_Deque_baseIdSaIdEE11_Deque_implC2ERKS0_(%"struct.std::_Deque_base<double, std::allocator<double> >::_Deque_impl"* returned %this, %"class.std::allocator"* dereferenceable(1) %__a) unnamed_addr #0 align 2 {
  %1 = alloca %"struct.std::_Deque_base<double, std::allocator<double> >::_Deque_impl"*, align 4
  %2 = alloca %"class.std::allocator"*, align 4
  %3 = alloca i8*
  %4 = alloca i32
  store %"struct.std::_Deque_base<double, std::allocator<double> >::_Deque_impl"* %this, %"struct.std::_Deque_base<double, std::allocator<double> >::_Deque_impl"** %1, align 4
  call void @llvm.dbg.declare(metadata !{%"struct.std::_Deque_base<double, std::allocator<double> >::_Deque_impl"** %1}, metadata !1749), !dbg !1750
  store %"class.std::allocator"* %__a, %"class.std::allocator"** %2, align 4
  call void @llvm.dbg.declare(metadata !{%"class.std::allocator"** %2}, metadata !1751), !dbg !1752
  %5 = load %"struct.std::_Deque_base<double, std::allocator<double> >::_Deque_impl"** %1
  %6 = bitcast %"struct.std::_Deque_base<double, std::allocator<double> >::_Deque_impl"* %5 to %"class.std::allocator"*, !dbg !1753
  %7 = load %"class.std::allocator"** %2, align 4, !dbg !1753
  %8 = call %"class.std::allocator"* @_ZNSaIdEC2ERKS_(%"class.std::allocator"* %6, %"class.std::allocator"* dereferenceable(1) %7) #9, !dbg !1753
  %9 = getelementptr inbounds %"struct.std::_Deque_base<double, std::allocator<double> >::_Deque_impl"* %5, i32 0, i32 0, !dbg !1753
  store double** null, double*** %9, align 4, !dbg !1753
  %10 = getelementptr inbounds %"struct.std::_Deque_base<double, std::allocator<double> >::_Deque_impl"* %5, i32 0, i32 1, !dbg !1753
  store i32 0, i32* %10, align 4, !dbg !1753
  %11 = getelementptr inbounds %"struct.std::_Deque_base<double, std::allocator<double> >::_Deque_impl"* %5, i32 0, i32 2, !dbg !1753
  %12 = invoke %"struct.std::_Deque_iterator"* @_ZNSt15_Deque_iteratorIdRdPdEC2Ev(%"struct.std::_Deque_iterator"* %11)
          to label %13 unwind label %17, !dbg !1753

; <label>:13                                      ; preds = %0
  %14 = getelementptr inbounds %"struct.std::_Deque_base<double, std::allocator<double> >::_Deque_impl"* %5, i32 0, i32 3, !dbg !1754
  %15 = invoke %"struct.std::_Deque_iterator"* @_ZNSt15_Deque_iteratorIdRdPdEC2Ev(%"struct.std::_Deque_iterator"* %14)
          to label %16 unwind label %17, !dbg !1754

; <label>:16                                      ; preds = %13
  ret %"struct.std::_Deque_base<double, std::allocator<double> >::_Deque_impl"* %5, !dbg !1756

; <label>:17                                      ; preds = %13, %0
  %18 = landingpad { i8*, i32 } personality i8* bitcast (i32 (...)* @__gxx_personality_v0 to i8*)
          cleanup, !dbg !1758
  %19 = extractvalue { i8*, i32 } %18, 0, !dbg !1758
  store i8* %19, i8** %3, !dbg !1758
  %20 = extractvalue { i8*, i32 } %18, 1, !dbg !1758
  store i32 %20, i32* %4, !dbg !1758
  %21 = bitcast %"struct.std::_Deque_base<double, std::allocator<double> >::_Deque_impl"* %5 to %"class.std::allocator"*, !dbg !1758
  %22 = call %"class.std::allocator"* @_ZNSaIdED2Ev(%"class.std::allocator"* %21) #9, !dbg !1758
  br label %23, !dbg !1758

; <label>:23                                      ; preds = %17
  %24 = load i8** %3, !dbg !1761
  %25 = load i32* %4, !dbg !1761
  %26 = insertvalue { i8*, i32 } undef, i8* %24, 0, !dbg !1761
  %27 = insertvalue { i8*, i32 } %26, i32 %25, 1, !dbg !1761
  resume { i8*, i32 } %27, !dbg !1761
}

define linkonce_odr void @_ZNSt11_Deque_baseIdSaIdEE17_M_initialize_mapEj(%"class.std::_Deque_base"* %this, i32 %__num_elements) #0 align 2 {
  %1 = alloca %"class.std::_Deque_base"*, align 4
  %2 = alloca i32, align 4
  %__num_nodes = alloca i32, align 4
  %3 = alloca i32, align 4
  %4 = alloca i32, align 4
  %__nstart = alloca double**, align 4
  %__nfinish = alloca double**, align 4
  %5 = alloca i8*
  %6 = alloca i32
  store %"class.std::_Deque_base"* %this, %"class.std::_Deque_base"** %1, align 4
  call void @llvm.dbg.declare(metadata !{%"class.std::_Deque_base"** %1}, metadata !1763), !dbg !1764
  store i32 %__num_elements, i32* %2, align 4
  call void @llvm.dbg.declare(metadata !{i32* %2}, metadata !1765), !dbg !1766
  %7 = load %"class.std::_Deque_base"** %1
  call void @llvm.dbg.declare(metadata !{i32* %__num_nodes}, metadata !1767), !dbg !1769
  %8 = load i32* %2, align 4, !dbg !1770
  %9 = call i32 @_ZSt16__deque_buf_sizej(i32 8), !dbg !1771
  %10 = udiv i32 %8, %9, !dbg !1771
  %11 = add i32 %10, 1, !dbg !1771
  store i32 %11, i32* %__num_nodes, align 4, !dbg !1771
  store i32 8, i32* %3, !dbg !1772
  %12 = load i32* %__num_nodes, align 4, !dbg !1772
  %13 = add i32 %12, 2, !dbg !1772
  store i32 %13, i32* %4, !dbg !1772
  %14 = call dereferenceable(4) i32* @_ZSt3maxIjERKT_S2_S2_(i32* dereferenceable(4) %3, i32* dereferenceable(4) %4), !dbg !1772
  %15 = load i32* %14, !dbg !1772
  %16 = getelementptr inbounds %"class.std::_Deque_base"* %7, i32 0, i32 0, !dbg !1772
  %17 = getelementptr inbounds %"struct.std::_Deque_base<double, std::allocator<double> >::_Deque_impl"* %16, i32 0, i32 1, !dbg !1772
  store i32 %15, i32* %17, align 4, !dbg !1772
  %18 = getelementptr inbounds %"class.std::_Deque_base"* %7, i32 0, i32 0, !dbg !1773
  %19 = getelementptr inbounds %"struct.std::_Deque_base<double, std::allocator<double> >::_Deque_impl"* %18, i32 0, i32 1, !dbg !1773
  %20 = load i32* %19, align 4, !dbg !1773
  %21 = call double** @_ZNSt11_Deque_baseIdSaIdEE15_M_allocate_mapEj(%"class.std::_Deque_base"* %7, i32 %20), !dbg !1773
  %22 = getelementptr inbounds %"class.std::_Deque_base"* %7, i32 0, i32 0, !dbg !1773
  %23 = getelementptr inbounds %"struct.std::_Deque_base<double, std::allocator<double> >::_Deque_impl"* %22, i32 0, i32 0, !dbg !1773
  store double** %21, double*** %23, align 4, !dbg !1773
  call void @llvm.dbg.declare(metadata !{double*** %__nstart}, metadata !1774), !dbg !1775
  %24 = getelementptr inbounds %"class.std::_Deque_base"* %7, i32 0, i32 0, !dbg !1776
  %25 = getelementptr inbounds %"struct.std::_Deque_base<double, std::allocator<double> >::_Deque_impl"* %24, i32 0, i32 0, !dbg !1776
  %26 = load double*** %25, align 4, !dbg !1776
  %27 = getelementptr inbounds %"class.std::_Deque_base"* %7, i32 0, i32 0, !dbg !1776
  %28 = getelementptr inbounds %"struct.std::_Deque_base<double, std::allocator<double> >::_Deque_impl"* %27, i32 0, i32 1, !dbg !1776
  %29 = load i32* %28, align 4, !dbg !1776
  %30 = load i32* %__num_nodes, align 4, !dbg !1776
  %31 = sub i32 %29, %30, !dbg !1776
  %32 = udiv i32 %31, 2, !dbg !1776
  %33 = getelementptr inbounds double** %26, i32 %32, !dbg !1776
  store double** %33, double*** %__nstart, align 4, !dbg !1776
  call void @llvm.dbg.declare(metadata !{double*** %__nfinish}, metadata !1777), !dbg !1778
  %34 = load double*** %__nstart, align 4, !dbg !1779
  %35 = load i32* %__num_nodes, align 4, !dbg !1779
  %36 = getelementptr inbounds double** %34, i32 %35, !dbg !1779
  store double** %36, double*** %__nfinish, align 4, !dbg !1779
  %37 = load double*** %__nstart, align 4, !dbg !1780
  %38 = load double*** %__nfinish, align 4, !dbg !1780
  invoke void @_ZNSt11_Deque_baseIdSaIdEE15_M_create_nodesEPPdS3_(%"class.std::_Deque_base"* %7, double** %37, double** %38)
          to label %39 unwind label %40, !dbg !1780

; <label>:39                                      ; preds = %0
  br label %63, !dbg !1782

; <label>:40                                      ; preds = %0
  %41 = landingpad { i8*, i32 } personality i8* bitcast (i32 (...)* @__gxx_personality_v0 to i8*)
          catch i8* null, !dbg !1784
  %42 = extractvalue { i8*, i32 } %41, 0, !dbg !1784
  store i8* %42, i8** %5, !dbg !1784
  %43 = extractvalue { i8*, i32 } %41, 1, !dbg !1784
  store i32 %43, i32* %6, !dbg !1784
  br label %44, !dbg !1784

; <label>:44                                      ; preds = %40
  %45 = load i8** %5, !dbg !1785
  %46 = call i8* @__cxa_begin_catch(i8* %45) #9, !dbg !1785
  %47 = getelementptr inbounds %"class.std::_Deque_base"* %7, i32 0, i32 0, !dbg !1786
  %48 = getelementptr inbounds %"struct.std::_Deque_base<double, std::allocator<double> >::_Deque_impl"* %47, i32 0, i32 0, !dbg !1786
  %49 = load double*** %48, align 4, !dbg !1786
  %50 = getelementptr inbounds %"class.std::_Deque_base"* %7, i32 0, i32 0, !dbg !1786
  %51 = getelementptr inbounds %"struct.std::_Deque_base<double, std::allocator<double> >::_Deque_impl"* %50, i32 0, i32 1, !dbg !1786
  %52 = load i32* %51, align 4, !dbg !1786
  invoke void @_ZNSt11_Deque_baseIdSaIdEE17_M_deallocate_mapEPPdj(%"class.std::_Deque_base"* %7, double** %49, i32 %52)
          to label %53 unwind label %58, !dbg !1786

; <label>:53                                      ; preds = %44
  %54 = getelementptr inbounds %"class.std::_Deque_base"* %7, i32 0, i32 0, !dbg !1788
  %55 = getelementptr inbounds %"struct.std::_Deque_base<double, std::allocator<double> >::_Deque_impl"* %54, i32 0, i32 0, !dbg !1788
  store double** null, double*** %55, align 4, !dbg !1788
  %56 = getelementptr inbounds %"class.std::_Deque_base"* %7, i32 0, i32 0, !dbg !1789
  %57 = getelementptr inbounds %"struct.std::_Deque_base<double, std::allocator<double> >::_Deque_impl"* %56, i32 0, i32 1, !dbg !1789
  store i32 0, i32* %57, align 4, !dbg !1789
  invoke void @__cxa_rethrow() #11
          to label %97 unwind label %58, !dbg !1790

; <label>:58                                      ; preds = %53, %44
  %59 = landingpad { i8*, i32 } personality i8* bitcast (i32 (...)* @__gxx_personality_v0 to i8*)
          cleanup, !dbg !1791
  %60 = extractvalue { i8*, i32 } %59, 0, !dbg !1791
  store i8* %60, i8** %5, !dbg !1791
  %61 = extractvalue { i8*, i32 } %59, 1, !dbg !1791
  store i32 %61, i32* %6, !dbg !1791
  invoke void @__cxa_end_catch()
          to label %62 unwind label %94, !dbg !1792

; <label>:62                                      ; preds = %58
  br label %89, !dbg !1793

; <label>:63                                      ; preds = %39
  %64 = getelementptr inbounds %"class.std::_Deque_base"* %7, i32 0, i32 0, !dbg !1795
  %65 = getelementptr inbounds %"struct.std::_Deque_base<double, std::allocator<double> >::_Deque_impl"* %64, i32 0, i32 2, !dbg !1795
  %66 = load double*** %__nstart, align 4, !dbg !1795
  call void @_ZNSt15_Deque_iteratorIdRdPdE11_M_set_nodeEPS1_(%"struct.std::_Deque_iterator"* %65, double** %66), !dbg !1795
  %67 = getelementptr inbounds %"class.std::_Deque_base"* %7, i32 0, i32 0, !dbg !1796
  %68 = getelementptr inbounds %"struct.std::_Deque_base<double, std::allocator<double> >::_Deque_impl"* %67, i32 0, i32 3, !dbg !1796
  %69 = load double*** %__nfinish, align 4, !dbg !1796
  %70 = getelementptr inbounds double** %69, i32 -1, !dbg !1796
  call void @_ZNSt15_Deque_iteratorIdRdPdE11_M_set_nodeEPS1_(%"struct.std::_Deque_iterator"* %68, double** %70), !dbg !1796
  %71 = getelementptr inbounds %"class.std::_Deque_base"* %7, i32 0, i32 0, !dbg !1797
  %72 = getelementptr inbounds %"struct.std::_Deque_base<double, std::allocator<double> >::_Deque_impl"* %71, i32 0, i32 2, !dbg !1797
  %73 = getelementptr inbounds %"struct.std::_Deque_iterator"* %72, i32 0, i32 1, !dbg !1797
  %74 = load double** %73, align 4, !dbg !1797
  %75 = getelementptr inbounds %"class.std::_Deque_base"* %7, i32 0, i32 0, !dbg !1797
  %76 = getelementptr inbounds %"struct.std::_Deque_base<double, std::allocator<double> >::_Deque_impl"* %75, i32 0, i32 2, !dbg !1797
  %77 = getelementptr inbounds %"struct.std::_Deque_iterator"* %76, i32 0, i32 0, !dbg !1797
  store double* %74, double** %77, align 4, !dbg !1797
  %78 = getelementptr inbounds %"class.std::_Deque_base"* %7, i32 0, i32 0, !dbg !1798
  %79 = getelementptr inbounds %"struct.std::_Deque_base<double, std::allocator<double> >::_Deque_impl"* %78, i32 0, i32 3, !dbg !1798
  %80 = getelementptr inbounds %"struct.std::_Deque_iterator"* %79, i32 0, i32 1, !dbg !1798
  %81 = load double** %80, align 4, !dbg !1798
  %82 = load i32* %2, align 4, !dbg !1798
  %83 = call i32 @_ZSt16__deque_buf_sizej(i32 8), !dbg !1799
  %84 = urem i32 %82, %83, !dbg !1799
  %85 = getelementptr inbounds double* %81, i32 %84, !dbg !1799
  %86 = getelementptr inbounds %"class.std::_Deque_base"* %7, i32 0, i32 0, !dbg !1799
  %87 = getelementptr inbounds %"struct.std::_Deque_base<double, std::allocator<double> >::_Deque_impl"* %86, i32 0, i32 3, !dbg !1799
  %88 = getelementptr inbounds %"struct.std::_Deque_iterator"* %87, i32 0, i32 0, !dbg !1799
  store double* %85, double** %88, align 4, !dbg !1799
  ret void, !dbg !1792

; <label>:89                                      ; preds = %62
  %90 = load i8** %5, !dbg !1800
  %91 = load i32* %6, !dbg !1800
  %92 = insertvalue { i8*, i32 } undef, i8* %90, 0, !dbg !1800
  %93 = insertvalue { i8*, i32 } %92, i32 %91, 1, !dbg !1800
  resume { i8*, i32 } %93, !dbg !1800

; <label>:94                                      ; preds = %58
  %95 = landingpad { i8*, i32 } personality i8* bitcast (i32 (...)* @__gxx_personality_v0 to i8*)
          catch i8* null, !dbg !1802
  %96 = extractvalue { i8*, i32 } %95, 0, !dbg !1802
  call void @__clang_call_terminate(i8* %96) #10, !dbg !1802
  unreachable, !dbg !1802

; <label>:97                                      ; preds = %53
  unreachable
}

define linkonce_odr void @_ZNSt11_Deque_baseIdSaIdEE15_M_create_nodesEPPdS3_(%"class.std::_Deque_base"* %this, double** %__nstart, double** %__nfinish) #0 align 2 {
  %1 = alloca %"class.std::_Deque_base"*, align 4
  %2 = alloca double**, align 4
  %3 = alloca double**, align 4
  %__cur = alloca double**, align 4
  %4 = alloca i8*
  %5 = alloca i32
  store %"class.std::_Deque_base"* %this, %"class.std::_Deque_base"** %1, align 4
  call void @llvm.dbg.declare(metadata !{%"class.std::_Deque_base"** %1}, metadata !1804), !dbg !1805
  store double** %__nstart, double*** %2, align 4
  call void @llvm.dbg.declare(metadata !{double*** %2}, metadata !1806), !dbg !1807
  store double** %__nfinish, double*** %3, align 4
  call void @llvm.dbg.declare(metadata !{double*** %3}, metadata !1808), !dbg !1809
  %6 = load %"class.std::_Deque_base"** %1
  call void @llvm.dbg.declare(metadata !{double*** %__cur}, metadata !1810), !dbg !1811
  %7 = load double*** %2, align 4, !dbg !1812
  store double** %7, double*** %__cur, align 4, !dbg !1812
  br label %8, !dbg !1812

; <label>:8                                       ; preds = %16, %0
  %9 = load double*** %__cur, align 4, !dbg !1815
  %10 = load double*** %3, align 4, !dbg !1815
  %11 = icmp ult double** %9, %10, !dbg !1815
  br i1 %11, label %12, label %29, !dbg !1815

; <label>:12                                      ; preds = %8
  %13 = invoke double* @_ZNSt11_Deque_baseIdSaIdEE16_M_allocate_nodeEv(%"class.std::_Deque_base"* %6)
          to label %14 unwind label %19, !dbg !1818

; <label>:14                                      ; preds = %12
  %15 = load double*** %__cur, align 4, !dbg !1819
  store double* %13, double** %15, align 4, !dbg !1819
  br label %16, !dbg !1819

; <label>:16                                      ; preds = %14
  %17 = load double*** %__cur, align 4, !dbg !1821
  %18 = getelementptr inbounds double** %17, i32 1, !dbg !1821
  store double** %18, double*** %__cur, align 4, !dbg !1821
  br label %8, !dbg !1821

; <label>:19                                      ; preds = %12
  %20 = landingpad { i8*, i32 } personality i8* bitcast (i32 (...)* @__gxx_personality_v0 to i8*)
          catch i8* null, !dbg !1822
  %21 = extractvalue { i8*, i32 } %20, 0, !dbg !1822
  store i8* %21, i8** %4, !dbg !1822
  %22 = extractvalue { i8*, i32 } %20, 1, !dbg !1822
  store i32 %22, i32* %5, !dbg !1822
  br label %23, !dbg !1822

; <label>:23                                      ; preds = %19
  %24 = load i8** %4, !dbg !1823
  %25 = call i8* @__cxa_begin_catch(i8* %24) #9, !dbg !1823
  %26 = load double*** %2, align 4, !dbg !1824
  %27 = load double*** %__cur, align 4, !dbg !1824
  invoke void @_ZNSt11_Deque_baseIdSaIdEE16_M_destroy_nodesEPPdS3_(%"class.std::_Deque_base"* %6, double** %26, double** %27)
          to label %28 unwind label %30, !dbg !1824

; <label>:28                                      ; preds = %23
  invoke void @__cxa_rethrow() #11
          to label %44 unwind label %30, !dbg !1826

; <label>:29                                      ; preds = %8
  br label %35, !dbg !1823

; <label>:30                                      ; preds = %28, %23
  %31 = landingpad { i8*, i32 } personality i8* bitcast (i32 (...)* @__gxx_personality_v0 to i8*)
          cleanup, !dbg !1827
  %32 = extractvalue { i8*, i32 } %31, 0, !dbg !1827
  store i8* %32, i8** %4, !dbg !1827
  %33 = extractvalue { i8*, i32 } %31, 1, !dbg !1827
  store i32 %33, i32* %5, !dbg !1827
  invoke void @__cxa_end_catch()
          to label %34 unwind label %41, !dbg !1828

; <label>:34                                      ; preds = %30
  br label %36, !dbg !1829

; <label>:35                                      ; preds = %29
  ret void, !dbg !1828

; <label>:36                                      ; preds = %34
  %37 = load i8** %4, !dbg !1831
  %38 = load i32* %5, !dbg !1831
  %39 = insertvalue { i8*, i32 } undef, i8* %37, 0, !dbg !1831
  %40 = insertvalue { i8*, i32 } %39, i32 %38, 1, !dbg !1831
  resume { i8*, i32 } %40, !dbg !1831

; <label>:41                                      ; preds = %30
  %42 = landingpad { i8*, i32 } personality i8* bitcast (i32 (...)* @__gxx_personality_v0 to i8*)
          catch i8* null, !dbg !1833
  %43 = extractvalue { i8*, i32 } %42, 0, !dbg !1833
  call void @__clang_call_terminate(i8* %43) #10, !dbg !1833
  unreachable, !dbg !1833

; <label>:44                                      ; preds = %28
  unreachable
}

; Function Attrs: nounwind
define linkonce_odr %"class.std::allocator"* @_ZNSaIdEC2ERKS_(%"class.std::allocator"* returned %this, %"class.std::allocator"* dereferenceable(1) %__a) unnamed_addr #3 align 2 {
  %1 = alloca %"class.std::allocator"*, align 4
  %2 = alloca %"class.std::allocator"*, align 4
  store %"class.std::allocator"* %this, %"class.std::allocator"** %1, align 4
  call void @llvm.dbg.declare(metadata !{%"class.std::allocator"** %1}, metadata !1835), !dbg !1836
  store %"class.std::allocator"* %__a, %"class.std::allocator"** %2, align 4
  call void @llvm.dbg.declare(metadata !{%"class.std::allocator"** %2}, metadata !1837), !dbg !1838
  %3 = load %"class.std::allocator"** %1
  %4 = bitcast %"class.std::allocator"* %3 to %"class.__gnu_cxx::new_allocator"*, !dbg !1839
  %5 = load %"class.std::allocator"** %2, align 4, !dbg !1839
  %6 = bitcast %"class.std::allocator"* %5 to %"class.__gnu_cxx::new_allocator"*, !dbg !1839
  %7 = call %"class.__gnu_cxx::new_allocator"* @_ZN9__gnu_cxx13new_allocatorIdEC2ERKS1_(%"class.__gnu_cxx::new_allocator"* %4, %"class.__gnu_cxx::new_allocator"* dereferenceable(1) %6) #9, !dbg !1839
  ret %"class.std::allocator"* %3, !dbg !1840
}

; Function Attrs: nounwind
define linkonce_odr %"struct.std::_Deque_iterator"* @_ZNSt15_Deque_iteratorIdRdPdEC2Ev(%"struct.std::_Deque_iterator"* returned %this) unnamed_addr #3 align 2 {
  %1 = alloca %"struct.std::_Deque_iterator"*, align 4
  store %"struct.std::_Deque_iterator"* %this, %"struct.std::_Deque_iterator"** %1, align 4
  call void @llvm.dbg.declare(metadata !{%"struct.std::_Deque_iterator"** %1}, metadata !1841), !dbg !1842
  %2 = load %"struct.std::_Deque_iterator"** %1
  %3 = getelementptr inbounds %"struct.std::_Deque_iterator"* %2, i32 0, i32 0, !dbg !1843
  store double* null, double** %3, align 4, !dbg !1843
  %4 = getelementptr inbounds %"struct.std::_Deque_iterator"* %2, i32 0, i32 1, !dbg !1843
  store double* null, double** %4, align 4, !dbg !1843
  %5 = getelementptr inbounds %"struct.std::_Deque_iterator"* %2, i32 0, i32 2, !dbg !1843
  store double* null, double** %5, align 4, !dbg !1843
  %6 = getelementptr inbounds %"struct.std::_Deque_iterator"* %2, i32 0, i32 3, !dbg !1843
  store double** null, double*** %6, align 4, !dbg !1843
  ret %"struct.std::_Deque_iterator"* %2, !dbg !1844
}

; Function Attrs: nounwind
define linkonce_odr %"class.__gnu_cxx::new_allocator"* @_ZN9__gnu_cxx13new_allocatorIdEC2ERKS1_(%"class.__gnu_cxx::new_allocator"* returned %this, %"class.__gnu_cxx::new_allocator"* dereferenceable(1)) unnamed_addr #3 align 2 {
  %2 = alloca %"class.__gnu_cxx::new_allocator"*, align 4
  %3 = alloca %"class.__gnu_cxx::new_allocator"*, align 4
  store %"class.__gnu_cxx::new_allocator"* %this, %"class.__gnu_cxx::new_allocator"** %2, align 4
  call void @llvm.dbg.declare(metadata !{%"class.__gnu_cxx::new_allocator"** %2}, metadata !1845), !dbg !1846
  store %"class.__gnu_cxx::new_allocator"* %0, %"class.__gnu_cxx::new_allocator"** %3, align 4
  call void @llvm.dbg.declare(metadata !{%"class.__gnu_cxx::new_allocator"** %3}, metadata !1847), !dbg !1848
  %4 = load %"class.__gnu_cxx::new_allocator"** %2
  ret %"class.__gnu_cxx::new_allocator"* %4, !dbg !1849
}

; Function Attrs: nounwind
define linkonce_odr void @_ZNSt5dequeIdSaIdEE15_M_destroy_dataESt15_Deque_iteratorIdRdPdES5_RKS0_(%"class.std::deque"* %this, %"struct.std::_Deque_iterator"* %__first, %"struct.std::_Deque_iterator"* %__last, %"class.std::allocator"* dereferenceable(1)) #3 align 2 {
  %2 = alloca %"class.std::deque"*, align 4
  %3 = alloca %"class.std::allocator"*, align 4
  store %"class.std::deque"* %this, %"class.std::deque"** %2, align 4
  call void @llvm.dbg.declare(metadata !{%"class.std::deque"** %2}, metadata !1850), !dbg !1851
  call void @llvm.dbg.declare(metadata !{%"struct.std::_Deque_iterator"* %__first}, metadata !1852), !dbg !1853
  call void @llvm.dbg.declare(metadata !{%"struct.std::_Deque_iterator"* %__last}, metadata !1854), !dbg !1855
  store %"class.std::allocator"* %0, %"class.std::allocator"** %3, align 4
  call void @llvm.dbg.declare(metadata !{%"class.std::allocator"** %3}, metadata !1856), !dbg !1857
  %4 = load %"class.std::deque"** %2
  ret void, !dbg !1858
}

define linkonce_odr void @_ZNSt5dequeIdSaIdEE3endEv(%"struct.std::_Deque_iterator"* noalias sret %agg.result, %"class.std::deque"* %this) #0 align 2 {
  %1 = alloca %"class.std::deque"*, align 4
  store %"class.std::deque"* %this, %"class.std::deque"** %1, align 4
  call void @llvm.dbg.declare(metadata !{%"class.std::deque"** %1}, metadata !1859), !dbg !1860
  %2 = load %"class.std::deque"** %1
  %3 = bitcast %"class.std::deque"* %2 to %"class.std::_Deque_base"*, !dbg !1861
  %4 = getelementptr inbounds %"class.std::_Deque_base"* %3, i32 0, i32 0, !dbg !1861
  %5 = getelementptr inbounds %"struct.std::_Deque_base<double, std::allocator<double> >::_Deque_impl"* %4, i32 0, i32 3, !dbg !1861
  %6 = call %"struct.std::_Deque_iterator"* @_ZNSt15_Deque_iteratorIdRdPdEC2ERKS2_(%"struct.std::_Deque_iterator"* %agg.result, %"struct.std::_Deque_iterator"* dereferenceable(16) %5), !dbg !1861
  ret void, !dbg !1861
}

define linkonce_odr %"class.std::_Deque_base"* @_ZNSt11_Deque_baseIdSaIdEEC2Ev(%"class.std::_Deque_base"* returned %this) unnamed_addr #0 align 2 {
  %1 = alloca %"class.std::_Deque_base"*, align 4
  %2 = alloca i8*
  %3 = alloca i32
  store %"class.std::_Deque_base"* %this, %"class.std::_Deque_base"** %1, align 4
  call void @llvm.dbg.declare(metadata !{%"class.std::_Deque_base"** %1}, metadata !1862), !dbg !1863
  %4 = load %"class.std::_Deque_base"** %1
  %5 = getelementptr inbounds %"class.std::_Deque_base"* %4, i32 0, i32 0, !dbg !1864
  %6 = call %"struct.std::_Deque_base<double, std::allocator<double> >::_Deque_impl"* @_ZNSt11_Deque_baseIdSaIdEE11_Deque_implC2Ev(%"struct.std::_Deque_base<double, std::allocator<double> >::_Deque_impl"* %5), !dbg !1864
  invoke void @_ZNSt11_Deque_baseIdSaIdEE17_M_initialize_mapEj(%"class.std::_Deque_base"* %4, i32 0)
          to label %7 unwind label %8, !dbg !1865

; <label>:7                                       ; preds = %0
  ret %"class.std::_Deque_base"* %4, !dbg !1867

; <label>:8                                       ; preds = %0
  %9 = landingpad { i8*, i32 } personality i8* bitcast (i32 (...)* @__gxx_personality_v0 to i8*)
          cleanup, !dbg !1869
  %10 = extractvalue { i8*, i32 } %9, 0, !dbg !1869
  store i8* %10, i8** %2, !dbg !1869
  %11 = extractvalue { i8*, i32 } %9, 1, !dbg !1869
  store i32 %11, i32* %3, !dbg !1869
  %12 = call %"struct.std::_Deque_base<double, std::allocator<double> >::_Deque_impl"* @_ZNSt11_Deque_baseIdSaIdEE11_Deque_implD2Ev(%"struct.std::_Deque_base<double, std::allocator<double> >::_Deque_impl"* %5) #9, !dbg !1871
  br label %13, !dbg !1871

; <label>:13                                      ; preds = %8
  %14 = load i8** %2, !dbg !1872
  %15 = load i32* %3, !dbg !1872
  %16 = insertvalue { i8*, i32 } undef, i8* %14, 0, !dbg !1872
  %17 = insertvalue { i8*, i32 } %16, i32 %15, 1, !dbg !1872
  resume { i8*, i32 } %17, !dbg !1872
}

define linkonce_odr %"struct.std::_Deque_base<double, std::allocator<double> >::_Deque_impl"* @_ZNSt11_Deque_baseIdSaIdEE11_Deque_implC2Ev(%"struct.std::_Deque_base<double, std::allocator<double> >::_Deque_impl"* returned %this) unnamed_addr #0 align 2 {
  %1 = alloca %"struct.std::_Deque_base<double, std::allocator<double> >::_Deque_impl"*, align 4
  %2 = alloca i8*
  %3 = alloca i32
  store %"struct.std::_Deque_base<double, std::allocator<double> >::_Deque_impl"* %this, %"struct.std::_Deque_base<double, std::allocator<double> >::_Deque_impl"** %1, align 4
  call void @llvm.dbg.declare(metadata !{%"struct.std::_Deque_base<double, std::allocator<double> >::_Deque_impl"** %1}, metadata !1874), !dbg !1875
  %4 = load %"struct.std::_Deque_base<double, std::allocator<double> >::_Deque_impl"** %1
  %5 = bitcast %"struct.std::_Deque_base<double, std::allocator<double> >::_Deque_impl"* %4 to %"class.std::allocator"*, !dbg !1876
  %6 = call %"class.std::allocator"* @_ZNSaIdEC2Ev(%"class.std::allocator"* %5) #9, !dbg !1876
  %7 = getelementptr inbounds %"struct.std::_Deque_base<double, std::allocator<double> >::_Deque_impl"* %4, i32 0, i32 0, !dbg !1876
  store double** null, double*** %7, align 4, !dbg !1876
  %8 = getelementptr inbounds %"struct.std::_Deque_base<double, std::allocator<double> >::_Deque_impl"* %4, i32 0, i32 1, !dbg !1876
  store i32 0, i32* %8, align 4, !dbg !1876
  %9 = getelementptr inbounds %"struct.std::_Deque_base<double, std::allocator<double> >::_Deque_impl"* %4, i32 0, i32 2, !dbg !1876
  %10 = invoke %"struct.std::_Deque_iterator"* @_ZNSt15_Deque_iteratorIdRdPdEC2Ev(%"struct.std::_Deque_iterator"* %9)
          to label %11 unwind label %15, !dbg !1876

; <label>:11                                      ; preds = %0
  %12 = getelementptr inbounds %"struct.std::_Deque_base<double, std::allocator<double> >::_Deque_impl"* %4, i32 0, i32 3, !dbg !1877
  %13 = invoke %"struct.std::_Deque_iterator"* @_ZNSt15_Deque_iteratorIdRdPdEC2Ev(%"struct.std::_Deque_iterator"* %12)
          to label %14 unwind label %15, !dbg !1877

; <label>:14                                      ; preds = %11
  ret %"struct.std::_Deque_base<double, std::allocator<double> >::_Deque_impl"* %4, !dbg !1879

; <label>:15                                      ; preds = %11, %0
  %16 = landingpad { i8*, i32 } personality i8* bitcast (i32 (...)* @__gxx_personality_v0 to i8*)
          cleanup, !dbg !1881
  %17 = extractvalue { i8*, i32 } %16, 0, !dbg !1881
  store i8* %17, i8** %2, !dbg !1881
  %18 = extractvalue { i8*, i32 } %16, 1, !dbg !1881
  store i32 %18, i32* %3, !dbg !1881
  %19 = bitcast %"struct.std::_Deque_base<double, std::allocator<double> >::_Deque_impl"* %4 to %"class.std::allocator"*, !dbg !1881
  %20 = call %"class.std::allocator"* @_ZNSaIdED2Ev(%"class.std::allocator"* %19) #9, !dbg !1881
  br label %21, !dbg !1881

; <label>:21                                      ; preds = %15
  %22 = load i8** %2, !dbg !1884
  %23 = load i32* %3, !dbg !1884
  %24 = insertvalue { i8*, i32 } undef, i8* %22, 0, !dbg !1884
  %25 = insertvalue { i8*, i32 } %24, i32 %23, 1, !dbg !1884
  resume { i8*, i32 } %25, !dbg !1884
}

; Function Attrs: nounwind
define linkonce_odr %"class.std::allocator"* @_ZNSaIdEC2Ev(%"class.std::allocator"* returned %this) unnamed_addr #3 align 2 {
  %1 = alloca %"class.std::allocator"*, align 4
  store %"class.std::allocator"* %this, %"class.std::allocator"** %1, align 4
  call void @llvm.dbg.declare(metadata !{%"class.std::allocator"** %1}, metadata !1886), !dbg !1887
  %2 = load %"class.std::allocator"** %1
  %3 = bitcast %"class.std::allocator"* %2 to %"class.__gnu_cxx::new_allocator"*, !dbg !1888
  %4 = call %"class.__gnu_cxx::new_allocator"* @_ZN9__gnu_cxx13new_allocatorIdEC2Ev(%"class.__gnu_cxx::new_allocator"* %3) #9, !dbg !1888
  ret %"class.std::allocator"* %2, !dbg !1889
}

; Function Attrs: nounwind
define linkonce_odr %"class.__gnu_cxx::new_allocator"* @_ZN9__gnu_cxx13new_allocatorIdEC2Ev(%"class.__gnu_cxx::new_allocator"* returned %this) unnamed_addr #3 align 2 {
  %1 = alloca %"class.__gnu_cxx::new_allocator"*, align 4
  store %"class.__gnu_cxx::new_allocator"* %this, %"class.__gnu_cxx::new_allocator"** %1, align 4
  call void @llvm.dbg.declare(metadata !{%"class.__gnu_cxx::new_allocator"** %1}, metadata !1890), !dbg !1891
  %2 = load %"class.__gnu_cxx::new_allocator"** %1
  ret %"class.__gnu_cxx::new_allocator"* %2, !dbg !1892
}

attributes #0 = { "less-precise-fpmad"="false" "no-frame-pointer-elim"="true" "no-frame-pointer-elim-non-leaf" "no-infs-fp-math"="false" "no-nans-fp-math"="false" "stack-protector-buffer-size"="8" "unsafe-fp-math"="false" "use-soft-float"="false" }
attributes #1 = { nounwind readnone }
attributes #2 = { noinline noreturn nounwind }
attributes #3 = { nounwind "less-precise-fpmad"="false" "no-frame-pointer-elim"="true" "no-frame-pointer-elim-non-leaf" "no-infs-fp-math"="false" "no-nans-fp-math"="false" "stack-protector-buffer-size"="8" "unsafe-fp-math"="false" "use-soft-float"="false" }
attributes #4 = { inlinehint nounwind "less-precise-fpmad"="false" "no-frame-pointer-elim"="true" "no-frame-pointer-elim-non-leaf" "no-infs-fp-math"="false" "no-nans-fp-math"="false" "stack-protector-buffer-size"="8" "unsafe-fp-math"="false" "use-soft-float"="false" }
attributes #5 = { nobuiltin nounwind "less-precise-fpmad"="false" "no-frame-pointer-elim"="true" "no-frame-pointer-elim-non-leaf" "no-infs-fp-math"="false" "no-nans-fp-math"="false" "stack-protector-buffer-size"="8" "unsafe-fp-math"="false" "use-soft-float"="false" }
attributes #6 = { noreturn "less-precise-fpmad"="false" "no-frame-pointer-elim"="true" "no-frame-pointer-elim-non-leaf" "no-infs-fp-math"="false" "no-nans-fp-math"="false" "stack-protector-buffer-size"="8" "unsafe-fp-math"="false" "use-soft-float"="false" }
attributes #7 = { nobuiltin "less-precise-fpmad"="false" "no-frame-pointer-elim"="true" "no-frame-pointer-elim-non-leaf" "no-infs-fp-math"="false" "no-nans-fp-math"="false" "stack-protector-buffer-size"="8" "unsafe-fp-math"="false" "use-soft-float"="false" }
attributes #8 = { inlinehint "less-precise-fpmad"="false" "no-frame-pointer-elim"="true" "no-frame-pointer-elim-non-leaf" "no-infs-fp-math"="false" "no-nans-fp-math"="false" "stack-protector-buffer-size"="8" "unsafe-fp-math"="false" "use-soft-float"="false" }
attributes #9 = { nounwind }
attributes #10 = { noreturn nounwind }
attributes #11 = { noreturn }

!llvm.dbg.cu = !{!0}
!xidane.function_declaration_type = !{!788, !789, !790, !789, !791, !792, !793, !789, !794, !795, !796, !797, !798, !799, !800, !801, !802, !803, !804, !789, !805, !806, !807, !808, !809, !810, !811, !806, !812, !813, !814, !810, !815, !816, !817, !818, !819, !803, !820, !821, !822, !823, !824, !825, !826, !827, !826, !827, !828, !808, !829, !830, !831, !789, !832, !833, !834, !789, !835, !836, !837, !821, !838, !823, !839, !840, !841, !842, !843, !803, !844, !845, !846, !803, !847, !827, !847, !827, !848, !801, !849, !850, !851, !799, !852, !853, !854, !799, !855, !856, !857, !858, !859, !860, !861, !801, !862, !789, !863, !864, !865, !866, !867, !868, !869, !868, !870, !871, !872, !873, !874, !875, !876, !877, !878, !840, !879, !789, !879, !789, !880, !789, !881, !882, !883, !884, !883, !884, !885, !789, !886, !860, !887, !801, !888, !868, !889, !890, !891, !892, !893, !868, !894, !895, !896, !897, !898, !868, !899, !868, !900, !897, !791, !792, !901, !792, !901, !792, !902, !903, !904, !905, !906, !816, !907, !908, !909, !789, !910, !911, !912, !789, !912, !789, !913, !789, !914, !789, !915, !916, !917, !916, !918, !916, !919, !916, !920, !921, !922, !923, !924, !916, !925, !926, !927, !928, !929, !930, !931, !916, !932, !933, !934, !818, !935, !818, !936, !937, !938, !939, !940, !911, !936, !937, !941, !942, !943, !789, !943, !789, !944, !945, !793, !789, !946, !947, !948, !845, !790, !789, !949, !789, !950, !789, !950, !789, !951, !789, !952, !789}
!xidane.function_declaration_filename = !{!788, !953, !790, !954, !791, !955, !793, !954, !794, !953, !796, !953, !798, !955, !800, !955, !802, !955, !804, !955, !805, !953, !807, !955, !809, !955, !811, !953, !812, !953, !814, !954, !815, !954, !817, !954, !819, !954, !820, !954, !822, !954, !824, !954, !826, !954, !826, !954, !828, !954, !829, !954, !831, !954, !832, !956, !834, !954, !835, !954, !837, !954, !838, !954, !839, !956, !843, !954, !844, !954, !846, !954, !847, !954, !847, !954, !848, !954, !849, !954, !851, !954, !852, !956, !854, !954, !855, !954, !857, !954, !859, !956, !861, !956, !862, !957, !865, !954, !867, !958, !869, !958, !870, !958, !872, !954, !874, !954, !876, !954, !878, !956, !879, !959, !879, !959, !880, !956, !881, !954, !883, !959, !883, !959, !885, !956, !886, !956, !887, !956, !888, !958, !889, !958, !891, !960, !893, !958, !894, !958, !896, !958, !898, !958, !899, !958, !900, !958, !791, !955, !901, !954, !901, !954, !902, !954, !904, !961, !906, !954, !907, !954, !909, !954, !910, !954, !912, !954, !912, !954, !913, !959, !914, !956, !915, !961, !917, !961, !918, !958, !919, !958, !920, !958, !922, !960, !924, !958, !925, !958, !927, !958, !929, !960, !931, !958, !932, !954, !934, !954, !935, !954, !936, !954, !938, !954, !940, !954, !936, !954, !941, !959, !943, !954, !943, !954, !944, !956, !793, !954, !946, !954, !948, !954, !790, !954, !949, !954, !950, !954, !950, !954, !951, !959, !952, !956}
!llvm.module.flags = !{!962, !963, !964, !965}
!llvm.ident = !{!966}

!0 = metadata !{i32 786449, metadata !1, i32 4, metadata !"clang version 3.5.0 (tags/RELEASE_350/final)", i1 false, metadata !"", i32 0, metadata !2, metadata !11, metadata !620, metadata !375, metadata !781, metadata !"", i32 1} ; [ DW_TAG_compile_unit ] [/home/vgr16/nfshome/face_with_corner/SDRelease//home/vgr16/nfshome/face_with_corner/src/tools/MoveAvg.cpp] [DW_LANG_C_plus_plus]
!1 = metadata !{metadata !"/home/vgr16/nfshome/face_with_corner/src/tools/MoveAvg.cpp", metadata !"/home/vgr16/nfshome/face_with_corner/SDRelease"}
!2 = metadata !{metadata !3, metadata !7}
!3 = metadata !{i32 786436, metadata !4, metadata !"_ZTSSt10__are_sameIPdS0_E", metadata !"", i32 113, i64 32, i64 32, i32 0, i32 0, null, metadata !5, i32 0, null, null, metadata !"_ZTSNSt10__are_sameIPdS0_EUt_E"} ; [ DW_TAG_enumeration_type ] [line 113, size 32, align 32, offset 0] [def] [from ]
!4 = metadata !{metadata !"/usr/local/Xilinx/SDSoC/2015.4/SDK/2015.4/gnu/arm/lin/arm-xilinx-linux-gnueabi/include/c++/4.9.2/bits/cpp_type_traits.h", metadata !"/home/vgr16/nfshome/face_with_corner/SDRelease"}
!5 = metadata !{metadata !6}
!6 = metadata !{i32 786472, metadata !"__value", i64 1} ; [ DW_TAG_enumerator ] [__value :: 1]
!7 = metadata !{i32 786436, metadata !8, metadata !"_ZTSSt11_Deque_baseIdSaIdEE", metadata !"", i32 559, i64 32, i64 32, i32 0, i32 0, null, metadata !9, i32 0, null, null, metadata !"_ZTSNSt11_Deque_baseIdSaIdEEUt_E"} ; [ DW_TAG_enumeration_type ] [line 559, size 32, align 32, offset 0] [def] [from ]
!8 = metadata !{metadata !"/usr/local/Xilinx/SDSoC/2015.4/SDK/2015.4/gnu/arm/lin/arm-xilinx-linux-gnueabi/include/c++/4.9.2/bits/stl_deque.h", metadata !"/home/vgr16/nfshome/face_with_corner/SDRelease"}
!9 = metadata !{metadata !10}
!10 = metadata !{i32 786472, metadata !"_S_initial_map_size", i64 8} ; [ DW_TAG_enumerator ] [_S_initial_map_size :: 8]
!11 = metadata !{metadata !12, metadata !41, metadata !96, metadata !244, metadata !256, metadata !301, metadata !360, metadata !374, metadata !378, metadata !442, metadata !457, metadata !460, metadata !521, metadata !523, metadata !524, metadata !566, metadata !576, metadata !3, metadata !579, metadata !585, metadata !588, metadata !591, metadata !594, metadata !595, metadata !596, metadata !600, metadata !608, metadata !616, metadata !618, metadata !7}
!12 = metadata !{i32 786434, metadata !13, null, metadata !"MoveAvg", i32 26, i64 448, i64 64, i32 0, i32 0, null, metadata !14, i32 0, null, null, metadata !"_ZTS7MoveAvg"} ; [ DW_TAG_class_type ] [MoveAvg] [line 26, size 448, align 64, offset 0] [def] [from ]
!13 = metadata !{metadata !"/home/vgr16/nfshome/face_with_corner/src/tools/MoveAvg.h", metadata !"/home/vgr16/nfshome/face_with_corner/SDRelease"}
!14 = metadata !{metadata !15, metadata !16, metadata !20, metadata !22, metadata !26, metadata !29, metadata !32, metadata !37, metadata !38}
!15 = metadata !{i32 786445, metadata !13, metadata !"_ZTS7MoveAvg", metadata !"qu", i32 66, i64 320, i64 32, i64 0, i32 1, metadata !"_ZTSSt5queueIdSt5dequeIdSaIdEEE"} ; [ DW_TAG_member ] [qu] [line 66, size 320, align 32, offset 0] [private] [from _ZTSSt5queueIdSt5dequeIdSaIdEEE]
!16 = metadata !{i32 786445, metadata !13, metadata !"_ZTS7MoveAvg", metadata !"maxLen", i32 67, i64 32, i64 32, i64 320, i32 1, metadata !17} ; [ DW_TAG_member ] [maxLen] [line 67, size 32, align 32, offset 320] [private] [from u_int32_t]
!17 = metadata !{i32 786454, metadata !18, null, metadata !"u_int32_t", i32 202, i64 0, i64 0, i64 0, i32 0, metadata !19} ; [ DW_TAG_typedef ] [u_int32_t] [line 202, size 0, align 0, offset 0] [from unsigned int]
!18 = metadata !{metadata !"/usr/local/Xilinx/SDSoC/2015.4/SDK/2015.4/gnu/arm/lin/arm-xilinx-linux-gnueabi/libc/usr/include/sys/types.h", metadata !"/home/vgr16/nfshome/face_with_corner/SDRelease"}
!19 = metadata !{i32 786468, null, null, metadata !"unsigned int", i32 0, i64 32, i64 32, i64 0, i32 0, i32 7} ; [ DW_TAG_base_type ] [unsigned int] [line 0, size 32, align 32, offset 0, enc DW_ATE_unsigned]
!20 = metadata !{i32 786445, metadata !13, metadata !"_ZTS7MoveAvg", metadata !"sum", i32 68, i64 64, i64 64, i64 384, i32 1, metadata !21} ; [ DW_TAG_member ] [sum] [line 68, size 64, align 64, offset 384] [private] [from double]
!21 = metadata !{i32 786468, null, null, metadata !"double", i32 0, i64 64, i64 64, i64 0, i32 0, i32 4} ; [ DW_TAG_base_type ] [double] [line 0, size 64, align 64, offset 0, enc DW_ATE_float]
!22 = metadata !{i32 786478, metadata !13, metadata !"_ZTS7MoveAvg", metadata !"MoveAvg", metadata !"MoveAvg", metadata !"", i32 33, metadata !23, i1 false, i1 false, i32 0, i32 0, null, i32 256, i1 false, null, null, i32 0, null, i32 33} ; [ DW_TAG_subprogram ] [line 33] [MoveAvg]
!23 = metadata !{i32 786453, i32 0, null, metadata !"", i32 0, i64 0, i64 0, i64 0, i32 0, null, metadata !24, i32 0, null, null, null} ; [ DW_TAG_subroutine_type ] [line 0, size 0, align 0, offset 0] [from ]
!24 = metadata !{null, metadata !25}
!25 = metadata !{i32 786447, null, null, metadata !"", i32 0, i64 32, i64 32, i64 0, i32 1088, metadata !"_ZTS7MoveAvg"} ; [ DW_TAG_pointer_type ] [line 0, size 32, align 32, offset 0] [artificial] [from _ZTS7MoveAvg]
!26 = metadata !{i32 786478, metadata !13, metadata !"_ZTS7MoveAvg", metadata !"MoveAvg", metadata !"MoveAvg", metadata !"", i32 39, metadata !27, i1 false, i1 false, i32 0, i32 0, null, i32 256, i1 false, null, null, i32 0, null, i32 39} ; [ DW_TAG_subprogram ] [line 39] [MoveAvg]
!27 = metadata !{i32 786453, i32 0, null, metadata !"", i32 0, i64 0, i64 0, i64 0, i32 0, null, metadata !28, i32 0, null, null, null} ; [ DW_TAG_subroutine_type ] [line 0, size 0, align 0, offset 0] [from ]
!28 = metadata !{null, metadata !25, metadata !17}
!29 = metadata !{i32 786478, metadata !13, metadata !"_ZTS7MoveAvg", metadata !"addSample", metadata !"addSample", metadata !"_ZN7MoveAvg9addSampleEd", i32 45, metadata !30, i1 false, i1 false, i32 0, i32 0, null, i32 256, i1 false, null, null, i32 0, null, i32 45} ; [ DW_TAG_subprogram ] [line 45] [addSample]
!30 = metadata !{i32 786453, i32 0, null, metadata !"", i32 0, i64 0, i64 0, i64 0, i32 0, null, metadata !31, i32 0, null, null, null} ; [ DW_TAG_subroutine_type ] [line 0, size 0, align 0, offset 0] [from ]
!31 = metadata !{null, metadata !25, metadata !21}
!32 = metadata !{i32 786478, metadata !13, metadata !"_ZTS7MoveAvg", metadata !"getLastSample", metadata !"getLastSample", metadata !"_ZNK7MoveAvg13getLastSampleEv", i32 51, metadata !33, i1 false, i1 false, i32 0, i32 0, null, i32 256, i1 false, null, null, i32 0, null, i32 51} ; [ DW_TAG_subprogram ] [line 51] [getLastSample]
!33 = metadata !{i32 786453, i32 0, null, metadata !"", i32 0, i64 0, i64 0, i64 0, i32 0, null, metadata !34, i32 0, null, null, null} ; [ DW_TAG_subroutine_type ] [line 0, size 0, align 0, offset 0] [from ]
!34 = metadata !{metadata !21, metadata !35}
!35 = metadata !{i32 786447, null, null, metadata !"", i32 0, i64 32, i64 32, i64 0, i32 1088, metadata !36} ; [ DW_TAG_pointer_type ] [line 0, size 32, align 32, offset 0] [artificial] [from ]
!36 = metadata !{i32 786470, null, null, metadata !"", i32 0, i64 0, i64 0, i64 0, i32 0, metadata !"_ZTS7MoveAvg"} ; [ DW_TAG_const_type ] [line 0, size 0, align 0, offset 0] [from _ZTS7MoveAvg]
!37 = metadata !{i32 786478, metadata !13, metadata !"_ZTS7MoveAvg", metadata !"getCurrentMean", metadata !"getCurrentMean", metadata !"_ZNK7MoveAvg14getCurrentMeanEv", i32 57, metadata !33, i1 false, i1 false, i32 0, i32 0, null, i32 256, i1 false, null, null, i32 0, null, i32 57} ; [ DW_TAG_subprogram ] [line 57] [getCurrentMean]
!38 = metadata !{i32 786478, metadata !13, metadata !"_ZTS7MoveAvg", metadata !"getSampleNB", metadata !"getSampleNB", metadata !"_ZNK7MoveAvg11getSampleNBEv", i32 63, metadata !39, i1 false, i1 false, i32 0, i32 0, null, i32 256, i1 false, null, null, i32 0, null, i32 63} ; [ DW_TAG_subprogram ] [line 63] [getSampleNB]
!39 = metadata !{i32 786453, i32 0, null, metadata !"", i32 0, i64 0, i64 0, i64 0, i32 0, null, metadata !40, i32 0, null, null, null} ; [ DW_TAG_subroutine_type ] [line 0, size 0, align 0, offset 0] [from ]
!40 = metadata !{metadata !17, metadata !35}
!41 = metadata !{i32 786434, metadata !42, metadata !43, metadata !"queue<double, std::deque<double, std::allocator<double> > >", i32 96, i64 320, i64 32, i32 0, i32 0, null, metadata !45, i32 0, null, metadata !93, metadata !"_ZTSSt5queueIdSt5dequeIdSaIdEEE"} ; [ DW_TAG_class_type ] [queue<double, std::deque<double, std::allocator<double> > >] [line 96, size 320, align 32, offset 0] [def] [from ]
!42 = metadata !{metadata !"/usr/local/Xilinx/SDSoC/2015.4/SDK/2015.4/gnu/arm/lin/arm-xilinx-linux-gnueabi/include/c++/4.9.2/bits/stl_queue.h", metadata !"/home/vgr16/nfshome/face_with_corner/SDRelease"}
!43 = metadata !{i32 786489, metadata !44, null, metadata !"std", i32 186} ; [ DW_TAG_namespace ] [std] [line 186]
!44 = metadata !{metadata !"/usr/local/Xilinx/SDSoC/2015.4/SDK/2015.4/gnu/arm/lin/arm-xilinx-linux-gnueabi/include/c++/4.9.2/arm-xilinx-linux-gnueabi/bits/c++config.h", metadata !"/home/vgr16/nfshome/face_with_corner/SDRelease"}
!45 = metadata !{metadata !46, metadata !47, metadata !53, metadata !59, metadata !65, metadata !73, metadata !81, metadata !82, metadata !83, metadata !90}
!46 = metadata !{i32 786445, metadata !42, metadata !"_ZTSSt5queueIdSt5dequeIdSaIdEEE", metadata !"c", i32 129, i64 320, i64 32, i64 0, i32 2, metadata !"_ZTSSt5dequeIdSaIdEE"} ; [ DW_TAG_member ] [c] [line 129, size 320, align 32, offset 0] [protected] [from _ZTSSt5dequeIdSaIdEE]
!47 = metadata !{i32 786478, metadata !42, metadata !"_ZTSSt5queueIdSt5dequeIdSaIdEEE", metadata !"queue", metadata !"queue", metadata !"", i32 137, metadata !48, i1 false, i1 false, i32 0, i32 0, null, i32 384, i1 false, null, null, i32 0, null, i32 137} ; [ DW_TAG_subprogram ] [line 137] [queue]
!48 = metadata !{i32 786453, i32 0, null, metadata !"", i32 0, i64 0, i64 0, i64 0, i32 0, null, metadata !49, i32 0, null, null, null} ; [ DW_TAG_subroutine_type ] [line 0, size 0, align 0, offset 0] [from ]
!49 = metadata !{null, metadata !50, metadata !51}
!50 = metadata !{i32 786447, null, null, metadata !"", i32 0, i64 32, i64 32, i64 0, i32 1088, metadata !"_ZTSSt5queueIdSt5dequeIdSaIdEEE"} ; [ DW_TAG_pointer_type ] [line 0, size 32, align 32, offset 0] [artificial] [from _ZTSSt5queueIdSt5dequeIdSaIdEEE]
!51 = metadata !{i32 786448, null, null, null, i32 0, i64 0, i64 0, i64 0, i32 0, metadata !52} ; [ DW_TAG_reference_type ] [line 0, size 0, align 0, offset 0] [from ]
!52 = metadata !{i32 786470, null, null, metadata !"", i32 0, i64 0, i64 0, i64 0, i32 0, metadata !"_ZTSSt5dequeIdSaIdEE"} ; [ DW_TAG_const_type ] [line 0, size 0, align 0, offset 0] [from _ZTSSt5dequeIdSaIdEE]
!53 = metadata !{i32 786478, metadata !42, metadata !"_ZTSSt5queueIdSt5dequeIdSaIdEEE", metadata !"empty", metadata !"empty", metadata !"_ZNKSt5queueIdSt5dequeIdSaIdEEE5emptyEv", i32 153, metadata !54, i1 false, i1 false, i32 0, i32 0, null, i32 256, i1 false, null, null, i32 0, null, i32 153} ; [ DW_TAG_subprogram ] [line 153] [empty]
!54 = metadata !{i32 786453, i32 0, null, metadata !"", i32 0, i64 0, i64 0, i64 0, i32 0, null, metadata !55, i32 0, null, null, null} ; [ DW_TAG_subroutine_type ] [line 0, size 0, align 0, offset 0] [from ]
!55 = metadata !{metadata !56, metadata !57}
!56 = metadata !{i32 786468, null, null, metadata !"bool", i32 0, i64 8, i64 8, i64 0, i32 0, i32 2} ; [ DW_TAG_base_type ] [bool] [line 0, size 8, align 8, offset 0, enc DW_ATE_boolean]
!57 = metadata !{i32 786447, null, null, metadata !"", i32 0, i64 32, i64 32, i64 0, i32 1088, metadata !58} ; [ DW_TAG_pointer_type ] [line 0, size 32, align 32, offset 0] [artificial] [from ]
!58 = metadata !{i32 786470, null, null, metadata !"", i32 0, i64 0, i64 0, i64 0, i32 0, metadata !"_ZTSSt5queueIdSt5dequeIdSaIdEEE"} ; [ DW_TAG_const_type ] [line 0, size 0, align 0, offset 0] [from _ZTSSt5queueIdSt5dequeIdSaIdEEE]
!59 = metadata !{i32 786478, metadata !42, metadata !"_ZTSSt5queueIdSt5dequeIdSaIdEEE", metadata !"size", metadata !"size", metadata !"_ZNKSt5queueIdSt5dequeIdSaIdEEE4sizeEv", i32 158, metadata !60, i1 false, i1 false, i32 0, i32 0, null, i32 256, i1 false, null, null, i32 0, null, i32 158} ; [ DW_TAG_subprogram ] [line 158] [size]
!60 = metadata !{i32 786453, i32 0, null, metadata !"", i32 0, i64 0, i64 0, i64 0, i32 0, null, metadata !61, i32 0, null, null, null} ; [ DW_TAG_subroutine_type ] [line 0, size 0, align 0, offset 0] [from ]
!61 = metadata !{metadata !62, metadata !57}
!62 = metadata !{i32 786454, metadata !42, metadata !"_ZTSSt5queueIdSt5dequeIdSaIdEEE", metadata !"size_type", i32 117, i64 0, i64 0, i64 0, i32 0, metadata !63} ; [ DW_TAG_typedef ] [size_type] [line 117, size 0, align 0, offset 0] [from size_type]
!63 = metadata !{i32 786454, metadata !8, metadata !"_ZTSSt5dequeIdSaIdEE", metadata !"size_type", i32 755, i64 0, i64 0, i64 0, i32 0, metadata !64} ; [ DW_TAG_typedef ] [size_type] [line 755, size 0, align 0, offset 0] [from size_t]
!64 = metadata !{i32 786454, metadata !44, metadata !43, metadata !"size_t", i32 188, i64 0, i64 0, i64 0, i32 0, metadata !19} ; [ DW_TAG_typedef ] [size_t] [line 188, size 0, align 0, offset 0] [from unsigned int]
!65 = metadata !{i32 786478, metadata !42, metadata !"_ZTSSt5queueIdSt5dequeIdSaIdEEE", metadata !"front", metadata !"front", metadata !"_ZNSt5queueIdSt5dequeIdSaIdEEE5frontEv", i32 166, metadata !66, i1 false, i1 false, i32 0, i32 0, null, i32 256, i1 false, null, null, i32 0, null, i32 166} ; [ DW_TAG_subprogram ] [line 166] [front]
!66 = metadata !{i32 786453, i32 0, null, metadata !"", i32 0, i64 0, i64 0, i64 0, i32 0, null, metadata !67, i32 0, null, null, null} ; [ DW_TAG_subroutine_type ] [line 0, size 0, align 0, offset 0] [from ]
!67 = metadata !{metadata !68, metadata !50}
!68 = metadata !{i32 786454, metadata !42, metadata !"_ZTSSt5queueIdSt5dequeIdSaIdEEE", metadata !"reference", i32 115, i64 0, i64 0, i64 0, i32 0, metadata !69} ; [ DW_TAG_typedef ] [reference] [line 115, size 0, align 0, offset 0] [from reference]
!69 = metadata !{i32 786454, metadata !8, metadata !"_ZTSSt5dequeIdSaIdEE", metadata !"reference", i32 749, i64 0, i64 0, i64 0, i32 0, metadata !70} ; [ DW_TAG_typedef ] [reference] [line 749, size 0, align 0, offset 0] [from reference]
!70 = metadata !{i32 786454, metadata !71, metadata !"_ZTSSaIdE", metadata !"reference", i32 99, i64 0, i64 0, i64 0, i32 0, metadata !72} ; [ DW_TAG_typedef ] [reference] [line 99, size 0, align 0, offset 0] [from ]
!71 = metadata !{metadata !"/usr/local/Xilinx/SDSoC/2015.4/SDK/2015.4/gnu/arm/lin/arm-xilinx-linux-gnueabi/include/c++/4.9.2/bits/allocator.h", metadata !"/home/vgr16/nfshome/face_with_corner/SDRelease"}
!72 = metadata !{i32 786448, null, null, null, i32 0, i64 0, i64 0, i64 0, i32 0, metadata !21} ; [ DW_TAG_reference_type ] [line 0, size 0, align 0, offset 0] [from double]
!73 = metadata !{i32 786478, metadata !42, metadata !"_ZTSSt5queueIdSt5dequeIdSaIdEEE", metadata !"front", metadata !"front", metadata !"_ZNKSt5queueIdSt5dequeIdSaIdEEE5frontEv", i32 177, metadata !74, i1 false, i1 false, i32 0, i32 0, null, i32 256, i1 false, null, null, i32 0, null, i32 177} ; [ DW_TAG_subprogram ] [line 177] [front]
!74 = metadata !{i32 786453, i32 0, null, metadata !"", i32 0, i64 0, i64 0, i64 0, i32 0, null, metadata !75, i32 0, null, null, null} ; [ DW_TAG_subroutine_type ] [line 0, size 0, align 0, offset 0] [from ]
!75 = metadata !{metadata !76, metadata !57}
!76 = metadata !{i32 786454, metadata !42, metadata !"_ZTSSt5queueIdSt5dequeIdSaIdEEE", metadata !"const_reference", i32 116, i64 0, i64 0, i64 0, i32 0, metadata !77} ; [ DW_TAG_typedef ] [const_reference] [line 116, size 0, align 0, offset 0] [from const_reference]
!77 = metadata !{i32 786454, metadata !8, metadata !"_ZTSSt5dequeIdSaIdEE", metadata !"const_reference", i32 750, i64 0, i64 0, i64 0, i32 0, metadata !78} ; [ DW_TAG_typedef ] [const_reference] [line 750, size 0, align 0, offset 0] [from const_reference]
!78 = metadata !{i32 786454, metadata !71, metadata !"_ZTSSaIdE", metadata !"const_reference", i32 100, i64 0, i64 0, i64 0, i32 0, metadata !79} ; [ DW_TAG_typedef ] [const_reference] [line 100, size 0, align 0, offset 0] [from ]
!79 = metadata !{i32 786448, null, null, null, i32 0, i64 0, i64 0, i64 0, i32 0, metadata !80} ; [ DW_TAG_reference_type ] [line 0, size 0, align 0, offset 0] [from ]
!80 = metadata !{i32 786470, null, null, metadata !"", i32 0, i64 0, i64 0, i64 0, i32 0, metadata !21} ; [ DW_TAG_const_type ] [line 0, size 0, align 0, offset 0] [from double]
!81 = metadata !{i32 786478, metadata !42, metadata !"_ZTSSt5queueIdSt5dequeIdSaIdEEE", metadata !"back", metadata !"back", metadata !"_ZNSt5queueIdSt5dequeIdSaIdEEE4backEv", i32 188, metadata !66, i1 false, i1 false, i32 0, i32 0, null, i32 256, i1 false, null, null, i32 0, null, i32 188} ; [ DW_TAG_subprogram ] [line 188] [back]
!82 = metadata !{i32 786478, metadata !42, metadata !"_ZTSSt5queueIdSt5dequeIdSaIdEEE", metadata !"back", metadata !"back", metadata !"_ZNKSt5queueIdSt5dequeIdSaIdEEE4backEv", i32 199, metadata !74, i1 false, i1 false, i32 0, i32 0, null, i32 256, i1 false, null, null, i32 0, null, i32 199} ; [ DW_TAG_subprogram ] [line 199] [back]
!83 = metadata !{i32 786478, metadata !42, metadata !"_ZTSSt5queueIdSt5dequeIdSaIdEEE", metadata !"push", metadata !"push", metadata !"_ZNSt5queueIdSt5dequeIdSaIdEEE4pushERKd", i32 215, metadata !84, i1 false, i1 false, i32 0, i32 0, null, i32 256, i1 false, null, null, i32 0, null, i32 215} ; [ DW_TAG_subprogram ] [line 215] [push]
!84 = metadata !{i32 786453, i32 0, null, metadata !"", i32 0, i64 0, i64 0, i64 0, i32 0, null, metadata !85, i32 0, null, null, null} ; [ DW_TAG_subroutine_type ] [line 0, size 0, align 0, offset 0] [from ]
!85 = metadata !{null, metadata !50, metadata !86}
!86 = metadata !{i32 786448, null, null, null, i32 0, i64 0, i64 0, i64 0, i32 0, metadata !87} ; [ DW_TAG_reference_type ] [line 0, size 0, align 0, offset 0] [from ]
!87 = metadata !{i32 786470, null, null, metadata !"", i32 0, i64 0, i64 0, i64 0, i32 0, metadata !88} ; [ DW_TAG_const_type ] [line 0, size 0, align 0, offset 0] [from value_type]
!88 = metadata !{i32 786454, metadata !42, metadata !"_ZTSSt5queueIdSt5dequeIdSaIdEEE", metadata !"value_type", i32 114, i64 0, i64 0, i64 0, i32 0, metadata !89} ; [ DW_TAG_typedef ] [value_type] [line 114, size 0, align 0, offset 0] [from value_type]
!89 = metadata !{i32 786454, metadata !8, metadata !"_ZTSSt5dequeIdSaIdEE", metadata !"value_type", i32 746, i64 0, i64 0, i64 0, i32 0, metadata !21} ; [ DW_TAG_typedef ] [value_type] [line 746, size 0, align 0, offset 0] [from double]
!90 = metadata !{i32 786478, metadata !42, metadata !"_ZTSSt5queueIdSt5dequeIdSaIdEEE", metadata !"pop", metadata !"pop", metadata !"_ZNSt5queueIdSt5dequeIdSaIdEEE3popEv", i32 241, metadata !91, i1 false, i1 false, i32 0, i32 0, null, i32 256, i1 false, null, null, i32 0, null, i32 241} ; [ DW_TAG_subprogram ] [line 241] [pop]
!91 = metadata !{i32 786453, i32 0, null, metadata !"", i32 0, i64 0, i64 0, i64 0, i32 0, null, metadata !92, i32 0, null, null, null} ; [ DW_TAG_subroutine_type ] [line 0, size 0, align 0, offset 0] [from ]
!92 = metadata !{null, metadata !50}
!93 = metadata !{metadata !94, metadata !95}
!94 = metadata !{i32 786479, null, metadata !"_Tp", metadata !21, null, i32 0, i32 0} ; [ DW_TAG_template_type_parameter ]
!95 = metadata !{i32 786479, null, metadata !"_Sequence", metadata !"_ZTSSt5dequeIdSaIdEE", null, i32 0, i32 0} ; [ DW_TAG_template_type_parameter ]
!96 = metadata !{i32 786434, metadata !8, metadata !43, metadata !"deque<double, std::allocator<double> >", i32 735, i64 320, i64 32, i32 0, i32 0, null, metadata !97, i32 0, null, metadata !242, metadata !"_ZTSSt5dequeIdSaIdEE"} ; [ DW_TAG_class_type ] [deque<double, std::allocator<double> >] [line 735, size 320, align 32, offset 0] [def] [from ]
!97 = metadata !{metadata !98, metadata !99, metadata !102, metadata !106, metadata !112, metadata !118, metadata !121, metadata !122, metadata !126, metadata !129, metadata !133, metadata !138, metadata !143, metadata !144, metadata !145, metadata !149, metadata !153, metadata !154, metadata !155, metadata !158, metadata !159, metadata !162, metadata !165, metadata !168, metadata !171, metadata !174, metadata !175, metadata !176, metadata !179, metadata !182, metadata !183, metadata !184, metadata !187, metadata !188, metadata !189, metadata !190, metadata !193, metadata !196, metadata !199, metadata !202, metadata !205, metadata !206, metadata !207, metadata !208, metadata !209, metadata !210, metadata !211, metadata !212, metadata !213, metadata !214, metadata !215, metadata !218, metadata !223, metadata !226, metadata !227, metadata !228, metadata !229, metadata !232, metadata !233, metadata !236, metadata !237, metadata !238, metadata !239}
!98 = metadata !{i32 786460, null, metadata !"_ZTSSt5dequeIdSaIdEE", null, i32 0, i64 0, i64 0, i64 0, i32 2, metadata !"_ZTSSt11_Deque_baseIdSaIdEE"} ; [ DW_TAG_inheritance ] [line 0, size 0, align 0, offset 0] [protected] [from _ZTSSt11_Deque_baseIdSaIdEE]
!99 = metadata !{i32 786478, metadata !8, metadata !"_ZTSSt5dequeIdSaIdEE", metadata !"_S_buffer_size", metadata !"_S_buffer_size", metadata !"_ZNSt5dequeIdSaIdEE14_S_buffer_sizeEv", i32 762, metadata !100, i1 false, i1 false, i32 0, i32 0, null, i32 258, i1 false, null, null, i32 0, null, i32 762} ; [ DW_TAG_subprogram ] [line 762] [protected] [_S_buffer_size]
!100 = metadata !{i32 786453, i32 0, null, metadata !"", i32 0, i64 0, i64 0, i64 0, i32 0, null, metadata !101, i32 0, null, null, null} ; [ DW_TAG_subroutine_type ] [line 0, size 0, align 0, offset 0] [from ]
!101 = metadata !{metadata !64}
!102 = metadata !{i32 786478, metadata !8, metadata !"_ZTSSt5dequeIdSaIdEE", metadata !"deque", metadata !"deque", metadata !"", i32 788, metadata !103, i1 false, i1 false, i32 0, i32 0, null, i32 256, i1 false, null, null, i32 0, null, i32 788} ; [ DW_TAG_subprogram ] [line 788] [deque]
!103 = metadata !{i32 786453, i32 0, null, metadata !"", i32 0, i64 0, i64 0, i64 0, i32 0, null, metadata !104, i32 0, null, null, null} ; [ DW_TAG_subroutine_type ] [line 0, size 0, align 0, offset 0] [from ]
!104 = metadata !{null, metadata !105}
!105 = metadata !{i32 786447, null, null, metadata !"", i32 0, i64 32, i64 32, i64 0, i32 1088, metadata !"_ZTSSt5dequeIdSaIdEE"} ; [ DW_TAG_pointer_type ] [line 0, size 32, align 32, offset 0] [artificial] [from _ZTSSt5dequeIdSaIdEE]
!106 = metadata !{i32 786478, metadata !8, metadata !"_ZTSSt5dequeIdSaIdEE", metadata !"deque", metadata !"deque", metadata !"", i32 795, metadata !107, i1 false, i1 false, i32 0, i32 0, null, i32 384, i1 false, null, null, i32 0, null, i32 795} ; [ DW_TAG_subprogram ] [line 795] [deque]
!107 = metadata !{i32 786453, i32 0, null, metadata !"", i32 0, i64 0, i64 0, i64 0, i32 0, null, metadata !108, i32 0, null, null, null} ; [ DW_TAG_subroutine_type ] [line 0, size 0, align 0, offset 0] [from ]
!108 = metadata !{null, metadata !105, metadata !109}
!109 = metadata !{i32 786448, null, null, null, i32 0, i64 0, i64 0, i64 0, i32 0, metadata !110} ; [ DW_TAG_reference_type ] [line 0, size 0, align 0, offset 0] [from ]
!110 = metadata !{i32 786470, null, null, metadata !"", i32 0, i64 0, i64 0, i64 0, i32 0, metadata !111} ; [ DW_TAG_const_type ] [line 0, size 0, align 0, offset 0] [from allocator_type]
!111 = metadata !{i32 786454, metadata !8, metadata !"_ZTSSt5dequeIdSaIdEE", metadata !"allocator_type", i32 757, i64 0, i64 0, i64 0, i32 0, metadata !"_ZTSSaIdE"} ; [ DW_TAG_typedef ] [allocator_type] [line 757, size 0, align 0, offset 0] [from _ZTSSaIdE]
!112 = metadata !{i32 786478, metadata !8, metadata !"_ZTSSt5dequeIdSaIdEE", metadata !"deque", metadata !"deque", metadata !"", i32 833, metadata !113, i1 false, i1 false, i32 0, i32 0, null, i32 384, i1 false, null, null, i32 0, null, i32 833} ; [ DW_TAG_subprogram ] [line 833] [deque]
!113 = metadata !{i32 786453, i32 0, null, metadata !"", i32 0, i64 0, i64 0, i64 0, i32 0, null, metadata !114, i32 0, null, null, null} ; [ DW_TAG_subroutine_type ] [line 0, size 0, align 0, offset 0] [from ]
!114 = metadata !{null, metadata !105, metadata !115, metadata !116, metadata !109}
!115 = metadata !{i32 786454, metadata !8, null, metadata !"size_type", i32 755, i64 0, i64 0, i64 0, i32 0, metadata !64} ; [ DW_TAG_typedef ] [size_type] [line 755, size 0, align 0, offset 0] [from size_t]
!116 = metadata !{i32 786448, null, null, null, i32 0, i64 0, i64 0, i64 0, i32 0, metadata !117} ; [ DW_TAG_reference_type ] [line 0, size 0, align 0, offset 0] [from ]
!117 = metadata !{i32 786470, null, null, metadata !"", i32 0, i64 0, i64 0, i64 0, i32 0, metadata !89} ; [ DW_TAG_const_type ] [line 0, size 0, align 0, offset 0] [from value_type]
!118 = metadata !{i32 786478, metadata !8, metadata !"_ZTSSt5dequeIdSaIdEE", metadata !"deque", metadata !"deque", metadata !"", i32 846, metadata !119, i1 false, i1 false, i32 0, i32 0, null, i32 256, i1 false, null, null, i32 0, null, i32 846} ; [ DW_TAG_subprogram ] [line 846] [deque]
!119 = metadata !{i32 786453, i32 0, null, metadata !"", i32 0, i64 0, i64 0, i64 0, i32 0, null, metadata !120, i32 0, null, null, null} ; [ DW_TAG_subroutine_type ] [line 0, size 0, align 0, offset 0] [from ]
!120 = metadata !{null, metadata !105, metadata !51}
!121 = metadata !{i32 786478, metadata !8, metadata !"_ZTSSt5dequeIdSaIdEE", metadata !"~deque", metadata !"~deque", metadata !"", i32 922, metadata !103, i1 false, i1 false, i32 0, i32 0, null, i32 256, i1 false, null, null, i32 0, null, i32 922} ; [ DW_TAG_subprogram ] [line 922] [~deque]
!122 = metadata !{i32 786478, metadata !8, metadata !"_ZTSSt5dequeIdSaIdEE", metadata !"operator=", metadata !"operator=", metadata !"_ZNSt5dequeIdSaIdEEaSERKS1_", i32 933, metadata !123, i1 false, i1 false, i32 0, i32 0, null, i32 256, i1 false, null, null, i32 0, null, i32 933} ; [ DW_TAG_subprogram ] [line 933] [operator=]
!123 = metadata !{i32 786453, i32 0, null, metadata !"", i32 0, i64 0, i64 0, i64 0, i32 0, null, metadata !124, i32 0, null, null, null} ; [ DW_TAG_subroutine_type ] [line 0, size 0, align 0, offset 0] [from ]
!124 = metadata !{metadata !125, metadata !105, metadata !51}
!125 = metadata !{i32 786448, null, null, null, i32 0, i64 0, i64 0, i64 0, i32 0, metadata !"_ZTSSt5dequeIdSaIdEE"} ; [ DW_TAG_reference_type ] [line 0, size 0, align 0, offset 0] [from _ZTSSt5dequeIdSaIdEE]
!126 = metadata !{i32 786478, metadata !8, metadata !"_ZTSSt5dequeIdSaIdEE", metadata !"assign", metadata !"assign", metadata !"_ZNSt5dequeIdSaIdEE6assignEjRKd", i32 983, metadata !127, i1 false, i1 false, i32 0, i32 0, null, i32 256, i1 false, null, null, i32 0, null, i32 983} ; [ DW_TAG_subprogram ] [line 983] [assign]
!127 = metadata !{i32 786453, i32 0, null, metadata !"", i32 0, i64 0, i64 0, i64 0, i32 0, null, metadata !128, i32 0, null, null, null} ; [ DW_TAG_subroutine_type ] [line 0, size 0, align 0, offset 0] [from ]
!128 = metadata !{null, metadata !105, metadata !115, metadata !116}
!129 = metadata !{i32 786478, metadata !8, metadata !"_ZTSSt5dequeIdSaIdEE", metadata !"get_allocator", metadata !"get_allocator", metadata !"_ZNKSt5dequeIdSaIdEE13get_allocatorEv", i32 1033, metadata !130, i1 false, i1 false, i32 0, i32 0, null, i32 256, i1 false, null, null, i32 0, null, i32 1033} ; [ DW_TAG_subprogram ] [line 1033] [get_allocator]
!130 = metadata !{i32 786453, i32 0, null, metadata !"", i32 0, i64 0, i64 0, i64 0, i32 0, null, metadata !131, i32 0, null, null, null} ; [ DW_TAG_subroutine_type ] [line 0, size 0, align 0, offset 0] [from ]
!131 = metadata !{metadata !111, metadata !132}
!132 = metadata !{i32 786447, null, null, metadata !"", i32 0, i64 32, i64 32, i64 0, i32 1088, metadata !52} ; [ DW_TAG_pointer_type ] [line 0, size 32, align 32, offset 0] [artificial] [from ]
!133 = metadata !{i32 786478, metadata !8, metadata !"_ZTSSt5dequeIdSaIdEE", metadata !"begin", metadata !"begin", metadata !"_ZNSt5dequeIdSaIdEE5beginEv", i32 1042, metadata !134, i1 false, i1 false, i32 0, i32 0, null, i32 256, i1 false, null, null, i32 0, null, i32 1042} ; [ DW_TAG_subprogram ] [line 1042] [begin]
!134 = metadata !{i32 786453, i32 0, null, metadata !"", i32 0, i64 0, i64 0, i64 0, i32 0, null, metadata !135, i32 0, null, null, null} ; [ DW_TAG_subroutine_type ] [line 0, size 0, align 0, offset 0] [from ]
!135 = metadata !{metadata !136, metadata !105}
!136 = metadata !{i32 786454, metadata !8, metadata !"_ZTSSt5dequeIdSaIdEE", metadata !"iterator", i32 751, i64 0, i64 0, i64 0, i32 0, metadata !137} ; [ DW_TAG_typedef ] [iterator] [line 751, size 0, align 0, offset 0] [from iterator]
!137 = metadata !{i32 786454, metadata !8, metadata !"_ZTSSt11_Deque_baseIdSaIdEE", metadata !"iterator", i32 453, i64 0, i64 0, i64 0, i32 0, metadata !"_ZTSSt15_Deque_iteratorIdRdPdE"} ; [ DW_TAG_typedef ] [iterator] [line 453, size 0, align 0, offset 0] [from _ZTSSt15_Deque_iteratorIdRdPdE]
!138 = metadata !{i32 786478, metadata !8, metadata !"_ZTSSt5dequeIdSaIdEE", metadata !"begin", metadata !"begin", metadata !"_ZNKSt5dequeIdSaIdEE5beginEv", i32 1050, metadata !139, i1 false, i1 false, i32 0, i32 0, null, i32 256, i1 false, null, null, i32 0, null, i32 1050} ; [ DW_TAG_subprogram ] [line 1050] [begin]
!139 = metadata !{i32 786453, i32 0, null, metadata !"", i32 0, i64 0, i64 0, i64 0, i32 0, null, metadata !140, i32 0, null, null, null} ; [ DW_TAG_subroutine_type ] [line 0, size 0, align 0, offset 0] [from ]
!140 = metadata !{metadata !141, metadata !132}
!141 = metadata !{i32 786454, metadata !8, metadata !"_ZTSSt5dequeIdSaIdEE", metadata !"const_iterator", i32 752, i64 0, i64 0, i64 0, i32 0, metadata !142} ; [ DW_TAG_typedef ] [const_iterator] [line 752, size 0, align 0, offset 0] [from const_iterator]
!142 = metadata !{i32 786454, metadata !8, metadata !"_ZTSSt11_Deque_baseIdSaIdEE", metadata !"const_iterator", i32 454, i64 0, i64 0, i64 0, i32 0, metadata !"_ZTSSt15_Deque_iteratorIdRKdPS0_E"} ; [ DW_TAG_typedef ] [const_iterator] [line 454, size 0, align 0, offset 0] [from _ZTSSt15_Deque_iteratorIdRKdPS0_E]
!143 = metadata !{i32 786478, metadata !8, metadata !"_ZTSSt5dequeIdSaIdEE", metadata !"end", metadata !"end", metadata !"_ZNSt5dequeIdSaIdEE3endEv", i32 1059, metadata !134, i1 false, i1 false, i32 0, i32 0, null, i32 256, i1 false, null, null, i32 0, null, i32 1059} ; [ DW_TAG_subprogram ] [line 1059] [end]
!144 = metadata !{i32 786478, metadata !8, metadata !"_ZTSSt5dequeIdSaIdEE", metadata !"end", metadata !"end", metadata !"_ZNKSt5dequeIdSaIdEE3endEv", i32 1068, metadata !139, i1 false, i1 false, i32 0, i32 0, null, i32 256, i1 false, null, null, i32 0, null, i32 1068} ; [ DW_TAG_subprogram ] [line 1068] [end]
!145 = metadata !{i32 786478, metadata !8, metadata !"_ZTSSt5dequeIdSaIdEE", metadata !"rbegin", metadata !"rbegin", metadata !"_ZNSt5dequeIdSaIdEE6rbeginEv", i32 1077, metadata !146, i1 false, i1 false, i32 0, i32 0, null, i32 256, i1 false, null, null, i32 0, null, i32 1077} ; [ DW_TAG_subprogram ] [line 1077] [rbegin]
!146 = metadata !{i32 786453, i32 0, null, metadata !"", i32 0, i64 0, i64 0, i64 0, i32 0, null, metadata !147, i32 0, null, null, null} ; [ DW_TAG_subroutine_type ] [line 0, size 0, align 0, offset 0] [from ]
!147 = metadata !{metadata !148, metadata !105}
!148 = metadata !{i32 786454, metadata !8, metadata !"_ZTSSt5dequeIdSaIdEE", metadata !"reverse_iterator", i32 754, i64 0, i64 0, i64 0, i32 0, metadata !"_ZTSSt16reverse_iteratorISt15_Deque_iteratorIdRdPdEE"} ; [ DW_TAG_typedef ] [reverse_iterator] [line 754, size 0, align 0, offset 0] [from _ZTSSt16reverse_iteratorISt15_Deque_iteratorIdRdPdEE]
!149 = metadata !{i32 786478, metadata !8, metadata !"_ZTSSt5dequeIdSaIdEE", metadata !"rbegin", metadata !"rbegin", metadata !"_ZNKSt5dequeIdSaIdEE6rbeginEv", i32 1086, metadata !150, i1 false, i1 false, i32 0, i32 0, null, i32 256, i1 false, null, null, i32 0, null, i32 1086} ; [ DW_TAG_subprogram ] [line 1086] [rbegin]
!150 = metadata !{i32 786453, i32 0, null, metadata !"", i32 0, i64 0, i64 0, i64 0, i32 0, null, metadata !151, i32 0, null, null, null} ; [ DW_TAG_subroutine_type ] [line 0, size 0, align 0, offset 0] [from ]
!151 = metadata !{metadata !152, metadata !132}
!152 = metadata !{i32 786454, metadata !8, metadata !"_ZTSSt5dequeIdSaIdEE", metadata !"const_reverse_iterator", i32 753, i64 0, i64 0, i64 0, i32 0, metadata !"_ZTSSt16reverse_iteratorISt15_Deque_iteratorIdRKdPS1_EE"} ; [ DW_TAG_typedef ] [const_reverse_iterator] [line 753, size 0, align 0, offset 0] [from _ZTSSt16reverse_iteratorISt15_Deque_iteratorIdRKdPS1_EE]
!153 = metadata !{i32 786478, metadata !8, metadata !"_ZTSSt5dequeIdSaIdEE", metadata !"rend", metadata !"rend", metadata !"_ZNSt5dequeIdSaIdEE4rendEv", i32 1095, metadata !146, i1 false, i1 false, i32 0, i32 0, null, i32 256, i1 false, null, null, i32 0, null, i32 1095} ; [ DW_TAG_subprogram ] [line 1095] [rend]
!154 = metadata !{i32 786478, metadata !8, metadata !"_ZTSSt5dequeIdSaIdEE", metadata !"rend", metadata !"rend", metadata !"_ZNKSt5dequeIdSaIdEE4rendEv", i32 1104, metadata !150, i1 false, i1 false, i32 0, i32 0, null, i32 256, i1 false, null, null, i32 0, null, i32 1104} ; [ DW_TAG_subprogram ] [line 1104] [rend]
!155 = metadata !{i32 786478, metadata !8, metadata !"_ZTSSt5dequeIdSaIdEE", metadata !"size", metadata !"size", metadata !"_ZNKSt5dequeIdSaIdEE4sizeEv", i32 1147, metadata !156, i1 false, i1 false, i32 0, i32 0, null, i32 256, i1 false, null, null, i32 0, null, i32 1147} ; [ DW_TAG_subprogram ] [line 1147] [size]
!156 = metadata !{i32 786453, i32 0, null, metadata !"", i32 0, i64 0, i64 0, i64 0, i32 0, null, metadata !157, i32 0, null, null, null} ; [ DW_TAG_subroutine_type ] [line 0, size 0, align 0, offset 0] [from ]
!157 = metadata !{metadata !115, metadata !132}
!158 = metadata !{i32 786478, metadata !8, metadata !"_ZTSSt5dequeIdSaIdEE", metadata !"max_size", metadata !"max_size", metadata !"_ZNKSt5dequeIdSaIdEE8max_sizeEv", i32 1152, metadata !156, i1 false, i1 false, i32 0, i32 0, null, i32 256, i1 false, null, null, i32 0, null, i32 1152} ; [ DW_TAG_subprogram ] [line 1152] [max_size]
!159 = metadata !{i32 786478, metadata !8, metadata !"_ZTSSt5dequeIdSaIdEE", metadata !"resize", metadata !"resize", metadata !"_ZNSt5dequeIdSaIdEE6resizeEjd", i32 1210, metadata !160, i1 false, i1 false, i32 0, i32 0, null, i32 256, i1 false, null, null, i32 0, null, i32 1210} ; [ DW_TAG_subprogram ] [line 1210] [resize]
!160 = metadata !{i32 786453, i32 0, null, metadata !"", i32 0, i64 0, i64 0, i64 0, i32 0, null, metadata !161, i32 0, null, null, null} ; [ DW_TAG_subroutine_type ] [line 0, size 0, align 0, offset 0] [from ]
!161 = metadata !{null, metadata !105, metadata !115, metadata !89}
!162 = metadata !{i32 786478, metadata !8, metadata !"_ZTSSt5dequeIdSaIdEE", metadata !"empty", metadata !"empty", metadata !"_ZNKSt5dequeIdSaIdEE5emptyEv", i32 1233, metadata !163, i1 false, i1 false, i32 0, i32 0, null, i32 256, i1 false, null, null, i32 0, null, i32 1233} ; [ DW_TAG_subprogram ] [line 1233] [empty]
!163 = metadata !{i32 786453, i32 0, null, metadata !"", i32 0, i64 0, i64 0, i64 0, i32 0, null, metadata !164, i32 0, null, null, null} ; [ DW_TAG_subroutine_type ] [line 0, size 0, align 0, offset 0] [from ]
!164 = metadata !{metadata !56, metadata !132}
!165 = metadata !{i32 786478, metadata !8, metadata !"_ZTSSt5dequeIdSaIdEE", metadata !"operator[]", metadata !"operator[]", metadata !"_ZNSt5dequeIdSaIdEEixEj", i32 1249, metadata !166, i1 false, i1 false, i32 0, i32 0, null, i32 256, i1 false, null, null, i32 0, null, i32 1249} ; [ DW_TAG_subprogram ] [line 1249] [operator[]]
!166 = metadata !{i32 786453, i32 0, null, metadata !"", i32 0, i64 0, i64 0, i64 0, i32 0, null, metadata !167, i32 0, null, null, null} ; [ DW_TAG_subroutine_type ] [line 0, size 0, align 0, offset 0] [from ]
!167 = metadata !{metadata !69, metadata !105, metadata !115}
!168 = metadata !{i32 786478, metadata !8, metadata !"_ZTSSt5dequeIdSaIdEE", metadata !"operator[]", metadata !"operator[]", metadata !"_ZNKSt5dequeIdSaIdEEixEj", i32 1264, metadata !169, i1 false, i1 false, i32 0, i32 0, null, i32 256, i1 false, null, null, i32 0, null, i32 1264} ; [ DW_TAG_subprogram ] [line 1264] [operator[]]
!169 = metadata !{i32 786453, i32 0, null, metadata !"", i32 0, i64 0, i64 0, i64 0, i32 0, null, metadata !170, i32 0, null, null, null} ; [ DW_TAG_subroutine_type ] [line 0, size 0, align 0, offset 0] [from ]
!170 = metadata !{metadata !77, metadata !132, metadata !115}
!171 = metadata !{i32 786478, metadata !8, metadata !"_ZTSSt5dequeIdSaIdEE", metadata !"_M_range_check", metadata !"_M_range_check", metadata !"_ZNKSt5dequeIdSaIdEE14_M_range_checkEj", i32 1270, metadata !172, i1 false, i1 false, i32 0, i32 0, null, i32 258, i1 false, null, null, i32 0, null, i32 1270} ; [ DW_TAG_subprogram ] [line 1270] [protected] [_M_range_check]
!172 = metadata !{i32 786453, i32 0, null, metadata !"", i32 0, i64 0, i64 0, i64 0, i32 0, null, metadata !173, i32 0, null, null, null} ; [ DW_TAG_subroutine_type ] [line 0, size 0, align 0, offset 0] [from ]
!173 = metadata !{null, metadata !132, metadata !115}
!174 = metadata !{i32 786478, metadata !8, metadata !"_ZTSSt5dequeIdSaIdEE", metadata !"at", metadata !"at", metadata !"_ZNSt5dequeIdSaIdEE2atEj", i32 1292, metadata !166, i1 false, i1 false, i32 0, i32 0, null, i32 256, i1 false, null, null, i32 0, null, i32 1292} ; [ DW_TAG_subprogram ] [line 1292] [at]
!175 = metadata !{i32 786478, metadata !8, metadata !"_ZTSSt5dequeIdSaIdEE", metadata !"at", metadata !"at", metadata !"_ZNKSt5dequeIdSaIdEE2atEj", i32 1310, metadata !169, i1 false, i1 false, i32 0, i32 0, null, i32 256, i1 false, null, null, i32 0, null, i32 1310} ; [ DW_TAG_subprogram ] [line 1310] [at]
!176 = metadata !{i32 786478, metadata !8, metadata !"_ZTSSt5dequeIdSaIdEE", metadata !"front", metadata !"front", metadata !"_ZNSt5dequeIdSaIdEE5frontEv", i32 1321, metadata !177, i1 false, i1 false, i32 0, i32 0, null, i32 256, i1 false, null, null, i32 0, null, i32 1321} ; [ DW_TAG_subprogram ] [line 1321] [front]
!177 = metadata !{i32 786453, i32 0, null, metadata !"", i32 0, i64 0, i64 0, i64 0, i32 0, null, metadata !178, i32 0, null, null, null} ; [ DW_TAG_subroutine_type ] [line 0, size 0, align 0, offset 0] [from ]
!178 = metadata !{metadata !69, metadata !105}
!179 = metadata !{i32 786478, metadata !8, metadata !"_ZTSSt5dequeIdSaIdEE", metadata !"front", metadata !"front", metadata !"_ZNKSt5dequeIdSaIdEE5frontEv", i32 1329, metadata !180, i1 false, i1 false, i32 0, i32 0, null, i32 256, i1 false, null, null, i32 0, null, i32 1329} ; [ DW_TAG_subprogram ] [line 1329] [front]
!180 = metadata !{i32 786453, i32 0, null, metadata !"", i32 0, i64 0, i64 0, i64 0, i32 0, null, metadata !181, i32 0, null, null, null} ; [ DW_TAG_subroutine_type ] [line 0, size 0, align 0, offset 0] [from ]
!181 = metadata !{metadata !77, metadata !132}
!182 = metadata !{i32 786478, metadata !8, metadata !"_ZTSSt5dequeIdSaIdEE", metadata !"back", metadata !"back", metadata !"_ZNSt5dequeIdSaIdEE4backEv", i32 1337, metadata !177, i1 false, i1 false, i32 0, i32 0, null, i32 256, i1 false, null, null, i32 0, null, i32 1337} ; [ DW_TAG_subprogram ] [line 1337] [back]
!183 = metadata !{i32 786478, metadata !8, metadata !"_ZTSSt5dequeIdSaIdEE", metadata !"back", metadata !"back", metadata !"_ZNKSt5dequeIdSaIdEE4backEv", i32 1349, metadata !180, i1 false, i1 false, i32 0, i32 0, null, i32 256, i1 false, null, null, i32 0, null, i32 1349} ; [ DW_TAG_subprogram ] [line 1349] [back]
!184 = metadata !{i32 786478, metadata !8, metadata !"_ZTSSt5dequeIdSaIdEE", metadata !"push_front", metadata !"push_front", metadata !"_ZNSt5dequeIdSaIdEE10push_frontERKd", i32 1367, metadata !185, i1 false, i1 false, i32 0, i32 0, null, i32 256, i1 false, null, null, i32 0, null, i32 1367} ; [ DW_TAG_subprogram ] [line 1367] [push_front]
!185 = metadata !{i32 786453, i32 0, null, metadata !"", i32 0, i64 0, i64 0, i64 0, i32 0, null, metadata !186, i32 0, null, null, null} ; [ DW_TAG_subroutine_type ] [line 0, size 0, align 0, offset 0] [from ]
!186 = metadata !{null, metadata !105, metadata !116}
!187 = metadata !{i32 786478, metadata !8, metadata !"_ZTSSt5dequeIdSaIdEE", metadata !"push_back", metadata !"push_back", metadata !"_ZNSt5dequeIdSaIdEE9push_backERKd", i32 1398, metadata !185, i1 false, i1 false, i32 0, i32 0, null, i32 256, i1 false, null, null, i32 0, null, i32 1398} ; [ DW_TAG_subprogram ] [line 1398] [push_back]
!188 = metadata !{i32 786478, metadata !8, metadata !"_ZTSSt5dequeIdSaIdEE", metadata !"pop_front", metadata !"pop_front", metadata !"_ZNSt5dequeIdSaIdEE9pop_frontEv", i32 1429, metadata !103, i1 false, i1 false, i32 0, i32 0, null, i32 256, i1 false, null, null, i32 0, null, i32 1429} ; [ DW_TAG_subprogram ] [line 1429] [pop_front]
!189 = metadata !{i32 786478, metadata !8, metadata !"_ZTSSt5dequeIdSaIdEE", metadata !"pop_back", metadata !"pop_back", metadata !"_ZNSt5dequeIdSaIdEE8pop_backEv", i32 1450, metadata !103, i1 false, i1 false, i32 0, i32 0, null, i32 256, i1 false, null, null, i32 0, null, i32 1450} ; [ DW_TAG_subprogram ] [line 1450] [pop_back]
!190 = metadata !{i32 786478, metadata !8, metadata !"_ZTSSt5dequeIdSaIdEE", metadata !"insert", metadata !"insert", metadata !"_ZNSt5dequeIdSaIdEE6insertESt15_Deque_iteratorIdRdPdERKd", i32 1498, metadata !191, i1 false, i1 false, i32 0, i32 0, null, i32 256, i1 false, null, null, i32 0, null, i32 1498} ; [ DW_TAG_subprogram ] [line 1498] [insert]
!191 = metadata !{i32 786453, i32 0, null, metadata !"", i32 0, i64 0, i64 0, i64 0, i32 0, null, metadata !192, i32 0, null, null, null} ; [ DW_TAG_subroutine_type ] [line 0, size 0, align 0, offset 0] [from ]
!192 = metadata !{metadata !136, metadata !105, metadata !136, metadata !116}
!193 = metadata !{i32 786478, metadata !8, metadata !"_ZTSSt5dequeIdSaIdEE", metadata !"insert", metadata !"insert", metadata !"_ZNSt5dequeIdSaIdEE6insertESt15_Deque_iteratorIdRdPdEjRKd", i32 1558, metadata !194, i1 false, i1 false, i32 0, i32 0, null, i32 256, i1 false, null, null, i32 0, null, i32 1558} ; [ DW_TAG_subprogram ] [line 1558] [insert]
!194 = metadata !{i32 786453, i32 0, null, metadata !"", i32 0, i64 0, i64 0, i64 0, i32 0, null, metadata !195, i32 0, null, null, null} ; [ DW_TAG_subroutine_type ] [line 0, size 0, align 0, offset 0] [from ]
!195 = metadata !{null, metadata !105, metadata !136, metadata !115, metadata !116}
!196 = metadata !{i32 786478, metadata !8, metadata !"_ZTSSt5dequeIdSaIdEE", metadata !"erase", metadata !"erase", metadata !"_ZNSt5dequeIdSaIdEE5eraseESt15_Deque_iteratorIdRdPdE", i32 1624, metadata !197, i1 false, i1 false, i32 0, i32 0, null, i32 256, i1 false, null, null, i32 0, null, i32 1624} ; [ DW_TAG_subprogram ] [line 1624] [erase]
!197 = metadata !{i32 786453, i32 0, null, metadata !"", i32 0, i64 0, i64 0, i64 0, i32 0, null, metadata !198, i32 0, null, null, null} ; [ DW_TAG_subroutine_type ] [line 0, size 0, align 0, offset 0] [from ]
!198 = metadata !{metadata !136, metadata !105, metadata !136}
!199 = metadata !{i32 786478, metadata !8, metadata !"_ZTSSt5dequeIdSaIdEE", metadata !"erase", metadata !"erase", metadata !"_ZNSt5dequeIdSaIdEE5eraseESt15_Deque_iteratorIdRdPdES5_", i32 1648, metadata !200, i1 false, i1 false, i32 0, i32 0, null, i32 256, i1 false, null, null, i32 0, null, i32 1648} ; [ DW_TAG_subprogram ] [line 1648] [erase]
!200 = metadata !{i32 786453, i32 0, null, metadata !"", i32 0, i64 0, i64 0, i64 0, i32 0, null, metadata !201, i32 0, null, null, null} ; [ DW_TAG_subroutine_type ] [line 0, size 0, align 0, offset 0] [from ]
!201 = metadata !{metadata !136, metadata !105, metadata !136, metadata !136}
!202 = metadata !{i32 786478, metadata !8, metadata !"_ZTSSt5dequeIdSaIdEE", metadata !"swap", metadata !"swap", metadata !"_ZNSt5dequeIdSaIdEE4swapERS1_", i32 1662, metadata !203, i1 false, i1 false, i32 0, i32 0, null, i32 256, i1 false, null, null, i32 0, null, i32 1662} ; [ DW_TAG_subprogram ] [line 1662] [swap]
!203 = metadata !{i32 786453, i32 0, null, metadata !"", i32 0, i64 0, i64 0, i64 0, i32 0, null, metadata !204, i32 0, null, null, null} ; [ DW_TAG_subroutine_type ] [line 0, size 0, align 0, offset 0] [from ]
!204 = metadata !{null, metadata !105, metadata !125}
!205 = metadata !{i32 786478, metadata !8, metadata !"_ZTSSt5dequeIdSaIdEE", metadata !"clear", metadata !"clear", metadata !"_ZNSt5dequeIdSaIdEE5clearEv", i32 1682, metadata !103, i1 false, i1 false, i32 0, i32 0, null, i32 256, i1 false, null, null, i32 0, null, i32 1682} ; [ DW_TAG_subprogram ] [line 1682] [clear]
!206 = metadata !{i32 786478, metadata !8, metadata !"_ZTSSt5dequeIdSaIdEE", metadata !"_M_fill_initialize", metadata !"_M_fill_initialize", metadata !"_ZNSt5dequeIdSaIdEE18_M_fill_initializeERKd", i32 1746, metadata !185, i1 false, i1 false, i32 0, i32 0, null, i32 258, i1 false, null, null, i32 0, null, i32 1746} ; [ DW_TAG_subprogram ] [line 1746] [protected] [_M_fill_initialize]
!207 = metadata !{i32 786478, metadata !8, metadata !"_ZTSSt5dequeIdSaIdEE", metadata !"_M_fill_assign", metadata !"_M_fill_assign", metadata !"_ZNSt5dequeIdSaIdEE14_M_fill_assignEjRKd", i32 1804, metadata !127, i1 false, i1 false, i32 0, i32 0, null, i32 258, i1 false, null, null, i32 0, null, i32 1804} ; [ DW_TAG_subprogram ] [line 1804] [protected] [_M_fill_assign]
!208 = metadata !{i32 786478, metadata !8, metadata !"_ZTSSt5dequeIdSaIdEE", metadata !"_M_push_back_aux", metadata !"_M_push_back_aux", metadata !"_ZNSt5dequeIdSaIdEE16_M_push_back_auxERKd", i32 1821, metadata !185, i1 false, i1 false, i32 0, i32 0, null, i32 258, i1 false, null, null, i32 0, null, i32 1821} ; [ DW_TAG_subprogram ] [line 1821] [protected] [_M_push_back_aux]
!209 = metadata !{i32 786478, metadata !8, metadata !"_ZTSSt5dequeIdSaIdEE", metadata !"_M_push_front_aux", metadata !"_M_push_front_aux", metadata !"_ZNSt5dequeIdSaIdEE17_M_push_front_auxERKd", i32 1823, metadata !185, i1 false, i1 false, i32 0, i32 0, null, i32 258, i1 false, null, null, i32 0, null, i32 1823} ; [ DW_TAG_subprogram ] [line 1823] [protected] [_M_push_front_aux]
!210 = metadata !{i32 786478, metadata !8, metadata !"_ZTSSt5dequeIdSaIdEE", metadata !"_M_pop_back_aux", metadata !"_M_pop_back_aux", metadata !"_ZNSt5dequeIdSaIdEE15_M_pop_back_auxEv", i32 1832, metadata !103, i1 false, i1 false, i32 0, i32 0, null, i32 258, i1 false, null, null, i32 0, null, i32 1832} ; [ DW_TAG_subprogram ] [line 1832] [protected] [_M_pop_back_aux]
!211 = metadata !{i32 786478, metadata !8, metadata !"_ZTSSt5dequeIdSaIdEE", metadata !"_M_pop_front_aux", metadata !"_M_pop_front_aux", metadata !"_ZNSt5dequeIdSaIdEE16_M_pop_front_auxEv", i32 1834, metadata !103, i1 false, i1 false, i32 0, i32 0, null, i32 258, i1 false, null, null, i32 0, null, i32 1834} ; [ DW_TAG_subprogram ] [line 1834] [protected] [_M_pop_front_aux]
!212 = metadata !{i32 786478, metadata !8, metadata !"_ZTSSt5dequeIdSaIdEE", metadata !"_M_fill_insert", metadata !"_M_fill_insert", metadata !"_ZNSt5dequeIdSaIdEE14_M_fill_insertESt15_Deque_iteratorIdRdPdEjRKd", i32 1878, metadata !194, i1 false, i1 false, i32 0, i32 0, null, i32 258, i1 false, null, null, i32 0, null, i32 1878} ; [ DW_TAG_subprogram ] [line 1878] [protected] [_M_fill_insert]
!213 = metadata !{i32 786478, metadata !8, metadata !"_ZTSSt5dequeIdSaIdEE", metadata !"_M_insert_aux", metadata !"_M_insert_aux", metadata !"_ZNSt5dequeIdSaIdEE13_M_insert_auxESt15_Deque_iteratorIdRdPdERKd", i32 1883, metadata !191, i1 false, i1 false, i32 0, i32 0, null, i32 258, i1 false, null, null, i32 0, null, i32 1883} ; [ DW_TAG_subprogram ] [line 1883] [protected] [_M_insert_aux]
!214 = metadata !{i32 786478, metadata !8, metadata !"_ZTSSt5dequeIdSaIdEE", metadata !"_M_insert_aux", metadata !"_M_insert_aux", metadata !"_ZNSt5dequeIdSaIdEE13_M_insert_auxESt15_Deque_iteratorIdRdPdEjRKd", i32 1892, metadata !194, i1 false, i1 false, i32 0, i32 0, null, i32 258, i1 false, null, null, i32 0, null, i32 1892} ; [ DW_TAG_subprogram ] [line 1892] [protected] [_M_insert_aux]
!215 = metadata !{i32 786478, metadata !8, metadata !"_ZTSSt5dequeIdSaIdEE", metadata !"_M_destroy_data_aux", metadata !"_M_destroy_data_aux", metadata !"_ZNSt5dequeIdSaIdEE19_M_destroy_data_auxESt15_Deque_iteratorIdRdPdES5_", i32 1905, metadata !216, i1 false, i1 false, i32 0, i32 0, null, i32 258, i1 false, null, null, i32 0, null, i32 1905} ; [ DW_TAG_subprogram ] [line 1905] [protected] [_M_destroy_data_aux]
!216 = metadata !{i32 786453, i32 0, null, metadata !"", i32 0, i64 0, i64 0, i64 0, i32 0, null, metadata !217, i32 0, null, null, null} ; [ DW_TAG_subroutine_type ] [line 0, size 0, align 0, offset 0] [from ]
!217 = metadata !{null, metadata !105, metadata !136, metadata !136}
!218 = metadata !{i32 786478, metadata !8, metadata !"_ZTSSt5dequeIdSaIdEE", metadata !"_M_destroy_data", metadata !"_M_destroy_data", metadata !"_ZNSt5dequeIdSaIdEE15_M_destroy_dataESt15_Deque_iteratorIdRdPdES5_RKS0_", i32 1915, metadata !219, i1 false, i1 false, i32 0, i32 0, null, i32 258, i1 false, null, null, i32 0, null, i32 1915} ; [ DW_TAG_subprogram ] [line 1915] [protected] [_M_destroy_data]
!219 = metadata !{i32 786453, i32 0, null, metadata !"", i32 0, i64 0, i64 0, i64 0, i32 0, null, metadata !220, i32 0, null, null, null} ; [ DW_TAG_subroutine_type ] [line 0, size 0, align 0, offset 0] [from ]
!220 = metadata !{null, metadata !105, metadata !136, metadata !136, metadata !221}
!221 = metadata !{i32 786448, null, null, null, i32 0, i64 0, i64 0, i64 0, i32 0, metadata !222} ; [ DW_TAG_reference_type ] [line 0, size 0, align 0, offset 0] [from ]
!222 = metadata !{i32 786470, null, null, metadata !"", i32 0, i64 0, i64 0, i64 0, i32 0, metadata !"_ZTSSaIdE"} ; [ DW_TAG_const_type ] [line 0, size 0, align 0, offset 0] [from _ZTSSaIdE]
!223 = metadata !{i32 786478, metadata !8, metadata !"_ZTSSt5dequeIdSaIdEE", metadata !"_M_erase_at_begin", metadata !"_M_erase_at_begin", metadata !"_ZNSt5dequeIdSaIdEE17_M_erase_at_beginESt15_Deque_iteratorIdRdPdE", i32 1924, metadata !224, i1 false, i1 false, i32 0, i32 0, null, i32 258, i1 false, null, null, i32 0, null, i32 1924} ; [ DW_TAG_subprogram ] [line 1924] [protected] [_M_erase_at_begin]
!224 = metadata !{i32 786453, i32 0, null, metadata !"", i32 0, i64 0, i64 0, i64 0, i32 0, null, metadata !225, i32 0, null, null, null} ; [ DW_TAG_subroutine_type ] [line 0, size 0, align 0, offset 0] [from ]
!225 = metadata !{null, metadata !105, metadata !136}
!226 = metadata !{i32 786478, metadata !8, metadata !"_ZTSSt5dequeIdSaIdEE", metadata !"_M_erase_at_end", metadata !"_M_erase_at_end", metadata !"_ZNSt5dequeIdSaIdEE15_M_erase_at_endESt15_Deque_iteratorIdRdPdE", i32 1934, metadata !224, i1 false, i1 false, i32 0, i32 0, null, i32 258, i1 false, null, null, i32 0, null, i32 1934} ; [ DW_TAG_subprogram ] [line 1934] [protected] [_M_erase_at_end]
!227 = metadata !{i32 786478, metadata !8, metadata !"_ZTSSt5dequeIdSaIdEE", metadata !"_M_erase", metadata !"_M_erase", metadata !"_ZNSt5dequeIdSaIdEE8_M_eraseESt15_Deque_iteratorIdRdPdE", i32 1943, metadata !197, i1 false, i1 false, i32 0, i32 0, null, i32 258, i1 false, null, null, i32 0, null, i32 1943} ; [ DW_TAG_subprogram ] [line 1943] [protected] [_M_erase]
!228 = metadata !{i32 786478, metadata !8, metadata !"_ZTSSt5dequeIdSaIdEE", metadata !"_M_erase", metadata !"_M_erase", metadata !"_ZNSt5dequeIdSaIdEE8_M_eraseESt15_Deque_iteratorIdRdPdES5_", i32 1946, metadata !200, i1 false, i1 false, i32 0, i32 0, null, i32 258, i1 false, null, null, i32 0, null, i32 1946} ; [ DW_TAG_subprogram ] [line 1946] [protected] [_M_erase]
!229 = metadata !{i32 786478, metadata !8, metadata !"_ZTSSt5dequeIdSaIdEE", metadata !"_M_reserve_elements_at_front", metadata !"_M_reserve_elements_at_front", metadata !"_ZNSt5dequeIdSaIdEE28_M_reserve_elements_at_frontEj", i32 1960, metadata !230, i1 false, i1 false, i32 0, i32 0, null, i32 258, i1 false, null, null, i32 0, null, i32 1960} ; [ DW_TAG_subprogram ] [line 1960] [protected] [_M_reserve_elements_at_front]
!230 = metadata !{i32 786453, i32 0, null, metadata !"", i32 0, i64 0, i64 0, i64 0, i32 0, null, metadata !231, i32 0, null, null, null} ; [ DW_TAG_subroutine_type ] [line 0, size 0, align 0, offset 0] [from ]
!231 = metadata !{metadata !136, metadata !105, metadata !115}
!232 = metadata !{i32 786478, metadata !8, metadata !"_ZTSSt5dequeIdSaIdEE", metadata !"_M_reserve_elements_at_back", metadata !"_M_reserve_elements_at_back", metadata !"_ZNSt5dequeIdSaIdEE27_M_reserve_elements_at_backEj", i32 1970, metadata !230, i1 false, i1 false, i32 0, i32 0, null, i32 258, i1 false, null, null, i32 0, null, i32 1970} ; [ DW_TAG_subprogram ] [line 1970] [protected] [_M_reserve_elements_at_back]
!233 = metadata !{i32 786478, metadata !8, metadata !"_ZTSSt5dequeIdSaIdEE", metadata !"_M_new_elements_at_front", metadata !"_M_new_elements_at_front", metadata !"_ZNSt5dequeIdSaIdEE24_M_new_elements_at_frontEj", i32 1980, metadata !234, i1 false, i1 false, i32 0, i32 0, null, i32 258, i1 false, null, null, i32 0, null, i32 1980} ; [ DW_TAG_subprogram ] [line 1980] [protected] [_M_new_elements_at_front]
!234 = metadata !{i32 786453, i32 0, null, metadata !"", i32 0, i64 0, i64 0, i64 0, i32 0, null, metadata !235, i32 0, null, null, null} ; [ DW_TAG_subroutine_type ] [line 0, size 0, align 0, offset 0] [from ]
!235 = metadata !{null, metadata !105, metadata !115}
!236 = metadata !{i32 786478, metadata !8, metadata !"_ZTSSt5dequeIdSaIdEE", metadata !"_M_new_elements_at_back", metadata !"_M_new_elements_at_back", metadata !"_ZNSt5dequeIdSaIdEE23_M_new_elements_at_backEj", i32 1983, metadata !234, i1 false, i1 false, i32 0, i32 0, null, i32 258, i1 false, null, null, i32 0, null, i32 1983} ; [ DW_TAG_subprogram ] [line 1983] [protected] [_M_new_elements_at_back]
!237 = metadata !{i32 786478, metadata !8, metadata !"_ZTSSt5dequeIdSaIdEE", metadata !"_M_reserve_map_at_back", metadata !"_M_reserve_map_at_back", metadata !"_ZNSt5dequeIdSaIdEE22_M_reserve_map_at_backEj", i32 1996, metadata !234, i1 false, i1 false, i32 0, i32 0, null, i32 258, i1 false, null, null, i32 0, null, i32 1996} ; [ DW_TAG_subprogram ] [line 1996] [protected] [_M_reserve_map_at_back]
!238 = metadata !{i32 786478, metadata !8, metadata !"_ZTSSt5dequeIdSaIdEE", metadata !"_M_reserve_map_at_front", metadata !"_M_reserve_map_at_front", metadata !"_ZNSt5dequeIdSaIdEE23_M_reserve_map_at_frontEj", i32 2004, metadata !234, i1 false, i1 false, i32 0, i32 0, null, i32 258, i1 false, null, null, i32 0, null, i32 2004} ; [ DW_TAG_subprogram ] [line 2004] [protected] [_M_reserve_map_at_front]
!239 = metadata !{i32 786478, metadata !8, metadata !"_ZTSSt5dequeIdSaIdEE", metadata !"_M_reallocate_map", metadata !"_M_reallocate_map", metadata !"_ZNSt5dequeIdSaIdEE17_M_reallocate_mapEjb", i32 2012, metadata !240, i1 false, i1 false, i32 0, i32 0, null, i32 258, i1 false, null, null, i32 0, null, i32 2012} ; [ DW_TAG_subprogram ] [line 2012] [protected] [_M_reallocate_map]
!240 = metadata !{i32 786453, i32 0, null, metadata !"", i32 0, i64 0, i64 0, i64 0, i32 0, null, metadata !241, i32 0, null, null, null} ; [ DW_TAG_subroutine_type ] [line 0, size 0, align 0, offset 0] [from ]
!241 = metadata !{null, metadata !105, metadata !115, metadata !56}
!242 = metadata !{metadata !94, metadata !243}
!243 = metadata !{i32 786479, null, metadata !"_Alloc", metadata !"_ZTSSaIdE", null, i32 0, i32 0} ; [ DW_TAG_template_type_parameter ]
