; ModuleID = '/home/vgr16/nfshome/face_with_corner/src/xillinio/xillinio.cpp'
target datalayout = "e-m:e-p:32:32-i64:64-v128:64:128-n32-S64"
target triple = "armv7-xilinx-linux-gnueabi"

%"class.std::map" = type { %"class.std::_Rb_tree" }
%"class.std::_Rb_tree" = type { %"struct.std::_Rb_tree<unsigned int, std::pair<const unsigned int, std::pair<unsigned int, unsigned int> >, std::_Select1st<std::pair<const unsigned int, std::pair<unsigned int, unsigned int> > >, std::less<unsigned int>, std::allocator<std::pair<const unsigned int, std::pair<unsigned int, unsigned int> > > >::_Rb_tree_impl" }
%"struct.std::_Rb_tree<unsigned int, std::pair<const unsigned int, std::pair<unsigned int, unsigned int> >, std::_Select1st<std::pair<const unsigned int, std::pair<unsigned int, unsigned int> > >, std::less<unsigned int>, std::allocator<std::pair<const unsigned int, std::pair<unsigned int, unsigned int> > > >::_Rb_tree_impl" = type { %"struct.std::less", %"struct.std::_Rb_tree_node_base", i32 }
%"struct.std::less" = type { i8 }
%"struct.std::_Rb_tree_node_base" = type { i32, %"struct.std::_Rb_tree_node_base"*, %"struct.std::_Rb_tree_node_base"*, %"struct.std::_Rb_tree_node_base"* }
%class.xil_lin_io = type { i32 (...)** }
%"struct.std::pair" = type { i32, i32 }
%"struct.std::_Rb_tree_iterator" = type { %"struct.std::_Rb_tree_node_base"* }
%"struct.std::pair.0" = type { i32, %"struct.std::pair" }
%"struct.std::_Rb_tree_node" = type { %"struct.std::_Rb_tree_node_base", %"struct.std::pair.0" }
%"struct.std::_Select1st" = type { i8 }
%"struct.std::_Rb_tree_const_iterator" = type { %"struct.std::_Rb_tree_node_base"* }
%"struct.std::pair.1" = type { %"struct.std::_Rb_tree_node_base"*, %"struct.std::_Rb_tree_node_base"* }
%"class.std::allocator.2" = type { i8 }
%"class.__gnu_cxx::new_allocator.3" = type { i8 }
%"class.std::allocator" = type { i8 }
%"class.__gnu_cxx::new_allocator" = type { i8 }

@_ZN10xil_lin_io4pToVE = global %"class.std::map" zeroinitializer, align 4
@__dso_handle = external global i8
@_ZN10xil_lin_io2fdE = global i32 -1, align 4
@_ZTV10xil_lin_io = unnamed_addr constant [4 x i8*] [i8* null, i8* bitcast ({ i8*, i8* }* @_ZTI10xil_lin_io to i8*), i8* bitcast (%class.xil_lin_io* (%class.xil_lin_io*)* @_ZN10xil_lin_ioD1Ev to i8*), i8* bitcast (void (%class.xil_lin_io*)* @_ZN10xil_lin_ioD0Ev to i8*)]
@.str = private unnamed_addr constant [9 x i8] c"/dev/mem\00", align 1
@.str1 = private unnamed_addr constant [24 x i8] c"Couldn't open /dev/mem\0A\00", align 1
@.str2 = private unnamed_addr constant [16 x i8] c"Already mapped\0A\00", align 1
@.str3 = private unnamed_addr constant [59 x i8] c"VirtualAddress mapping for absolute memory access failed.\0A\00", align 1
@.str4 = private unnamed_addr constant [51 x i8] c"physAddr : 0x%08x virtAddr : 0x%08x sizeByte : %u\0A\00", align 1
@_ZTVN10__cxxabiv117__class_type_infoE = external global i8*
@_ZTS10xil_lin_io = constant [13 x i8] c"10xil_lin_io\00"
@_ZTI10xil_lin_io = constant { i8*, i8* } { i8* bitcast (i8** getelementptr inbounds (i8** @_ZTVN10__cxxabiv117__class_type_infoE, i32 2) to i8*), i8* getelementptr inbounds ([13 x i8]* @_ZTS10xil_lin_io, i32 0, i32 0) }
@llvm.global_ctors = appending global [1 x { i32, void ()*, i8* }] [{ i32, void ()*, i8* } { i32 65535, void ()* @_GLOBAL__sub_I_xillinio.cpp, i8* null }]

@_ZN10xil_lin_ioC1Ev = alias %class.xil_lin_io* (%class.xil_lin_io*)* @_ZN10xil_lin_ioC2Ev
@_ZN10xil_lin_ioD1Ev = alias %class.xil_lin_io* (%class.xil_lin_io*)* @_ZN10xil_lin_ioD2Ev

define internal void @__cxx_global_var_init() section ".text.startup" {
  %1 = call %"class.std::map"* @_ZNSt3mapIjSt4pairIjjESt4lessIjESaIS0_IKjS1_EEEC2Ev(%"class.std::map"* @_ZN10xil_lin_io4pToVE), !dbg !1134
  %2 = call i32 @__cxa_atexit(void (i8*)* bitcast (%"class.std::map"* (%"class.std::map"*)* @_ZNSt3mapIjSt4pairIjjESt4lessIjESaIS0_IKjS1_EEED2Ev to void (i8*)*), i8* getelementptr inbounds (%"class.std::map"* @_ZN10xil_lin_io4pToVE, i32 0, i32 0, i32 0, i32 0, i32 0), i8* @__dso_handle) #2, !dbg !1134
  ret void, !dbg !1134
}

define linkonce_odr %"class.std::map"* @_ZNSt3mapIjSt4pairIjjESt4lessIjESaIS0_IKjS1_EEEC2Ev(%"class.std::map"* returned %this) unnamed_addr #0 align 2 {
  %1 = alloca %"class.std::map"*, align 4
  store %"class.std::map"* %this, %"class.std::map"** %1, align 4
  call void @llvm.dbg.declare(metadata !{%"class.std::map"** %1}, metadata !1135), !dbg !1137
  %2 = load %"class.std::map"** %1
  %3 = getelementptr inbounds %"class.std::map"* %2, i32 0, i32 0, !dbg !1138
  %4 = call %"class.std::_Rb_tree"* @_ZNSt8_Rb_treeIjSt4pairIKjS0_IjjEESt10_Select1stIS3_ESt4lessIjESaIS3_EEC2Ev(%"class.std::_Rb_tree"* %3), !dbg !1138
  ret %"class.std::map"* %2, !dbg !1139
}

; Function Attrs: inlinehint
define linkonce_odr %"class.std::map"* @_ZNSt3mapIjSt4pairIjjESt4lessIjESaIS0_IKjS1_EEED2Ev(%"class.std::map"* returned %this) unnamed_addr #1 align 2 {
  %1 = alloca %"class.std::map"*, align 4
  store %"class.std::map"* %this, %"class.std::map"** %1, align 4
  call void @llvm.dbg.declare(metadata !{%"class.std::map"** %1}, metadata !1140), !dbg !1141
  %2 = load %"class.std::map"** %1
  %3 = getelementptr inbounds %"class.std::map"* %2, i32 0, i32 0, !dbg !1142
  %4 = call %"class.std::_Rb_tree"* @_ZNSt8_Rb_treeIjSt4pairIKjS0_IjjEESt10_Select1stIS3_ESt4lessIjESaIS3_EED2Ev(%"class.std::_Rb_tree"* %3), !dbg !1142
  ret %"class.std::map"* %2, !dbg !1144
}

; Function Attrs: nounwind
declare i32 @__cxa_atexit(void (i8*)*, i8*, i8*) #2

; Function Attrs: nounwind
define %class.xil_lin_io* @_ZN10xil_lin_ioC2Ev(%class.xil_lin_io* returned %this) unnamed_addr #3 align 2 {
  %1 = alloca %class.xil_lin_io*, align 4
  store %class.xil_lin_io* %this, %class.xil_lin_io** %1, align 4
  call void @llvm.dbg.declare(metadata !{%class.xil_lin_io** %1}, metadata !1145), !dbg !1147
  %2 = load %class.xil_lin_io** %1
  %3 = bitcast %class.xil_lin_io* %2 to i8***, !dbg !1148
  store i8** getelementptr inbounds ([4 x i8*]* @_ZTV10xil_lin_io, i64 0, i64 2), i8*** %3, !dbg !1148
  ret %class.xil_lin_io* %2, !dbg !1149
}

; Function Attrs: nounwind readnone
declare void @llvm.dbg.declare(metadata, metadata) #4

define i32 @_ZN10xil_lin_io8Xil_In32Ejj(i32 %physBaseAddr, i32 %offs) #0 align 2 {
  %1 = alloca i32, align 4
  %2 = alloca i32, align 4
  store i32 %physBaseAddr, i32* %1, align 4
  call void @llvm.dbg.declare(metadata !{i32* %1}, metadata !1150), !dbg !1151
  store i32 %offs, i32* %2, align 4
  call void @llvm.dbg.declare(metadata !{i32* %2}, metadata !1152), !dbg !1153
  %3 = call dereferenceable(8) %"struct.std::pair"* @_ZNSt3mapIjSt4pairIjjESt4lessIjESaIS0_IKjS1_EEEixERS4_(%"class.std::map"* @_ZN10xil_lin_io4pToVE, i32* dereferenceable(4) %1), !dbg !1154
  %4 = getelementptr inbounds %"struct.std::pair"* %3, i32 0, i32 0, !dbg !1154
  %5 = load i32* %4, align 4, !dbg !1154
  %6 = load i32* %2, align 4, !dbg !1154
  %7 = add i32 %5, %6, !dbg !1154
  %8 = inttoptr i32 %7 to i32*, !dbg !1154
  %9 = load i32* %8, align 4, !dbg !1154
  ret i32 %9, !dbg !1154
}

define linkonce_odr dereferenceable(8) %"struct.std::pair"* @_ZNSt3mapIjSt4pairIjjESt4lessIjESaIS0_IKjS1_EEEixERS4_(%"class.std::map"* %this, i32* dereferenceable(4) %__k) #0 align 2 {
  %1 = alloca %"class.std::map"*, align 4
  %2 = alloca i32*, align 4
  %__i = alloca %"struct.std::_Rb_tree_iterator", align 4
  %3 = alloca %"struct.std::_Rb_tree_iterator", align 4
  %4 = alloca %"struct.std::less", align 1
  %5 = alloca %"struct.std::_Rb_tree_iterator", align 4
  %6 = alloca %"struct.std::_Rb_tree_iterator", align 4
  %7 = alloca %"struct.std::pair.0", align 4
  %8 = alloca %"struct.std::pair", align 4
  store %"class.std::map"* %this, %"class.std::map"** %1, align 4
  call void @llvm.dbg.declare(metadata !{%"class.std::map"** %1}, metadata !1155), !dbg !1156
  store i32* %__k, i32** %2, align 4
  call void @llvm.dbg.declare(metadata !{i32** %2}, metadata !1157), !dbg !1159
  %9 = load %"class.std::map"** %1
  call void @llvm.dbg.declare(metadata !{%"struct.std::_Rb_tree_iterator"* %__i}, metadata !1160), !dbg !1161
  %10 = load i32** %2, align 4, !dbg !1162
  %11 = call i32 @_ZNSt3mapIjSt4pairIjjESt4lessIjESaIS0_IKjS1_EEE11lower_boundERS4_(%"class.std::map"* %9, i32* dereferenceable(4) %10), !dbg !1162
  %12 = getelementptr %"struct.std::_Rb_tree_iterator"* %__i, i32 0, i32 0, !dbg !1162
  %13 = inttoptr i32 %11 to %"struct.std::_Rb_tree_node_base"*, !dbg !1162
  store %"struct.std::_Rb_tree_node_base"* %13, %"struct.std::_Rb_tree_node_base"** %12, !dbg !1162
  %14 = call i32 @_ZNSt3mapIjSt4pairIjjESt4lessIjESaIS0_IKjS1_EEE3endEv(%"class.std::map"* %9), !dbg !1163
  %15 = getelementptr %"struct.std::_Rb_tree_iterator"* %3, i32 0, i32 0, !dbg !1163
  %16 = inttoptr i32 %14 to %"struct.std::_Rb_tree_node_base"*, !dbg !1163
  store %"struct.std::_Rb_tree_node_base"* %16, %"struct.std::_Rb_tree_node_base"** %15, !dbg !1163
  %17 = call zeroext i1 @_ZNKSt17_Rb_tree_iteratorISt4pairIKjS0_IjjEEEeqERKS4_(%"struct.std::_Rb_tree_iterator"* %__i, %"struct.std::_Rb_tree_iterator"* dereferenceable(4) %3), !dbg !1165
  br i1 %17, label %23, label %18, !dbg !1165

; <label>:18                                      ; preds = %0
  call void @_ZNKSt3mapIjSt4pairIjjESt4lessIjESaIS0_IKjS1_EEE8key_compEv(%"class.std::map"* %9), !dbg !1166
  %19 = load i32** %2, align 4, !dbg !1166
  %20 = call dereferenceable(12) %"struct.std::pair.0"* @_ZNKSt17_Rb_tree_iteratorISt4pairIKjS0_IjjEEEdeEv(%"struct.std::_Rb_tree_iterator"* %__i), !dbg !1168
  %21 = getelementptr inbounds %"struct.std::pair.0"* %20, i32 0, i32 0, !dbg !1168
  %22 = call zeroext i1 @_ZNKSt4lessIjEclERKjS2_(%"struct.std::less"* %4, i32* dereferenceable(4) %19, i32* dereferenceable(4) %21), !dbg !1169
  br i1 %22, label %23, label %37, !dbg !1169

; <label>:23                                      ; preds = %18, %0
  %24 = bitcast %"struct.std::_Rb_tree_iterator"* %6 to i8*, !dbg !1170
  %25 = bitcast %"struct.std::_Rb_tree_iterator"* %__i to i8*, !dbg !1170
  call void @llvm.memcpy.p0i8.p0i8.i32(i8* %24, i8* %25, i32 4, i32 4, i1 false), !dbg !1170
  %26 = load i32** %2, align 4, !dbg !1170
  %27 = call %"struct.std::pair"* @_ZNSt4pairIjjEC2Ev(%"struct.std::pair"* %8), !dbg !1170
  %28 = call %"struct.std::pair.0"* @_ZNSt4pairIKjS_IjjEEC2ERS0_RKS1_(%"struct.std::pair.0"* %7, i32* dereferenceable(4) %26, %"struct.std::pair"* dereferenceable(8) %8), !dbg !1170
  %29 = bitcast %"struct.std::_Rb_tree_iterator"* %6 to { [1 x i32] }*, !dbg !1170
  %30 = getelementptr { [1 x i32] }* %29, i32 0, i32 0, !dbg !1170
  %31 = load [1 x i32]* %30, align 1, !dbg !1170
  %32 = call i32 @_ZNSt3mapIjSt4pairIjjESt4lessIjESaIS0_IKjS1_EEE6insertESt17_Rb_tree_iteratorIS5_ERKS5_(%"class.std::map"* %9, [1 x i32] %31, %"struct.std::pair.0"* dereferenceable(12) %7), !dbg !1170
  %33 = getelementptr %"struct.std::_Rb_tree_iterator"* %5, i32 0, i32 0, !dbg !1170
  %34 = inttoptr i32 %32 to %"struct.std::_Rb_tree_node_base"*, !dbg !1170
  store %"struct.std::_Rb_tree_node_base"* %34, %"struct.std::_Rb_tree_node_base"** %33, !dbg !1170
  %35 = bitcast %"struct.std::_Rb_tree_iterator"* %__i to i8*, !dbg !1170
  %36 = bitcast %"struct.std::_Rb_tree_iterator"* %5 to i8*, !dbg !1170
  call void @llvm.memcpy.p0i8.p0i8.i32(i8* %35, i8* %36, i32 4, i32 4, i1 false), !dbg !1170
  br label %37, !dbg !1170

; <label>:37                                      ; preds = %23, %18
  %38 = call dereferenceable(12) %"struct.std::pair.0"* @_ZNKSt17_Rb_tree_iteratorISt4pairIKjS0_IjjEEEdeEv(%"struct.std::_Rb_tree_iterator"* %__i), !dbg !1171
  %39 = getelementptr inbounds %"struct.std::pair.0"* %38, i32 0, i32 1, !dbg !1171
  ret %"struct.std::pair"* %39, !dbg !1171
}

define void @_ZN10xil_lin_io9Xil_Out32Ejjj(i32 %physBaseAddr, i32 %offs, i32 %value) #0 align 2 {
  %1 = alloca i32, align 4
  %2 = alloca i32, align 4
  %3 = alloca i32, align 4
  store i32 %physBaseAddr, i32* %1, align 4
  call void @llvm.dbg.declare(metadata !{i32* %1}, metadata !1172), !dbg !1173
  store i32 %offs, i32* %2, align 4
  call void @llvm.dbg.declare(metadata !{i32* %2}, metadata !1174), !dbg !1175
  store i32 %value, i32* %3, align 4
  call void @llvm.dbg.declare(metadata !{i32* %3}, metadata !1176), !dbg !1177
  %4 = load i32* %3, align 4, !dbg !1178
  %5 = call dereferenceable(8) %"struct.std::pair"* @_ZNSt3mapIjSt4pairIjjESt4lessIjESaIS0_IKjS1_EEEixERS4_(%"class.std::map"* @_ZN10xil_lin_io4pToVE, i32* dereferenceable(4) %1), !dbg !1179
  %6 = getelementptr inbounds %"struct.std::pair"* %5, i32 0, i32 0, !dbg !1179
  %7 = load i32* %6, align 4, !dbg !1179
  %8 = load i32* %2, align 4, !dbg !1179
  %9 = add i32 %7, %8, !dbg !1179
  %10 = inttoptr i32 %9 to i32*, !dbg !1179
  store i32 %4, i32* %10, align 4, !dbg !1179
  ret void, !dbg !1180
}

define i32 @_ZN10xil_lin_io10mapAddAddrEjj(%class.xil_lin_io* %this, i32 %physBaseAddr, i32 %size) #0 align 2 {
  %1 = alloca i32, align 4
  %2 = alloca %class.xil_lin_io*, align 4
  %3 = alloca i32, align 4
  %4 = alloca i32, align 4
  %5 = alloca %"struct.std::_Rb_tree_iterator", align 4
  %6 = alloca %"struct.std::_Rb_tree_iterator", align 4
  %virt_addr = alloca i32*, align 4
  %7 = alloca %"struct.std::pair", align 4
  store %class.xil_lin_io* %this, %class.xil_lin_io** %2, align 4
  call void @llvm.dbg.declare(metadata !{%class.xil_lin_io** %2}, metadata !1181), !dbg !1182
  store i32 %physBaseAddr, i32* %3, align 4
  call void @llvm.dbg.declare(metadata !{i32* %3}, metadata !1183), !dbg !1184
  store i32 %size, i32* %4, align 4
  call void @llvm.dbg.declare(metadata !{i32* %4}, metadata !1185), !dbg !1186
  %8 = load %class.xil_lin_io** %2
  %9 = load i32* @_ZN10xil_lin_io2fdE, align 4, !dbg !1187
  %10 = icmp slt i32 %9, 1, !dbg !1187
  br i1 %10, label %11, label %18, !dbg !1187

; <label>:11                                      ; preds = %0
  %12 = call i32 (i8*, i32, ...)* @open(i8* getelementptr inbounds ([9 x i8]* @.str, i32 0, i32 0), i32 2), !dbg !1189
  store i32 %12, i32* @_ZN10xil_lin_io2fdE, align 4, !dbg !1189
  %13 = load i32* @_ZN10xil_lin_io2fdE, align 4, !dbg !1191
  %14 = icmp slt i32 %13, 1, !dbg !1191
  br i1 %14, label %15, label %17, !dbg !1191

; <label>:15                                      ; preds = %11
  %16 = call i32 (i8*, ...)* @printf(i8* getelementptr inbounds ([24 x i8]* @.str1, i32 0, i32 0)), !dbg !1193
  store i32 1, i32* %1, !dbg !1195
  br label %46, !dbg !1195

; <label>:17                                      ; preds = %11
  br label %18, !dbg !1196

; <label>:18                                      ; preds = %17, %0
  %19 = call i32 @_ZNSt3mapIjSt4pairIjjESt4lessIjESaIS0_IKjS1_EEE4findERS4_(%"class.std::map"* @_ZN10xil_lin_io4pToVE, i32* dereferenceable(4) %3), !dbg !1197
  %20 = getelementptr %"struct.std::_Rb_tree_iterator"* %5, i32 0, i32 0, !dbg !1197
  %21 = inttoptr i32 %19 to %"struct.std::_Rb_tree_node_base"*, !dbg !1197
  store %"struct.std::_Rb_tree_node_base"* %21, %"struct.std::_Rb_tree_node_base"** %20, !dbg !1197
  %22 = call i32 @_ZNSt3mapIjSt4pairIjjESt4lessIjESaIS0_IKjS1_EEE3endEv(%"class.std::map"* @_ZN10xil_lin_io4pToVE), !dbg !1199
  %23 = getelementptr %"struct.std::_Rb_tree_iterator"* %6, i32 0, i32 0, !dbg !1199
  %24 = inttoptr i32 %22 to %"struct.std::_Rb_tree_node_base"*, !dbg !1199
  store %"struct.std::_Rb_tree_node_base"* %24, %"struct.std::_Rb_tree_node_base"** %23, !dbg !1199
  %25 = call zeroext i1 @_ZNKSt17_Rb_tree_iteratorISt4pairIKjS0_IjjEEEneERKS4_(%"struct.std::_Rb_tree_iterator"* %5, %"struct.std::_Rb_tree_iterator"* dereferenceable(4) %6), !dbg !1197
  br i1 %25, label %26, label %28, !dbg !1197

; <label>:26                                      ; preds = %18
  %27 = call i32 (i8*, ...)* @printf(i8* getelementptr inbounds ([16 x i8]* @.str2, i32 0, i32 0)), !dbg !1200
  store i32 1, i32* %1, !dbg !1202
  br label %46, !dbg !1202

; <label>:28                                      ; preds = %18
  call void @llvm.dbg.declare(metadata !{i32** %virt_addr}, metadata !1203), !dbg !1205
  %29 = load i32* %4, align 4, !dbg !1206
  %30 = load i32* @_ZN10xil_lin_io2fdE, align 4, !dbg !1206
  %31 = load i32* %3, align 4, !dbg !1206
  %32 = call i8* @mmap(i8* null, i32 %29, i32 3, i32 1, i32 %30, i32 %31) #2, !dbg !1206
  %33 = bitcast i8* %32 to i32*, !dbg !1206
  store i32* %33, i32** %virt_addr, align 4, !dbg !1206
  %34 = load i32** %virt_addr, align 4, !dbg !1207
  %35 = bitcast i32* %34 to i8*, !dbg !1207
  %36 = icmp eq i8* %35, inttoptr (i32 -1 to i8*), !dbg !1207
  br i1 %36, label %37, label %39, !dbg !1207

; <label>:37                                      ; preds = %28
  %38 = call i32 (i8*, ...)* @printf(i8* getelementptr inbounds ([59 x i8]* @.str3, i32 0, i32 0)), !dbg !1209
  store i32 1, i32* %1, !dbg !1211
  br label %46, !dbg !1211

; <label>:39                                      ; preds = %28
  %40 = call dereferenceable(8) %"struct.std::pair"* @_ZNSt3mapIjSt4pairIjjESt4lessIjESaIS0_IKjS1_EEEixERS4_(%"class.std::map"* @_ZN10xil_lin_io4pToVE, i32* dereferenceable(4) %3), !dbg !1212
  %41 = load i32** %virt_addr, align 4, !dbg !1213
  %42 = ptrtoint i32* %41 to i32, !dbg !1213
  %43 = load i32* %4, align 4, !dbg !1213
  call void @_ZSt9make_pairIjjESt4pairIT_T0_ES1_S2_(%"struct.std::pair"* sret %7, i32 %42, i32 %43), !dbg !1213
  %44 = bitcast %"struct.std::pair"* %40 to i8*, !dbg !1213
  %45 = bitcast %"struct.std::pair"* %7 to i8*, !dbg !1213
  call void @llvm.memcpy.p0i8.p0i8.i32(i8* %44, i8* %45, i32 8, i32 4, i1 false), !dbg !1213
  store i32 0, i32* %1, !dbg !1214
  br label %46, !dbg !1214

; <label>:46                                      ; preds = %39, %37, %26, %15
  %47 = load i32* %1, !dbg !1215
  ret i32 %47, !dbg !1215
}

declare i32 @open(i8*, i32, ...) #0

declare i32 @printf(i8*, ...) #0

define linkonce_odr i32 @_ZNSt3mapIjSt4pairIjjESt4lessIjESaIS0_IKjS1_EEE4findERS4_(%"class.std::map"* %this, i32* dereferenceable(4) %__x) #0 align 2 {
  %1 = alloca %"struct.std::_Rb_tree_iterator", align 4
  %2 = alloca %"class.std::map"*, align 4
  %3 = alloca i32*, align 4
  store %"class.std::map"* %this, %"class.std::map"** %2, align 4
  call void @llvm.dbg.declare(metadata !{%"class.std::map"** %2}, metadata !1216), !dbg !1217
  store i32* %__x, i32** %3, align 4
  call void @llvm.dbg.declare(metadata !{i32** %3}, metadata !1218), !dbg !1219
  %4 = load %"class.std::map"** %2
  %5 = getelementptr inbounds %"class.std::map"* %4, i32 0, i32 0, !dbg !1220
  %6 = load i32** %3, align 4, !dbg !1220
  %7 = call i32 @_ZNSt8_Rb_treeIjSt4pairIKjS0_IjjEESt10_Select1stIS3_ESt4lessIjESaIS3_EE4findERS1_(%"class.std::_Rb_tree"* %5, i32* dereferenceable(4) %6), !dbg !1220
  %8 = getelementptr %"struct.std::_Rb_tree_iterator"* %1, i32 0, i32 0, !dbg !1220
  %9 = inttoptr i32 %7 to %"struct.std::_Rb_tree_node_base"*, !dbg !1220
  store %"struct.std::_Rb_tree_node_base"* %9, %"struct.std::_Rb_tree_node_base"** %8, !dbg !1220
  %10 = getelementptr %"struct.std::_Rb_tree_iterator"* %1, i32 0, i32 0, !dbg !1220
  %11 = load %"struct.std::_Rb_tree_node_base"** %10, !dbg !1220
  %12 = ptrtoint %"struct.std::_Rb_tree_node_base"* %11 to i32, !dbg !1220
  ret i32 %12, !dbg !1220
}

; Function Attrs: nounwind
define linkonce_odr zeroext i1 @_ZNKSt17_Rb_tree_iteratorISt4pairIKjS0_IjjEEEneERKS4_(%"struct.std::_Rb_tree_iterator"* %this, %"struct.std::_Rb_tree_iterator"* dereferenceable(4) %__x) #3 align 2 {
  %1 = alloca %"struct.std::_Rb_tree_iterator"*, align 4
  %2 = alloca %"struct.std::_Rb_tree_iterator"*, align 4
  store %"struct.std::_Rb_tree_iterator"* %this, %"struct.std::_Rb_tree_iterator"** %1, align 4
  call void @llvm.dbg.declare(metadata !{%"struct.std::_Rb_tree_iterator"** %1}, metadata !1221), !dbg !1223
  store %"struct.std::_Rb_tree_iterator"* %__x, %"struct.std::_Rb_tree_iterator"** %2, align 4
  call void @llvm.dbg.declare(metadata !{%"struct.std::_Rb_tree_iterator"** %2}, metadata !1224), !dbg !1226
  %3 = load %"struct.std::_Rb_tree_iterator"** %1
  %4 = getelementptr inbounds %"struct.std::_Rb_tree_iterator"* %3, i32 0, i32 0, !dbg !1227
  %5 = load %"struct.std::_Rb_tree_node_base"** %4, align 4, !dbg !1227
  %6 = load %"struct.std::_Rb_tree_iterator"** %2, align 4, !dbg !1227
  %7 = getelementptr inbounds %"struct.std::_Rb_tree_iterator"* %6, i32 0, i32 0, !dbg !1227
  %8 = load %"struct.std::_Rb_tree_node_base"** %7, align 4, !dbg !1227
  %9 = icmp ne %"struct.std::_Rb_tree_node_base"* %5, %8, !dbg !1227
  ret i1 %9, !dbg !1227
}

define linkonce_odr i32 @_ZNSt3mapIjSt4pairIjjESt4lessIjESaIS0_IKjS1_EEE3endEv(%"class.std::map"* %this) #0 align 2 {
  %1 = alloca %"struct.std::_Rb_tree_iterator", align 4
  %2 = alloca %"class.std::map"*, align 4
  store %"class.std::map"* %this, %"class.std::map"** %2, align 4
  call void @llvm.dbg.declare(metadata !{%"class.std::map"** %2}, metadata !1228), !dbg !1229
  %3 = load %"class.std::map"** %2
  %4 = getelementptr inbounds %"class.std::map"* %3, i32 0, i32 0, !dbg !1230
  %5 = call i32 @_ZNSt8_Rb_treeIjSt4pairIKjS0_IjjEESt10_Select1stIS3_ESt4lessIjESaIS3_EE3endEv(%"class.std::_Rb_tree"* %4), !dbg !1230
  %6 = getelementptr %"struct.std::_Rb_tree_iterator"* %1, i32 0, i32 0, !dbg !1230
  %7 = inttoptr i32 %5 to %"struct.std::_Rb_tree_node_base"*, !dbg !1230
  store %"struct.std::_Rb_tree_node_base"* %7, %"struct.std::_Rb_tree_node_base"** %6, !dbg !1230
  %8 = getelementptr %"struct.std::_Rb_tree_iterator"* %1, i32 0, i32 0, !dbg !1230
  %9 = load %"struct.std::_Rb_tree_node_base"** %8, !dbg !1230
  %10 = ptrtoint %"struct.std::_Rb_tree_node_base"* %9 to i32, !dbg !1230
  ret i32 %10, !dbg !1230
}

; Function Attrs: nounwind
declare i8* @mmap(i8*, i32, i32, i32, i32, i32) #3

; Function Attrs: inlinehint
define linkonce_odr void @_ZSt9make_pairIjjESt4pairIT_T0_ES1_S2_(%"struct.std::pair"* noalias sret %agg.result, i32 %__x, i32 %__y) #1 {
  %1 = alloca i32, align 4
  %2 = alloca i32, align 4
  store i32 %__x, i32* %1, align 4
  call void @llvm.dbg.declare(metadata !{i32* %1}, metadata !1231), !dbg !1233
  store i32 %__y, i32* %2, align 4
  call void @llvm.dbg.declare(metadata !{i32* %2}, metadata !1234), !dbg !1235
  %3 = call %"struct.std::pair"* @_ZNSt4pairIjjEC2ERKjS2_(%"struct.std::pair"* %agg.result, i32* dereferenceable(4) %1, i32* dereferenceable(4) %2), !dbg !1236
  ret void, !dbg !1236
}

; Function Attrs: nounwind
declare void @llvm.memcpy.p0i8.p0i8.i32(i8* nocapture, i8* nocapture readonly, i32, i32, i1) #2

define i32 @_ZNK10xil_lin_io11getVirtAddrEj(%class.xil_lin_io* %this, i32 %physBaseAddr) #0 align 2 {
  %1 = alloca %class.xil_lin_io*, align 4
  %2 = alloca i32, align 4
  store %class.xil_lin_io* %this, %class.xil_lin_io** %1, align 4
  call void @llvm.dbg.declare(metadata !{%class.xil_lin_io** %1}, metadata !1237), !dbg !1239
  store i32 %physBaseAddr, i32* %2, align 4
  call void @llvm.dbg.declare(metadata !{i32* %2}, metadata !1240), !dbg !1241
  %3 = load %class.xil_lin_io** %1
  %4 = call dereferenceable(8) %"struct.std::pair"* @_ZNSt3mapIjSt4pairIjjESt4lessIjESaIS0_IKjS1_EEEixERS4_(%"class.std::map"* @_ZN10xil_lin_io4pToVE, i32* dereferenceable(4) %2), !dbg !1242
  %5 = getelementptr inbounds %"struct.std::pair"* %4, i32 0, i32 0, !dbg !1242
  %6 = load i32* %5, align 4, !dbg !1242
  ret i32 %6, !dbg !1242
}

define void @_ZNK10xil_lin_io8printMapEv(%class.xil_lin_io* %this) #0 align 2 {
  %1 = alloca %class.xil_lin_io*, align 4
  %it = alloca %"struct.std::_Rb_tree_iterator", align 4
  %2 = alloca %"struct.std::_Rb_tree_iterator", align 4
  store %class.xil_lin_io* %this, %class.xil_lin_io** %1, align 4
  call void @llvm.dbg.declare(metadata !{%class.xil_lin_io** %1}, metadata !1243), !dbg !1244
  %3 = load %class.xil_lin_io** %1
  call void @llvm.dbg.declare(metadata !{%"struct.std::_Rb_tree_iterator"* %it}, metadata !1245), !dbg !1247
  %4 = call i32 @_ZNSt3mapIjSt4pairIjjESt4lessIjESaIS0_IKjS1_EEE5beginEv(%"class.std::map"* @_ZN10xil_lin_io4pToVE), !dbg !1248
  %5 = getelementptr %"struct.std::_Rb_tree_iterator"* %it, i32 0, i32 0, !dbg !1248
  %6 = inttoptr i32 %4 to %"struct.std::_Rb_tree_node_base"*, !dbg !1248
  store %"struct.std::_Rb_tree_node_base"* %6, %"struct.std::_Rb_tree_node_base"** %5, !dbg !1248
  br label %7, !dbg !1248

; <label>:7                                       ; preds = %25, %0
  %8 = call i32 @_ZNSt3mapIjSt4pairIjjESt4lessIjESaIS0_IKjS1_EEE3endEv(%"class.std::map"* @_ZN10xil_lin_io4pToVE), !dbg !1249
  %9 = getelementptr %"struct.std::_Rb_tree_iterator"* %2, i32 0, i32 0, !dbg !1249
  %10 = inttoptr i32 %8 to %"struct.std::_Rb_tree_node_base"*, !dbg !1249
  store %"struct.std::_Rb_tree_node_base"* %10, %"struct.std::_Rb_tree_node_base"** %9, !dbg !1249
  %11 = call zeroext i1 @_ZNKSt17_Rb_tree_iteratorISt4pairIKjS0_IjjEEEneERKS4_(%"struct.std::_Rb_tree_iterator"* %it, %"struct.std::_Rb_tree_iterator"* dereferenceable(4) %2), !dbg !1252
  br i1 %11, label %12, label %27, !dbg !1252

; <label>:12                                      ; preds = %7
  %13 = call %"struct.std::pair.0"* @_ZNKSt17_Rb_tree_iteratorISt4pairIKjS0_IjjEEEptEv(%"struct.std::_Rb_tree_iterator"* %it), !dbg !1253
  %14 = getelementptr inbounds %"struct.std::pair.0"* %13, i32 0, i32 0, !dbg !1253
  %15 = load i32* %14, align 4, !dbg !1253
  %16 = call %"struct.std::pair.0"* @_ZNKSt17_Rb_tree_iteratorISt4pairIKjS0_IjjEEEptEv(%"struct.std::_Rb_tree_iterator"* %it), !dbg !1254
  %17 = getelementptr inbounds %"struct.std::pair.0"* %16, i32 0, i32 1, !dbg !1254
  %18 = getelementptr inbounds %"struct.std::pair"* %17, i32 0, i32 0, !dbg !1254
  %19 = load i32* %18, align 4, !dbg !1254
  %20 = call %"struct.std::pair.0"* @_ZNKSt17_Rb_tree_iteratorISt4pairIKjS0_IjjEEEptEv(%"struct.std::_Rb_tree_iterator"* %it), !dbg !1255
  %21 = getelementptr inbounds %"struct.std::pair.0"* %20, i32 0, i32 1, !dbg !1255
  %22 = getelementptr inbounds %"struct.std::pair"* %21, i32 0, i32 1, !dbg !1255
  %23 = load i32* %22, align 4, !dbg !1255
  %24 = call i32 (i8*, ...)* @printf(i8* getelementptr inbounds ([51 x i8]* @.str4, i32 0, i32 0), i32 %15, i32 %19, i32 %23), !dbg !1256
  br label %25, !dbg !1256

; <label>:25                                      ; preds = %12
  %26 = call dereferenceable(4) %"struct.std::_Rb_tree_iterator"* @_ZNSt17_Rb_tree_iteratorISt4pairIKjS0_IjjEEEppEv(%"struct.std::_Rb_tree_iterator"* %it), !dbg !1257
  br label %7, !dbg !1257

; <label>:27                                      ; preds = %7
  ret void, !dbg !1258
}

define linkonce_odr i32 @_ZNSt3mapIjSt4pairIjjESt4lessIjESaIS0_IKjS1_EEE5beginEv(%"class.std::map"* %this) #0 align 2 {
  %1 = alloca %"struct.std::_Rb_tree_iterator", align 4
  %2 = alloca %"class.std::map"*, align 4
  store %"class.std::map"* %this, %"class.std::map"** %2, align 4
  call void @llvm.dbg.declare(metadata !{%"class.std::map"** %2}, metadata !1259), !dbg !1260
  %3 = load %"class.std::map"** %2
  %4 = getelementptr inbounds %"class.std::map"* %3, i32 0, i32 0, !dbg !1261
  %5 = call i32 @_ZNSt8_Rb_treeIjSt4pairIKjS0_IjjEESt10_Select1stIS3_ESt4lessIjESaIS3_EE5beginEv(%"class.std::_Rb_tree"* %4), !dbg !1261
  %6 = getelementptr %"struct.std::_Rb_tree_iterator"* %1, i32 0, i32 0, !dbg !1261
  %7 = inttoptr i32 %5 to %"struct.std::_Rb_tree_node_base"*, !dbg !1261
  store %"struct.std::_Rb_tree_node_base"* %7, %"struct.std::_Rb_tree_node_base"** %6, !dbg !1261
  %8 = getelementptr %"struct.std::_Rb_tree_iterator"* %1, i32 0, i32 0, !dbg !1261
  %9 = load %"struct.std::_Rb_tree_node_base"** %8, !dbg !1261
  %10 = ptrtoint %"struct.std::_Rb_tree_node_base"* %9 to i32, !dbg !1261
  ret i32 %10, !dbg !1261
}

define linkonce_odr %"struct.std::pair.0"* @_ZNKSt17_Rb_tree_iteratorISt4pairIKjS0_IjjEEEptEv(%"struct.std::_Rb_tree_iterator"* %this) #0 align 2 {
  %1 = alloca %"struct.std::_Rb_tree_iterator"*, align 4
  store %"struct.std::_Rb_tree_iterator"* %this, %"struct.std::_Rb_tree_iterator"** %1, align 4
  call void @llvm.dbg.declare(metadata !{%"struct.std::_Rb_tree_iterator"** %1}, metadata !1262), !dbg !1263
  %2 = load %"struct.std::_Rb_tree_iterator"** %1
  %3 = getelementptr inbounds %"struct.std::_Rb_tree_iterator"* %2, i32 0, i32 0, !dbg !1264
  %4 = load %"struct.std::_Rb_tree_node_base"** %3, align 4, !dbg !1264
  %5 = bitcast %"struct.std::_Rb_tree_node_base"* %4 to %"struct.std::_Rb_tree_node"*, !dbg !1264
  %6 = call %"struct.std::pair.0"* @_ZNSt13_Rb_tree_nodeISt4pairIKjS0_IjjEEE9_M_valptrEv(%"struct.std::_Rb_tree_node"* %5), !dbg !1264
  ret %"struct.std::pair.0"* %6, !dbg !1264
}

; Function Attrs: nounwind
define linkonce_odr dereferenceable(4) %"struct.std::_Rb_tree_iterator"* @_ZNSt17_Rb_tree_iteratorISt4pairIKjS0_IjjEEEppEv(%"struct.std::_Rb_tree_iterator"* %this) #3 align 2 {
  %1 = alloca %"struct.std::_Rb_tree_iterator"*, align 4
  store %"struct.std::_Rb_tree_iterator"* %this, %"struct.std::_Rb_tree_iterator"** %1, align 4
  call void @llvm.dbg.declare(metadata !{%"struct.std::_Rb_tree_iterator"** %1}, metadata !1265), !dbg !1267
  %2 = load %"struct.std::_Rb_tree_iterator"** %1
  %3 = getelementptr inbounds %"struct.std::_Rb_tree_iterator"* %2, i32 0, i32 0, !dbg !1268
  %4 = load %"struct.std::_Rb_tree_node_base"** %3, align 4, !dbg !1268
  %5 = call %"struct.std::_Rb_tree_node_base"* @_ZSt18_Rb_tree_incrementPSt18_Rb_tree_node_base(%"struct.std::_Rb_tree_node_base"* %4) #11, !dbg !1268
  %6 = getelementptr inbounds %"struct.std::_Rb_tree_iterator"* %2, i32 0, i32 0, !dbg !1268
  store %"struct.std::_Rb_tree_node_base"* %5, %"struct.std::_Rb_tree_node_base"** %6, align 4, !dbg !1268
  ret %"struct.std::_Rb_tree_iterator"* %2, !dbg !1269
}

define %class.xil_lin_io* @_ZN10xil_lin_ioD2Ev(%class.xil_lin_io* returned %this) unnamed_addr #0 align 2 {
  %1 = alloca %class.xil_lin_io*, align 4
  %2 = alloca %class.xil_lin_io*, align 4
  %it = alloca %"struct.std::_Rb_tree_iterator", align 4
  %3 = alloca %"struct.std::_Rb_tree_iterator", align 4
  store %class.xil_lin_io* %this, %class.xil_lin_io** %2, align 4
  call void @llvm.dbg.declare(metadata !{%class.xil_lin_io** %2}, metadata !1270), !dbg !1271
  %4 = load %class.xil_lin_io** %2
  store %class.xil_lin_io* %4, %class.xil_lin_io** %1
  %5 = bitcast %class.xil_lin_io* %4 to i8***, !dbg !1272
  store i8** getelementptr inbounds ([4 x i8*]* @_ZTV10xil_lin_io, i64 0, i64 2), i8*** %5, !dbg !1272
  %6 = load i32* @_ZN10xil_lin_io2fdE, align 4, !dbg !1273
  %7 = call i32 @close(i32 %6), !dbg !1273
  call void @llvm.dbg.declare(metadata !{%"struct.std::_Rb_tree_iterator"* %it}, metadata !1275), !dbg !1277
  %8 = call i32 @_ZNSt3mapIjSt4pairIjjESt4lessIjESaIS0_IKjS1_EEE5beginEv(%"class.std::map"* @_ZN10xil_lin_io4pToVE), !dbg !1278
  %9 = getelementptr %"struct.std::_Rb_tree_iterator"* %it, i32 0, i32 0, !dbg !1278
  %10 = inttoptr i32 %8 to %"struct.std::_Rb_tree_node_base"*, !dbg !1278
  store %"struct.std::_Rb_tree_node_base"* %10, %"struct.std::_Rb_tree_node_base"** %9, !dbg !1278
  br label %11, !dbg !1278

; <label>:11                                      ; preds = %27, %0
  %12 = call i32 @_ZNSt3mapIjSt4pairIjjESt4lessIjESaIS0_IKjS1_EEE3endEv(%"class.std::map"* @_ZN10xil_lin_io4pToVE), !dbg !1279
  %13 = getelementptr %"struct.std::_Rb_tree_iterator"* %3, i32 0, i32 0, !dbg !1279
  %14 = inttoptr i32 %12 to %"struct.std::_Rb_tree_node_base"*, !dbg !1279
  store %"struct.std::_Rb_tree_node_base"* %14, %"struct.std::_Rb_tree_node_base"** %13, !dbg !1279
  %15 = call zeroext i1 @_ZNKSt17_Rb_tree_iteratorISt4pairIKjS0_IjjEEEneERKS4_(%"struct.std::_Rb_tree_iterator"* %it, %"struct.std::_Rb_tree_iterator"* dereferenceable(4) %3), !dbg !1282
  br i1 %15, label %16, label %29, !dbg !1282

; <label>:16                                      ; preds = %11
  %17 = call %"struct.std::pair.0"* @_ZNKSt17_Rb_tree_iteratorISt4pairIKjS0_IjjEEEptEv(%"struct.std::_Rb_tree_iterator"* %it), !dbg !1283
  %18 = getelementptr inbounds %"struct.std::pair.0"* %17, i32 0, i32 1, !dbg !1283
  %19 = getelementptr inbounds %"struct.std::pair"* %18, i32 0, i32 0, !dbg !1283
  %20 = load i32* %19, align 4, !dbg !1283
  %21 = inttoptr i32 %20 to i8*, !dbg !1283
  %22 = call %"struct.std::pair.0"* @_ZNKSt17_Rb_tree_iteratorISt4pairIKjS0_IjjEEEptEv(%"struct.std::_Rb_tree_iterator"* %it), !dbg !1285
  %23 = getelementptr inbounds %"struct.std::pair.0"* %22, i32 0, i32 1, !dbg !1285
  %24 = getelementptr inbounds %"struct.std::pair"* %23, i32 0, i32 1, !dbg !1285
  %25 = load i32* %24, align 4, !dbg !1285
  %26 = call i32 @munmap(i8* %21, i32 %25) #2, !dbg !1286
  br label %27, !dbg !1287

; <label>:27                                      ; preds = %16
  %28 = call dereferenceable(4) %"struct.std::_Rb_tree_iterator"* @_ZNSt17_Rb_tree_iteratorISt4pairIKjS0_IjjEEEppEv(%"struct.std::_Rb_tree_iterator"* %it), !dbg !1288
  br label %11, !dbg !1288

; <label>:29                                      ; preds = %11
  %30 = load %class.xil_lin_io** %1, !dbg !1289
  ret %class.xil_lin_io* %30, !dbg !1289
}

declare i32 @close(i32) #0

; Function Attrs: nounwind
declare i32 @munmap(i8*, i32) #3

define void @_ZN10xil_lin_ioD0Ev(%class.xil_lin_io* %this) unnamed_addr #0 align 2 {
  %1 = alloca %class.xil_lin_io*, align 4
  %2 = alloca i8*
  %3 = alloca i32
  store %class.xil_lin_io* %this, %class.xil_lin_io** %1, align 4
  call void @llvm.dbg.declare(metadata !{%class.xil_lin_io** %1}, metadata !1290), !dbg !1291
  %4 = load %class.xil_lin_io** %1
  %5 = invoke %class.xil_lin_io* @_ZN10xil_lin_ioD1Ev(%class.xil_lin_io* %4)
          to label %6 unwind label %8, !dbg !1292

; <label>:6                                       ; preds = %0
  %7 = bitcast %class.xil_lin_io* %4 to i8*, !dbg !1293
  call void @_ZdlPv(i8* %7) #12, !dbg !1293
  ret void, !dbg !1295

; <label>:8                                       ; preds = %0
  %9 = landingpad { i8*, i32 } personality i8* bitcast (i32 (...)* @__gxx_personality_v0 to i8*)
          cleanup, !dbg !1295
  %10 = extractvalue { i8*, i32 } %9, 0, !dbg !1295
  store i8* %10, i8** %2, !dbg !1295
  %11 = extractvalue { i8*, i32 } %9, 1, !dbg !1295
  store i32 %11, i32* %3, !dbg !1295
  %12 = bitcast %class.xil_lin_io* %4 to i8*, !dbg !1295
  call void @_ZdlPv(i8* %12) #12, !dbg !1295
  br label %13, !dbg !1295

; <label>:13                                      ; preds = %8
  %14 = load i8** %2, !dbg !1296
  %15 = load i32* %3, !dbg !1296
  %16 = insertvalue { i8*, i32 } undef, i8* %14, 0, !dbg !1296
  %17 = insertvalue { i8*, i32 } %16, i32 %15, 1, !dbg !1296
  resume { i8*, i32 } %17, !dbg !1296
}

declare i32 @__gxx_personality_v0(...)

; Function Attrs: nobuiltin nounwind
declare void @_ZdlPv(i8*) #5

define linkonce_odr %"struct.std::pair.0"* @_ZNSt13_Rb_tree_nodeISt4pairIKjS0_IjjEEE9_M_valptrEv(%"struct.std::_Rb_tree_node"* %this) #0 align 2 {
  %1 = alloca %"struct.std::_Rb_tree_node"*, align 4
  store %"struct.std::_Rb_tree_node"* %this, %"struct.std::_Rb_tree_node"** %1, align 4
  call void @llvm.dbg.declare(metadata !{%"struct.std::_Rb_tree_node"** %1}, metadata !1298), !dbg !1299
  %2 = load %"struct.std::_Rb_tree_node"** %1
  %3 = getelementptr inbounds %"struct.std::_Rb_tree_node"* %2, i32 0, i32 1, !dbg !1300
  %4 = call %"struct.std::pair.0"* @_ZSt11__addressofISt4pairIKjS0_IjjEEEPT_RS4_(%"struct.std::pair.0"* dereferenceable(12) %3), !dbg !1300
  ret %"struct.std::pair.0"* %4, !dbg !1300
}

; Function Attrs: inlinehint nounwind
define linkonce_odr %"struct.std::pair.0"* @_ZSt11__addressofISt4pairIKjS0_IjjEEEPT_RS4_(%"struct.std::pair.0"* dereferenceable(12) %__r) #6 {
  %1 = alloca %"struct.std::pair.0"*, align 4
  store %"struct.std::pair.0"* %__r, %"struct.std::pair.0"** %1, align 4
  call void @llvm.dbg.declare(metadata !{%"struct.std::pair.0"** %1}, metadata !1301), !dbg !1303
  %2 = load %"struct.std::pair.0"** %1, align 4, !dbg !1304
  %3 = bitcast %"struct.std::pair.0"* %2 to i8*, !dbg !1304
  %4 = bitcast i8* %3 to %"struct.std::pair.0"*, !dbg !1304
  ret %"struct.std::pair.0"* %4, !dbg !1304
}

; Function Attrs: nounwind readonly
declare %"struct.std::_Rb_tree_node_base"* @_ZSt18_Rb_tree_incrementPSt18_Rb_tree_node_base(%"struct.std::_Rb_tree_node_base"*) #7

define linkonce_odr i32 @_ZNSt8_Rb_treeIjSt4pairIKjS0_IjjEESt10_Select1stIS3_ESt4lessIjESaIS3_EE5beginEv(%"class.std::_Rb_tree"* %this) #0 align 2 {
  %1 = alloca %"struct.std::_Rb_tree_iterator", align 4
  %2 = alloca %"class.std::_Rb_tree"*, align 4
  store %"class.std::_Rb_tree"* %this, %"class.std::_Rb_tree"** %2, align 4
  call void @llvm.dbg.declare(metadata !{%"class.std::_Rb_tree"** %2}, metadata !1305), !dbg !1307
  %3 = load %"class.std::_Rb_tree"** %2
  %4 = getelementptr inbounds %"class.std::_Rb_tree"* %3, i32 0, i32 0, !dbg !1308
  %5 = getelementptr inbounds %"struct.std::_Rb_tree<unsigned int, std::pair<const unsigned int, std::pair<unsigned int, unsigned int> >, std::_Select1st<std::pair<const unsigned int, std::pair<unsigned int, unsigned int> > >, std::less<unsigned int>, std::allocator<std::pair<const unsigned int, std::pair<unsigned int, unsigned int> > > >::_Rb_tree_impl"* %4, i32 0, i32 1, !dbg !1308
  %6 = getelementptr inbounds %"struct.std::_Rb_tree_node_base"* %5, i32 0, i32 2, !dbg !1308
  %7 = load %"struct.std::_Rb_tree_node_base"** %6, align 4, !dbg !1308
  %8 = bitcast %"struct.std::_Rb_tree_node_base"* %7 to %"struct.std::_Rb_tree_node"*, !dbg !1308
  %9 = call %"struct.std::_Rb_tree_iterator"* @_ZNSt17_Rb_tree_iteratorISt4pairIKjS0_IjjEEEC2EPSt13_Rb_tree_nodeIS3_E(%"struct.std::_Rb_tree_iterator"* %1, %"struct.std::_Rb_tree_node"* %8), !dbg !1308
  %10 = getelementptr %"struct.std::_Rb_tree_iterator"* %1, i32 0, i32 0, !dbg !1308
  %11 = load %"struct.std::_Rb_tree_node_base"** %10, !dbg !1308
  %12 = ptrtoint %"struct.std::_Rb_tree_node_base"* %11 to i32, !dbg !1308
  ret i32 %12, !dbg !1308
}

; Function Attrs: nounwind
define linkonce_odr %"struct.std::_Rb_tree_iterator"* @_ZNSt17_Rb_tree_iteratorISt4pairIKjS0_IjjEEEC2EPSt13_Rb_tree_nodeIS3_E(%"struct.std::_Rb_tree_iterator"* returned %this, %"struct.std::_Rb_tree_node"* %__x) unnamed_addr #3 align 2 {
  %1 = alloca %"struct.std::_Rb_tree_iterator"*, align 4
  %2 = alloca %"struct.std::_Rb_tree_node"*, align 4
  store %"struct.std::_Rb_tree_iterator"* %this, %"struct.std::_Rb_tree_iterator"** %1, align 4
  call void @llvm.dbg.declare(metadata !{%"struct.std::_Rb_tree_iterator"** %1}, metadata !1309), !dbg !1310
  store %"struct.std::_Rb_tree_node"* %__x, %"struct.std::_Rb_tree_node"** %2, align 4
  call void @llvm.dbg.declare(metadata !{%"struct.std::_Rb_tree_node"** %2}, metadata !1311), !dbg !1312
  %3 = load %"struct.std::_Rb_tree_iterator"** %1
  %4 = getelementptr inbounds %"struct.std::_Rb_tree_iterator"* %3, i32 0, i32 0, !dbg !1313
  %5 = load %"struct.std::_Rb_tree_node"** %2, align 4, !dbg !1313
  %6 = bitcast %"struct.std::_Rb_tree_node"* %5 to %"struct.std::_Rb_tree_node_base"*, !dbg !1313
  store %"struct.std::_Rb_tree_node_base"* %6, %"struct.std::_Rb_tree_node_base"** %4, align 4, !dbg !1313
  ret %"struct.std::_Rb_tree_iterator"* %3, !dbg !1314
}

; Function Attrs: nounwind
define linkonce_odr %"struct.std::pair"* @_ZNSt4pairIjjEC2ERKjS2_(%"struct.std::pair"* returned %this, i32* dereferenceable(4) %__a, i32* dereferenceable(4) %__b) unnamed_addr #3 align 2 {
  %1 = alloca %"struct.std::pair"*, align 4
  %2 = alloca i32*, align 4
  %3 = alloca i32*, align 4
  store %"struct.std::pair"* %this, %"struct.std::pair"** %1, align 4
  call void @llvm.dbg.declare(metadata !{%"struct.std::pair"** %1}, metadata !1315), !dbg !1317
  store i32* %__a, i32** %2, align 4
  call void @llvm.dbg.declare(metadata !{i32** %2}, metadata !1318), !dbg !1319
  store i32* %__b, i32** %3, align 4
  call void @llvm.dbg.declare(metadata !{i32** %3}, metadata !1320), !dbg !1321
  %4 = load %"struct.std::pair"** %1
  %5 = getelementptr inbounds %"struct.std::pair"* %4, i32 0, i32 0, !dbg !1322
  %6 = load i32** %2, align 4, !dbg !1322
  %7 = load i32* %6, align 4, !dbg !1322
  store i32 %7, i32* %5, align 4, !dbg !1322
  %8 = getelementptr inbounds %"struct.std::pair"* %4, i32 0, i32 1, !dbg !1322
  %9 = load i32** %3, align 4, !dbg !1322
  %10 = load i32* %9, align 4, !dbg !1322
  store i32 %10, i32* %8, align 4, !dbg !1322
  ret %"struct.std::pair"* %4, !dbg !1323
}

define linkonce_odr i32 @_ZNSt8_Rb_treeIjSt4pairIKjS0_IjjEESt10_Select1stIS3_ESt4lessIjESaIS3_EE3endEv(%"class.std::_Rb_tree"* %this) #0 align 2 {
  %1 = alloca %"struct.std::_Rb_tree_iterator", align 4
  %2 = alloca %"class.std::_Rb_tree"*, align 4
  store %"class.std::_Rb_tree"* %this, %"class.std::_Rb_tree"** %2, align 4
  call void @llvm.dbg.declare(metadata !{%"class.std::_Rb_tree"** %2}, metadata !1324), !dbg !1325
  %3 = load %"class.std::_Rb_tree"** %2
  %4 = getelementptr inbounds %"class.std::_Rb_tree"* %3, i32 0, i32 0, !dbg !1326
  %5 = getelementptr inbounds %"struct.std::_Rb_tree<unsigned int, std::pair<const unsigned int, std::pair<unsigned int, unsigned int> >, std::_Select1st<std::pair<const unsigned int, std::pair<unsigned int, unsigned int> > >, std::less<unsigned int>, std::allocator<std::pair<const unsigned int, std::pair<unsigned int, unsigned int> > > >::_Rb_tree_impl"* %4, i32 0, i32 1, !dbg !1326
  %6 = bitcast %"struct.std::_Rb_tree_node_base"* %5 to %"struct.std::_Rb_tree_node"*, !dbg !1326
  %7 = call %"struct.std::_Rb_tree_iterator"* @_ZNSt17_Rb_tree_iteratorISt4pairIKjS0_IjjEEEC2EPSt13_Rb_tree_nodeIS3_E(%"struct.std::_Rb_tree_iterator"* %1, %"struct.std::_Rb_tree_node"* %6), !dbg !1326
  %8 = getelementptr %"struct.std::_Rb_tree_iterator"* %1, i32 0, i32 0, !dbg !1326
  %9 = load %"struct.std::_Rb_tree_node_base"** %8, !dbg !1326
  %10 = ptrtoint %"struct.std::_Rb_tree_node_base"* %9 to i32, !dbg !1326
  ret i32 %10, !dbg !1326
}

define linkonce_odr i32 @_ZNSt8_Rb_treeIjSt4pairIKjS0_IjjEESt10_Select1stIS3_ESt4lessIjESaIS3_EE4findERS1_(%"class.std::_Rb_tree"* %this, i32* dereferenceable(4) %__k) #0 align 2 {
  %1 = alloca %"struct.std::_Rb_tree_iterator", align 4
  %2 = alloca %"class.std::_Rb_tree"*, align 4
  %3 = alloca i32*, align 4
  %__j = alloca %"struct.std::_Rb_tree_iterator", align 4
  %4 = alloca %"struct.std::_Rb_tree_iterator", align 4
  store %"class.std::_Rb_tree"* %this, %"class.std::_Rb_tree"** %2, align 4
  call void @llvm.dbg.declare(metadata !{%"class.std::_Rb_tree"** %2}, metadata !1327), !dbg !1328
  store i32* %__k, i32** %3, align 4
  call void @llvm.dbg.declare(metadata !{i32** %3}, metadata !1329), !dbg !1330
  %5 = load %"class.std::_Rb_tree"** %2
  call void @llvm.dbg.declare(metadata !{%"struct.std::_Rb_tree_iterator"* %__j}, metadata !1331), !dbg !1332
  %6 = call %"struct.std::_Rb_tree_node"* @_ZNSt8_Rb_treeIjSt4pairIKjS0_IjjEESt10_Select1stIS3_ESt4lessIjESaIS3_EE8_M_beginEv(%"class.std::_Rb_tree"* %5), !dbg !1333
  %7 = call %"struct.std::_Rb_tree_node"* @_ZNSt8_Rb_treeIjSt4pairIKjS0_IjjEESt10_Select1stIS3_ESt4lessIjESaIS3_EE6_M_endEv(%"class.std::_Rb_tree"* %5), !dbg !1334
  %8 = load i32** %3, align 4, !dbg !1335
  %9 = call i32 @_ZNSt8_Rb_treeIjSt4pairIKjS0_IjjEESt10_Select1stIS3_ESt4lessIjESaIS3_EE14_M_lower_boundEPSt13_Rb_tree_nodeIS3_ESC_RS1_(%"class.std::_Rb_tree"* %5, %"struct.std::_Rb_tree_node"* %6, %"struct.std::_Rb_tree_node"* %7, i32* dereferenceable(4) %8), !dbg !1335
  %10 = getelementptr %"struct.std::_Rb_tree_iterator"* %__j, i32 0, i32 0, !dbg !1335
  %11 = inttoptr i32 %9 to %"struct.std::_Rb_tree_node_base"*, !dbg !1335
  store %"struct.std::_Rb_tree_node_base"* %11, %"struct.std::_Rb_tree_node_base"** %10, !dbg !1335
  %12 = call i32 @_ZNSt8_Rb_treeIjSt4pairIKjS0_IjjEESt10_Select1stIS3_ESt4lessIjESaIS3_EE3endEv(%"class.std::_Rb_tree"* %5), !dbg !1336
  %13 = getelementptr %"struct.std::_Rb_tree_iterator"* %4, i32 0, i32 0, !dbg !1336
  %14 = inttoptr i32 %12 to %"struct.std::_Rb_tree_node_base"*, !dbg !1336
  store %"struct.std::_Rb_tree_node_base"* %14, %"struct.std::_Rb_tree_node_base"** %13, !dbg !1336
  %15 = call zeroext i1 @_ZNKSt17_Rb_tree_iteratorISt4pairIKjS0_IjjEEEeqERKS4_(%"struct.std::_Rb_tree_iterator"* %__j, %"struct.std::_Rb_tree_iterator"* dereferenceable(4) %4), !dbg !1337
  br i1 %15, label %24, label %16, !dbg !1337

; <label>:16                                      ; preds = %0
  %17 = getelementptr inbounds %"class.std::_Rb_tree"* %5, i32 0, i32 0, !dbg !1338
  %18 = getelementptr inbounds %"struct.std::_Rb_tree<unsigned int, std::pair<const unsigned int, std::pair<unsigned int, unsigned int> >, std::_Select1st<std::pair<const unsigned int, std::pair<unsigned int, unsigned int> > >, std::less<unsigned int>, std::allocator<std::pair<const unsigned int, std::pair<unsigned int, unsigned int> > > >::_Rb_tree_impl"* %17, i32 0, i32 0, !dbg !1338
  %19 = load i32** %3, align 4, !dbg !1338
  %20 = getelementptr inbounds %"struct.std::_Rb_tree_iterator"* %__j, i32 0, i32 0, !dbg !1339
  %21 = load %"struct.std::_Rb_tree_node_base"** %20, align 4, !dbg !1339
  %22 = call dereferenceable(4) i32* @_ZNSt8_Rb_treeIjSt4pairIKjS0_IjjEESt10_Select1stIS3_ESt4lessIjESaIS3_EE6_S_keyEPKSt18_Rb_tree_node_base(%"struct.std::_Rb_tree_node_base"* %21), !dbg !1339
  %23 = call zeroext i1 @_ZNKSt4lessIjEclERKjS2_(%"struct.std::less"* %18, i32* dereferenceable(4) %19, i32* dereferenceable(4) %22), !dbg !1338
  br i1 %23, label %24, label %28, !dbg !1338

; <label>:24                                      ; preds = %16, %0
  %25 = call i32 @_ZNSt8_Rb_treeIjSt4pairIKjS0_IjjEESt10_Select1stIS3_ESt4lessIjESaIS3_EE3endEv(%"class.std::_Rb_tree"* %5), !dbg !1340
  %26 = getelementptr %"struct.std::_Rb_tree_iterator"* %1, i32 0, i32 0, !dbg !1340
  %27 = inttoptr i32 %25 to %"struct.std::_Rb_tree_node_base"*, !dbg !1340
  store %"struct.std::_Rb_tree_node_base"* %27, %"struct.std::_Rb_tree_node_base"** %26, !dbg !1340
  br label %31, !dbg !1340

; <label>:28                                      ; preds = %16
  %29 = bitcast %"struct.std::_Rb_tree_iterator"* %1 to i8*, !dbg !1340
  %30 = bitcast %"struct.std::_Rb_tree_iterator"* %__j to i8*, !dbg !1340
  call void @llvm.memcpy.p0i8.p0i8.i32(i8* %29, i8* %30, i32 4, i32 4, i1 false), !dbg !1340
  br label %31, !dbg !1340

; <label>:31                                      ; preds = %28, %24
  %32 = getelementptr %"struct.std::_Rb_tree_iterator"* %1, i32 0, i32 0, !dbg !1341
  %33 = load %"struct.std::_Rb_tree_node_base"** %32, !dbg !1341
  %34 = ptrtoint %"struct.std::_Rb_tree_node_base"* %33 to i32, !dbg !1341
  ret i32 %34, !dbg !1341
}

define linkonce_odr i32 @_ZNSt8_Rb_treeIjSt4pairIKjS0_IjjEESt10_Select1stIS3_ESt4lessIjESaIS3_EE14_M_lower_boundEPSt13_Rb_tree_nodeIS3_ESC_RS1_(%"class.std::_Rb_tree"* %this, %"struct.std::_Rb_tree_node"* %__x, %"struct.std::_Rb_tree_node"* %__y, i32* dereferenceable(4) %__k) #0 align 2 {
  %1 = alloca %"struct.std::_Rb_tree_iterator", align 4
  %2 = alloca %"class.std::_Rb_tree"*, align 4
  %3 = alloca %"struct.std::_Rb_tree_node"*, align 4
  %4 = alloca %"struct.std::_Rb_tree_node"*, align 4
  %5 = alloca i32*, align 4
  store %"class.std::_Rb_tree"* %this, %"class.std::_Rb_tree"** %2, align 4
  call void @llvm.dbg.declare(metadata !{%"class.std::_Rb_tree"** %2}, metadata !1344), !dbg !1345
  store %"struct.std::_Rb_tree_node"* %__x, %"struct.std::_Rb_tree_node"** %3, align 4
  call void @llvm.dbg.declare(metadata !{%"struct.std::_Rb_tree_node"** %3}, metadata !1346), !dbg !1347
  store %"struct.std::_Rb_tree_node"* %__y, %"struct.std::_Rb_tree_node"** %4, align 4
  call void @llvm.dbg.declare(metadata !{%"struct.std::_Rb_tree_node"** %4}, metadata !1348), !dbg !1349
  store i32* %__k, i32** %5, align 4
  call void @llvm.dbg.declare(metadata !{i32** %5}, metadata !1350), !dbg !1351
  %6 = load %"class.std::_Rb_tree"** %2
  br label %7, !dbg !1352

; <label>:7                                       ; preds = %26, %0
  %8 = load %"struct.std::_Rb_tree_node"** %3, align 4, !dbg !1353
  %9 = icmp ne %"struct.std::_Rb_tree_node"* %8, null, !dbg !1353
  br i1 %9, label %10, label %27, !dbg !1353

; <label>:10                                      ; preds = %7
  %11 = getelementptr inbounds %"class.std::_Rb_tree"* %6, i32 0, i32 0, !dbg !1355
  %12 = getelementptr inbounds %"struct.std::_Rb_tree<unsigned int, std::pair<const unsigned int, std::pair<unsigned int, unsigned int> >, std::_Select1st<std::pair<const unsigned int, std::pair<unsigned int, unsigned int> > >, std::less<unsigned int>, std::allocator<std::pair<const unsigned int, std::pair<unsigned int, unsigned int> > > >::_Rb_tree_impl"* %11, i32 0, i32 0, !dbg !1355
  %13 = load %"struct.std::_Rb_tree_node"** %3, align 4, !dbg !1357
  %14 = call dereferenceable(4) i32* @_ZNSt8_Rb_treeIjSt4pairIKjS0_IjjEESt10_Select1stIS3_ESt4lessIjESaIS3_EE6_S_keyEPKSt13_Rb_tree_nodeIS3_E(%"struct.std::_Rb_tree_node"* %13), !dbg !1357
  %15 = load i32** %5, align 4, !dbg !1355
  %16 = call zeroext i1 @_ZNKSt4lessIjEclERKjS2_(%"struct.std::less"* %12, i32* dereferenceable(4) %14, i32* dereferenceable(4) %15), !dbg !1355
  br i1 %16, label %22, label %17, !dbg !1355

; <label>:17                                      ; preds = %10
  %18 = load %"struct.std::_Rb_tree_node"** %3, align 4, !dbg !1358
  store %"struct.std::_Rb_tree_node"* %18, %"struct.std::_Rb_tree_node"** %4, align 4, !dbg !1358
  %19 = load %"struct.std::_Rb_tree_node"** %3, align 4, !dbg !1359
  %20 = bitcast %"struct.std::_Rb_tree_node"* %19 to %"struct.std::_Rb_tree_node_base"*, !dbg !1359
  %21 = call %"struct.std::_Rb_tree_node"* @_ZNSt8_Rb_treeIjSt4pairIKjS0_IjjEESt10_Select1stIS3_ESt4lessIjESaIS3_EE7_S_leftEPSt18_Rb_tree_node_base(%"struct.std::_Rb_tree_node_base"* %20), !dbg !1359
  store %"struct.std::_Rb_tree_node"* %21, %"struct.std::_Rb_tree_node"** %3, align 4, !dbg !1359
  br label %26, !dbg !1359

; <label>:22                                      ; preds = %10
  %23 = load %"struct.std::_Rb_tree_node"** %3, align 4, !dbg !1360
  %24 = bitcast %"struct.std::_Rb_tree_node"* %23 to %"struct.std::_Rb_tree_node_base"*, !dbg !1360
  %25 = call %"struct.std::_Rb_tree_node"* @_ZNSt8_Rb_treeIjSt4pairIKjS0_IjjEESt10_Select1stIS3_ESt4lessIjESaIS3_EE8_S_rightEPSt18_Rb_tree_node_base(%"struct.std::_Rb_tree_node_base"* %24), !dbg !1360
  store %"struct.std::_Rb_tree_node"* %25, %"struct.std::_Rb_tree_node"** %3, align 4, !dbg !1360
  br label %26

; <label>:26                                      ; preds = %22, %17
  br label %7, !dbg !1361

; <label>:27                                      ; preds = %7
  %28 = load %"struct.std::_Rb_tree_node"** %4, align 4, !dbg !1362
  %29 = call %"struct.std::_Rb_tree_iterator"* @_ZNSt17_Rb_tree_iteratorISt4pairIKjS0_IjjEEEC2EPSt13_Rb_tree_nodeIS3_E(%"struct.std::_Rb_tree_iterator"* %1, %"struct.std::_Rb_tree_node"* %28), !dbg !1362
  %30 = getelementptr %"struct.std::_Rb_tree_iterator"* %1, i32 0, i32 0, !dbg !1362
  %31 = load %"struct.std::_Rb_tree_node_base"** %30, !dbg !1362
  %32 = ptrtoint %"struct.std::_Rb_tree_node_base"* %31 to i32, !dbg !1362
  ret i32 %32, !dbg !1362
}

; Function Attrs: nounwind
define linkonce_odr %"struct.std::_Rb_tree_node"* @_ZNSt8_Rb_treeIjSt4pairIKjS0_IjjEESt10_Select1stIS3_ESt4lessIjESaIS3_EE8_M_beginEv(%"class.std::_Rb_tree"* %this) #3 align 2 {
  %1 = alloca %"class.std::_Rb_tree"*, align 4
  store %"class.std::_Rb_tree"* %this, %"class.std::_Rb_tree"** %1, align 4
  call void @llvm.dbg.declare(metadata !{%"class.std::_Rb_tree"** %1}, metadata !1363), !dbg !1364
  %2 = load %"class.std::_Rb_tree"** %1
  %3 = getelementptr inbounds %"class.std::_Rb_tree"* %2, i32 0, i32 0, !dbg !1365
  %4 = getelementptr inbounds %"struct.std::_Rb_tree<unsigned int, std::pair<const unsigned int, std::pair<unsigned int, unsigned int> >, std::_Select1st<std::pair<const unsigned int, std::pair<unsigned int, unsigned int> > >, std::less<unsigned int>, std::allocator<std::pair<const unsigned int, std::pair<unsigned int, unsigned int> > > >::_Rb_tree_impl"* %3, i32 0, i32 1, !dbg !1365
  %5 = getelementptr inbounds %"struct.std::_Rb_tree_node_base"* %4, i32 0, i32 1, !dbg !1365
  %6 = load %"struct.std::_Rb_tree_node_base"** %5, align 4, !dbg !1365
  %7 = bitcast %"struct.std::_Rb_tree_node_base"* %6 to %"struct.std::_Rb_tree_node"*, !dbg !1365
  ret %"struct.std::_Rb_tree_node"* %7, !dbg !1365
}

; Function Attrs: nounwind
define linkonce_odr %"struct.std::_Rb_tree_node"* @_ZNSt8_Rb_treeIjSt4pairIKjS0_IjjEESt10_Select1stIS3_ESt4lessIjESaIS3_EE6_M_endEv(%"class.std::_Rb_tree"* %this) #3 align 2 {
  %1 = alloca %"class.std::_Rb_tree"*, align 4
  store %"class.std::_Rb_tree"* %this, %"class.std::_Rb_tree"** %1, align 4
  call void @llvm.dbg.declare(metadata !{%"class.std::_Rb_tree"** %1}, metadata !1366), !dbg !1367
  %2 = load %"class.std::_Rb_tree"** %1
  %3 = getelementptr inbounds %"class.std::_Rb_tree"* %2, i32 0, i32 0, !dbg !1368
  %4 = getelementptr inbounds %"struct.std::_Rb_tree<unsigned int, std::pair<const unsigned int, std::pair<unsigned int, unsigned int> >, std::_Select1st<std::pair<const unsigned int, std::pair<unsigned int, unsigned int> > >, std::less<unsigned int>, std::allocator<std::pair<const unsigned int, std::pair<unsigned int, unsigned int> > > >::_Rb_tree_impl"* %3, i32 0, i32 1, !dbg !1368
  %5 = bitcast %"struct.std::_Rb_tree_node_base"* %4 to %"struct.std::_Rb_tree_node"*, !dbg !1368
  ret %"struct.std::_Rb_tree_node"* %5, !dbg !1368
}

; Function Attrs: nounwind
define linkonce_odr zeroext i1 @_ZNKSt17_Rb_tree_iteratorISt4pairIKjS0_IjjEEEeqERKS4_(%"struct.std::_Rb_tree_iterator"* %this, %"struct.std::_Rb_tree_iterator"* dereferenceable(4) %__x) #3 align 2 {
  %1 = alloca %"struct.std::_Rb_tree_iterator"*, align 4
  %2 = alloca %"struct.std::_Rb_tree_iterator"*, align 4
  store %"struct.std::_Rb_tree_iterator"* %this, %"struct.std::_Rb_tree_iterator"** %1, align 4
  call void @llvm.dbg.declare(metadata !{%"struct.std::_Rb_tree_iterator"** %1}, metadata !1369), !dbg !1370
  store %"struct.std::_Rb_tree_iterator"* %__x, %"struct.std::_Rb_tree_iterator"** %2, align 4
  call void @llvm.dbg.declare(metadata !{%"struct.std::_Rb_tree_iterator"** %2}, metadata !1371), !dbg !1372
  %3 = load %"struct.std::_Rb_tree_iterator"** %1
  %4 = getelementptr inbounds %"struct.std::_Rb_tree_iterator"* %3, i32 0, i32 0, !dbg !1373
  %5 = load %"struct.std::_Rb_tree_node_base"** %4, align 4, !dbg !1373
  %6 = load %"struct.std::_Rb_tree_iterator"** %2, align 4, !dbg !1373
  %7 = getelementptr inbounds %"struct.std::_Rb_tree_iterator"* %6, i32 0, i32 0, !dbg !1373
  %8 = load %"struct.std::_Rb_tree_node_base"** %7, align 4, !dbg !1373
  %9 = icmp eq %"struct.std::_Rb_tree_node_base"* %5, %8, !dbg !1373
  ret i1 %9, !dbg !1373
}

; Function Attrs: nounwind
define linkonce_odr zeroext i1 @_ZNKSt4lessIjEclERKjS2_(%"struct.std::less"* %this, i32* dereferenceable(4) %__x, i32* dereferenceable(4) %__y) #3 align 2 {
  %1 = alloca %"struct.std::less"*, align 4
  %2 = alloca i32*, align 4
  %3 = alloca i32*, align 4
  store %"struct.std::less"* %this, %"struct.std::less"** %1, align 4
  call void @llvm.dbg.declare(metadata !{%"struct.std::less"** %1}, metadata !1374), !dbg !1376
  store i32* %__x, i32** %2, align 4
  call void @llvm.dbg.declare(metadata !{i32** %2}, metadata !1377), !dbg !1379
  store i32* %__y, i32** %3, align 4
  call void @llvm.dbg.declare(metadata !{i32** %3}, metadata !1380), !dbg !1381
  %4 = load %"struct.std::less"** %1
  %5 = load i32** %2, align 4, !dbg !1382
  %6 = load i32* %5, align 4, !dbg !1382
  %7 = load i32** %3, align 4, !dbg !1382
  %8 = load i32* %7, align 4, !dbg !1382
  %9 = icmp ult i32 %6, %8, !dbg !1382
  ret i1 %9, !dbg !1382
}

define linkonce_odr dereferenceable(4) i32* @_ZNSt8_Rb_treeIjSt4pairIKjS0_IjjEESt10_Select1stIS3_ESt4lessIjESaIS3_EE6_S_keyEPKSt18_Rb_tree_node_base(%"struct.std::_Rb_tree_node_base"* %__x) #0 align 2 {
  %1 = alloca %"struct.std::_Rb_tree_node_base"*, align 4
  %2 = alloca %"struct.std::_Select1st", align 1
  store %"struct.std::_Rb_tree_node_base"* %__x, %"struct.std::_Rb_tree_node_base"** %1, align 4
  call void @llvm.dbg.declare(metadata !{%"struct.std::_Rb_tree_node_base"** %1}, metadata !1383), !dbg !1384
  %3 = load %"struct.std::_Rb_tree_node_base"** %1, align 4, !dbg !1385
  %4 = call dereferenceable(12) %"struct.std::pair.0"* @_ZNSt8_Rb_treeIjSt4pairIKjS0_IjjEESt10_Select1stIS3_ESt4lessIjESaIS3_EE8_S_valueEPKSt18_Rb_tree_node_base(%"struct.std::_Rb_tree_node_base"* %3), !dbg !1385
  %5 = call dereferenceable(4) i32* @_ZNKSt10_Select1stISt4pairIKjS0_IjjEEEclERKS3_(%"struct.std::_Select1st"* %2, %"struct.std::pair.0"* dereferenceable(12) %4), !dbg !1386
  ret i32* %5, !dbg !1386
}

; Function Attrs: nounwind
define linkonce_odr dereferenceable(4) i32* @_ZNKSt10_Select1stISt4pairIKjS0_IjjEEEclERKS3_(%"struct.std::_Select1st"* %this, %"struct.std::pair.0"* dereferenceable(12) %__x) #3 align 2 {
  %1 = alloca %"struct.std::_Select1st"*, align 4
  %2 = alloca %"struct.std::pair.0"*, align 4
  store %"struct.std::_Select1st"* %this, %"struct.std::_Select1st"** %1, align 4
  call void @llvm.dbg.declare(metadata !{%"struct.std::_Select1st"** %1}, metadata !1387), !dbg !1389
  store %"struct.std::pair.0"* %__x, %"struct.std::pair.0"** %2, align 4
  call void @llvm.dbg.declare(metadata !{%"struct.std::pair.0"** %2}, metadata !1390), !dbg !1391
  %3 = load %"struct.std::_Select1st"** %1
  %4 = load %"struct.std::pair.0"** %2, align 4, !dbg !1392
  %5 = getelementptr inbounds %"struct.std::pair.0"* %4, i32 0, i32 0, !dbg !1392
  ret i32* %5, !dbg !1392
}

define linkonce_odr dereferenceable(12) %"struct.std::pair.0"* @_ZNSt8_Rb_treeIjSt4pairIKjS0_IjjEESt10_Select1stIS3_ESt4lessIjESaIS3_EE8_S_valueEPKSt18_Rb_tree_node_base(%"struct.std::_Rb_tree_node_base"* %__x) #0 align 2 {
  %1 = alloca %"struct.std::_Rb_tree_node_base"*, align 4
  store %"struct.std::_Rb_tree_node_base"* %__x, %"struct.std::_Rb_tree_node_base"** %1, align 4
  call void @llvm.dbg.declare(metadata !{%"struct.std::_Rb_tree_node_base"** %1}, metadata !1393), !dbg !1394
  %2 = load %"struct.std::_Rb_tree_node_base"** %1, align 4, !dbg !1395
  %3 = bitcast %"struct.std::_Rb_tree_node_base"* %2 to %"struct.std::_Rb_tree_node"*, !dbg !1395
  %4 = call %"struct.std::pair.0"* @_ZNKSt13_Rb_tree_nodeISt4pairIKjS0_IjjEEE9_M_valptrEv(%"struct.std::_Rb_tree_node"* %3), !dbg !1395
  ret %"struct.std::pair.0"* %4, !dbg !1395
}

define linkonce_odr %"struct.std::pair.0"* @_ZNKSt13_Rb_tree_nodeISt4pairIKjS0_IjjEEE9_M_valptrEv(%"struct.std::_Rb_tree_node"* %this) #0 align 2 {
  %1 = alloca %"struct.std::_Rb_tree_node"*, align 4
  store %"struct.std::_Rb_tree_node"* %this, %"struct.std::_Rb_tree_node"** %1, align 4
  call void @llvm.dbg.declare(metadata !{%"struct.std::_Rb_tree_node"** %1}, metadata !1396), !dbg !1397
  %2 = load %"struct.std::_Rb_tree_node"** %1
  %3 = getelementptr inbounds %"struct.std::_Rb_tree_node"* %2, i32 0, i32 1, !dbg !1398
  %4 = call %"struct.std::pair.0"* @_ZSt11__addressofIKSt4pairIKjS0_IjjEEEPT_RS5_(%"struct.std::pair.0"* dereferenceable(12) %3), !dbg !1398
  ret %"struct.std::pair.0"* %4, !dbg !1398
}

; Function Attrs: inlinehint nounwind
define linkonce_odr %"struct.std::pair.0"* @_ZSt11__addressofIKSt4pairIKjS0_IjjEEEPT_RS5_(%"struct.std::pair.0"* dereferenceable(12) %__r) #6 {
  %1 = alloca %"struct.std::pair.0"*, align 4
  store %"struct.std::pair.0"* %__r, %"struct.std::pair.0"** %1, align 4
  call void @llvm.dbg.declare(metadata !{%"struct.std::pair.0"** %1}, metadata !1399), !dbg !1400
  %2 = load %"struct.std::pair.0"** %1, align 4, !dbg !1401
  %3 = bitcast %"struct.std::pair.0"* %2 to i8*, !dbg !1401
  %4 = bitcast i8* %3 to %"struct.std::pair.0"*, !dbg !1401
  ret %"struct.std::pair.0"* %4, !dbg !1401
}

define linkonce_odr dereferenceable(4) i32* @_ZNSt8_Rb_treeIjSt4pairIKjS0_IjjEESt10_Select1stIS3_ESt4lessIjESaIS3_EE6_S_keyEPKSt13_Rb_tree_nodeIS3_E(%"struct.std::_Rb_tree_node"* %__x) #0 align 2 {
  %1 = alloca %"struct.std::_Rb_tree_node"*, align 4
  %2 = alloca %"struct.std::_Select1st", align 1
  store %"struct.std::_Rb_tree_node"* %__x, %"struct.std::_Rb_tree_node"** %1, align 4
  call void @llvm.dbg.declare(metadata !{%"struct.std::_Rb_tree_node"** %1}, metadata !1402), !dbg !1403
  %3 = load %"struct.std::_Rb_tree_node"** %1, align 4, !dbg !1404
  %4 = call dereferenceable(12) %"struct.std::pair.0"* @_ZNSt8_Rb_treeIjSt4pairIKjS0_IjjEESt10_Select1stIS3_ESt4lessIjESaIS3_EE8_S_valueEPKSt13_Rb_tree_nodeIS3_E(%"struct.std::_Rb_tree_node"* %3), !dbg !1404
  %5 = call dereferenceable(4) i32* @_ZNKSt10_Select1stISt4pairIKjS0_IjjEEEclERKS3_(%"struct.std::_Select1st"* %2, %"struct.std::pair.0"* dereferenceable(12) %4), !dbg !1405
  ret i32* %5, !dbg !1405
}

; Function Attrs: nounwind
define linkonce_odr %"struct.std::_Rb_tree_node"* @_ZNSt8_Rb_treeIjSt4pairIKjS0_IjjEESt10_Select1stIS3_ESt4lessIjESaIS3_EE7_S_leftEPSt18_Rb_tree_node_base(%"struct.std::_Rb_tree_node_base"* %__x) #3 align 2 {
  %1 = alloca %"struct.std::_Rb_tree_node_base"*, align 4
  store %"struct.std::_Rb_tree_node_base"* %__x, %"struct.std::_Rb_tree_node_base"** %1, align 4
  call void @llvm.dbg.declare(metadata !{%"struct.std::_Rb_tree_node_base"** %1}, metadata !1406), !dbg !1407
  %2 = load %"struct.std::_Rb_tree_node_base"** %1, align 4, !dbg !1408
  %3 = getelementptr inbounds %"struct.std::_Rb_tree_node_base"* %2, i32 0, i32 2, !dbg !1408
  %4 = load %"struct.std::_Rb_tree_node_base"** %3, align 4, !dbg !1408
  %5 = bitcast %"struct.std::_Rb_tree_node_base"* %4 to %"struct.std::_Rb_tree_node"*, !dbg !1408
  ret %"struct.std::_Rb_tree_node"* %5, !dbg !1408
}

; Function Attrs: nounwind
define linkonce_odr %"struct.std::_Rb_tree_node"* @_ZNSt8_Rb_treeIjSt4pairIKjS0_IjjEESt10_Select1stIS3_ESt4lessIjESaIS3_EE8_S_rightEPSt18_Rb_tree_node_base(%"struct.std::_Rb_tree_node_base"* %__x) #3 align 2 {
  %1 = alloca %"struct.std::_Rb_tree_node_base"*, align 4
  store %"struct.std::_Rb_tree_node_base"* %__x, %"struct.std::_Rb_tree_node_base"** %1, align 4
  call void @llvm.dbg.declare(metadata !{%"struct.std::_Rb_tree_node_base"** %1}, metadata !1409), !dbg !1410
  %2 = load %"struct.std::_Rb_tree_node_base"** %1, align 4, !dbg !1411
  %3 = getelementptr inbounds %"struct.std::_Rb_tree_node_base"* %2, i32 0, i32 3, !dbg !1411
  %4 = load %"struct.std::_Rb_tree_node_base"** %3, align 4, !dbg !1411
  %5 = bitcast %"struct.std::_Rb_tree_node_base"* %4 to %"struct.std::_Rb_tree_node"*, !dbg !1411
  ret %"struct.std::_Rb_tree_node"* %5, !dbg !1411
}

define linkonce_odr dereferenceable(12) %"struct.std::pair.0"* @_ZNSt8_Rb_treeIjSt4pairIKjS0_IjjEESt10_Select1stIS3_ESt4lessIjESaIS3_EE8_S_valueEPKSt13_Rb_tree_nodeIS3_E(%"struct.std::_Rb_tree_node"* %__x) #0 align 2 {
  %1 = alloca %"struct.std::_Rb_tree_node"*, align 4
  store %"struct.std::_Rb_tree_node"* %__x, %"struct.std::_Rb_tree_node"** %1, align 4
  call void @llvm.dbg.declare(metadata !{%"struct.std::_Rb_tree_node"** %1}, metadata !1412), !dbg !1413
  %2 = load %"struct.std::_Rb_tree_node"** %1, align 4, !dbg !1414
  %3 = call %"struct.std::pair.0"* @_ZNKSt13_Rb_tree_nodeISt4pairIKjS0_IjjEEE9_M_valptrEv(%"struct.std::_Rb_tree_node"* %2), !dbg !1414
  ret %"struct.std::pair.0"* %3, !dbg !1414
}

define linkonce_odr i32 @_ZNSt3mapIjSt4pairIjjESt4lessIjESaIS0_IKjS1_EEE11lower_boundERS4_(%"class.std::map"* %this, i32* dereferenceable(4) %__x) #0 align 2 {
  %1 = alloca %"struct.std::_Rb_tree_iterator", align 4
  %2 = alloca %"class.std::map"*, align 4
  %3 = alloca i32*, align 4
  store %"class.std::map"* %this, %"class.std::map"** %2, align 4
  call void @llvm.dbg.declare(metadata !{%"class.std::map"** %2}, metadata !1415), !dbg !1416
  store i32* %__x, i32** %3, align 4
  call void @llvm.dbg.declare(metadata !{i32** %3}, metadata !1417), !dbg !1418
  %4 = load %"class.std::map"** %2
  %5 = getelementptr inbounds %"class.std::map"* %4, i32 0, i32 0, !dbg !1419
  %6 = load i32** %3, align 4, !dbg !1419
  %7 = call i32 @_ZNSt8_Rb_treeIjSt4pairIKjS0_IjjEESt10_Select1stIS3_ESt4lessIjESaIS3_EE11lower_boundERS1_(%"class.std::_Rb_tree"* %5, i32* dereferenceable(4) %6), !dbg !1419
  %8 = getelementptr %"struct.std::_Rb_tree_iterator"* %1, i32 0, i32 0, !dbg !1419
  %9 = inttoptr i32 %7 to %"struct.std::_Rb_tree_node_base"*, !dbg !1419
  store %"struct.std::_Rb_tree_node_base"* %9, %"struct.std::_Rb_tree_node_base"** %8, !dbg !1419
  %10 = getelementptr %"struct.std::_Rb_tree_iterator"* %1, i32 0, i32 0, !dbg !1419
  %11 = load %"struct.std::_Rb_tree_node_base"** %10, !dbg !1419
  %12 = ptrtoint %"struct.std::_Rb_tree_node_base"* %11 to i32, !dbg !1419
  ret i32 %12, !dbg !1419
}

define linkonce_odr void @_ZNKSt3mapIjSt4pairIjjESt4lessIjESaIS0_IKjS1_EEE8key_compEv(%"class.std::map"* %this) #0 align 2 {
  %1 = alloca %"struct.std::less", align 1
  %2 = alloca %"class.std::map"*, align 4
  %3 = alloca %"struct.std::less", align 1
  store %"class.std::map"* %this, %"class.std::map"** %2, align 4
  call void @llvm.dbg.declare(metadata !{%"class.std::map"** %2}, metadata !1420), !dbg !1422
  %4 = load %"class.std::map"** %2
  %5 = getelementptr inbounds %"class.std::map"* %4, i32 0, i32 0, !dbg !1423
  call void @_ZNKSt8_Rb_treeIjSt4pairIKjS0_IjjEESt10_Select1stIS3_ESt4lessIjESaIS3_EE8key_compEv(%"class.std::_Rb_tree"* %5), !dbg !1423
  ret void, !dbg !1423
}

define linkonce_odr dereferenceable(12) %"struct.std::pair.0"* @_ZNKSt17_Rb_tree_iteratorISt4pairIKjS0_IjjEEEdeEv(%"struct.std::_Rb_tree_iterator"* %this) #0 align 2 {
  %1 = alloca %"struct.std::_Rb_tree_iterator"*, align 4
  store %"struct.std::_Rb_tree_iterator"* %this, %"struct.std::_Rb_tree_iterator"** %1, align 4
  call void @llvm.dbg.declare(metadata !{%"struct.std::_Rb_tree_iterator"** %1}, metadata !1424), !dbg !1425
  %2 = load %"struct.std::_Rb_tree_iterator"** %1
  %3 = getelementptr inbounds %"struct.std::_Rb_tree_iterator"* %2, i32 0, i32 0, !dbg !1426
  %4 = load %"struct.std::_Rb_tree_node_base"** %3, align 4, !dbg !1426
  %5 = bitcast %"struct.std::_Rb_tree_node_base"* %4 to %"struct.std::_Rb_tree_node"*, !dbg !1426
  %6 = call %"struct.std::pair.0"* @_ZNSt13_Rb_tree_nodeISt4pairIKjS0_IjjEEE9_M_valptrEv(%"struct.std::_Rb_tree_node"* %5), !dbg !1426
  ret %"struct.std::pair.0"* %6, !dbg !1426
}

define linkonce_odr i32 @_ZNSt3mapIjSt4pairIjjESt4lessIjESaIS0_IKjS1_EEE6insertESt17_Rb_tree_iteratorIS5_ERKS5_(%"class.std::map"* %this, [1 x i32] %__position.coerce, %"struct.std::pair.0"* dereferenceable(12) %__x) #0 align 2 {
  %1 = alloca %"struct.std::_Rb_tree_iterator", align 4
  %__position = alloca %"struct.std::_Rb_tree_iterator", align 4
  %2 = alloca %"class.std::map"*, align 4
  %3 = alloca %"struct.std::pair.0"*, align 4
  %4 = alloca %"struct.std::_Rb_tree_const_iterator", align 4
  %5 = getelementptr %"struct.std::_Rb_tree_iterator"* %__position, i32 0, i32 0
  %6 = bitcast %"struct.std::_Rb_tree_node_base"** %5 to [1 x i32]*
  store [1 x i32] %__position.coerce, [1 x i32]* %6, align 1
  store %"class.std::map"* %this, %"class.std::map"** %2, align 4
  call void @llvm.dbg.declare(metadata !{%"class.std::map"** %2}, metadata !1427), !dbg !1428
  call void @llvm.dbg.declare(metadata !{%"struct.std::_Rb_tree_iterator"* %__position}, metadata !1429), !dbg !1430
  store %"struct.std::pair.0"* %__x, %"struct.std::pair.0"** %3, align 4
  call void @llvm.dbg.declare(metadata !{%"struct.std::pair.0"** %3}, metadata !1431), !dbg !1432
  %7 = load %"class.std::map"** %2
  %8 = getelementptr inbounds %"class.std::map"* %7, i32 0, i32 0, !dbg !1433
  %9 = call %"struct.std::_Rb_tree_const_iterator"* @_ZNSt23_Rb_tree_const_iteratorISt4pairIKjS0_IjjEEEC2ERKSt17_Rb_tree_iteratorIS3_E(%"struct.std::_Rb_tree_const_iterator"* %4, %"struct.std::_Rb_tree_iterator"* dereferenceable(4) %__position), !dbg !1433
  %10 = load %"struct.std::pair.0"** %3, align 4, !dbg !1433
  %11 = bitcast %"struct.std::_Rb_tree_const_iterator"* %4 to { [1 x i32] }*, !dbg !1433
  %12 = getelementptr { [1 x i32] }* %11, i32 0, i32 0, !dbg !1433
  %13 = load [1 x i32]* %12, align 1, !dbg !1433
  %14 = call i32 @_ZNSt8_Rb_treeIjSt4pairIKjS0_IjjEESt10_Select1stIS3_ESt4lessIjESaIS3_EE17_M_insert_unique_ESt23_Rb_tree_const_iteratorIS3_ERKS3_(%"class.std::_Rb_tree"* %8, [1 x i32] %13, %"struct.std::pair.0"* dereferenceable(12) %10), !dbg !1433
  %15 = getelementptr %"struct.std::_Rb_tree_iterator"* %1, i32 0, i32 0, !dbg !1433
  %16 = inttoptr i32 %14 to %"struct.std::_Rb_tree_node_base"*, !dbg !1433
  store %"struct.std::_Rb_tree_node_base"* %16, %"struct.std::_Rb_tree_node_base"** %15, !dbg !1433
  %17 = getelementptr %"struct.std::_Rb_tree_iterator"* %1, i32 0, i32 0, !dbg !1433
  %18 = load %"struct.std::_Rb_tree_node_base"** %17, !dbg !1433
  %19 = ptrtoint %"struct.std::_Rb_tree_node_base"* %18 to i32, !dbg !1433
  ret i32 %19, !dbg !1433
}

; Function Attrs: nounwind
define linkonce_odr %"struct.std::pair"* @_ZNSt4pairIjjEC2Ev(%"struct.std::pair"* returned %this) unnamed_addr #3 align 2 {
  %1 = alloca %"struct.std::pair"*, align 4
  store %"struct.std::pair"* %this, %"struct.std::pair"** %1, align 4
  call void @llvm.dbg.declare(metadata !{%"struct.std::pair"** %1}, metadata !1434), !dbg !1435
  %2 = load %"struct.std::pair"** %1
  %3 = getelementptr inbounds %"struct.std::pair"* %2, i32 0, i32 0, !dbg !1436
  store i32 0, i32* %3, align 4, !dbg !1436
  %4 = getelementptr inbounds %"struct.std::pair"* %2, i32 0, i32 1, !dbg !1436
  store i32 0, i32* %4, align 4, !dbg !1436
  ret %"struct.std::pair"* %2, !dbg !1437
}

; Function Attrs: nounwind
define linkonce_odr %"struct.std::pair.0"* @_ZNSt4pairIKjS_IjjEEC2ERS0_RKS1_(%"struct.std::pair.0"* returned %this, i32* dereferenceable(4) %__a, %"struct.std::pair"* dereferenceable(8) %__b) unnamed_addr #3 align 2 {
  %1 = alloca %"struct.std::pair.0"*, align 4
  %2 = alloca i32*, align 4
  %3 = alloca %"struct.std::pair"*, align 4
  store %"struct.std::pair.0"* %this, %"struct.std::pair.0"** %1, align 4
  call void @llvm.dbg.declare(metadata !{%"struct.std::pair.0"** %1}, metadata !1438), !dbg !1439
  store i32* %__a, i32** %2, align 4
  call void @llvm.dbg.declare(metadata !{i32** %2}, metadata !1440), !dbg !1441
  store %"struct.std::pair"* %__b, %"struct.std::pair"** %3, align 4
  call void @llvm.dbg.declare(metadata !{%"struct.std::pair"** %3}, metadata !1442), !dbg !1443
  %4 = load %"struct.std::pair.0"** %1
  %5 = getelementptr inbounds %"struct.std::pair.0"* %4, i32 0, i32 0, !dbg !1444
  %6 = load i32** %2, align 4, !dbg !1444
  %7 = load i32* %6, align 4, !dbg !1444
  store i32 %7, i32* %5, align 4, !dbg !1444
  %8 = getelementptr inbounds %"struct.std::pair.0"* %4, i32 0, i32 1, !dbg !1444
  %9 = load %"struct.std::pair"** %3, align 4, !dbg !1444
  %10 = bitcast %"struct.std::pair"* %8 to i8*, !dbg !1444
  %11 = bitcast %"struct.std::pair"* %9 to i8*, !dbg !1444
  call void @llvm.memcpy.p0i8.p0i8.i32(i8* %10, i8* %11, i32 8, i32 4, i1 false), !dbg !1444
  ret %"struct.std::pair.0"* %4, !dbg !1445
}

define linkonce_odr i32 @_ZNSt8_Rb_treeIjSt4pairIKjS0_IjjEESt10_Select1stIS3_ESt4lessIjESaIS3_EE17_M_insert_unique_ESt23_Rb_tree_const_iteratorIS3_ERKS3_(%"class.std::_Rb_tree"* %this, [1 x i32] %__position.coerce, %"struct.std::pair.0"* dereferenceable(12) %__v) #0 align 2 {
  %1 = alloca %"struct.std::_Rb_tree_iterator", align 4
  %__position = alloca %"struct.std::_Rb_tree_const_iterator", align 4
  %2 = alloca %"class.std::_Rb_tree"*, align 4
  %3 = alloca %"struct.std::pair.0"*, align 4
  %__res = alloca %"struct.std::pair.1", align 4
  %4 = alloca %"struct.std::_Rb_tree_const_iterator", align 4
  %5 = alloca %"struct.std::_Select1st", align 1
  %6 = getelementptr %"struct.std::_Rb_tree_const_iterator"* %__position, i32 0, i32 0
  %7 = bitcast %"struct.std::_Rb_tree_node_base"** %6 to [1 x i32]*
  store [1 x i32] %__position.coerce, [1 x i32]* %7, align 1
  store %"class.std::_Rb_tree"* %this, %"class.std::_Rb_tree"** %2, align 4
  call void @llvm.dbg.declare(metadata !{%"class.std::_Rb_tree"** %2}, metadata !1446), !dbg !1447
  call void @llvm.dbg.declare(metadata !{%"struct.std::_Rb_tree_const_iterator"* %__position}, metadata !1448), !dbg !1449
  store %"struct.std::pair.0"* %__v, %"struct.std::pair.0"** %3, align 4
  call void @llvm.dbg.declare(metadata !{%"struct.std::pair.0"** %3}, metadata !1450), !dbg !1451
  %8 = load %"class.std::_Rb_tree"** %2
  call void @llvm.dbg.declare(metadata !{%"struct.std::pair.1"* %__res}, metadata !1452), !dbg !1453
  %9 = bitcast %"struct.std::_Rb_tree_const_iterator"* %4 to i8*, !dbg !1454
  %10 = bitcast %"struct.std::_Rb_tree_const_iterator"* %__position to i8*, !dbg !1454
  call void @llvm.memcpy.p0i8.p0i8.i32(i8* %9, i8* %10, i32 4, i32 4, i1 false), !dbg !1454
  %11 = load %"struct.std::pair.0"** %3, align 4, !dbg !1455
  %12 = call dereferenceable(4) i32* @_ZNKSt10_Select1stISt4pairIKjS0_IjjEEEclERKS3_(%"struct.std::_Select1st"* %5, %"struct.std::pair.0"* dereferenceable(12) %11), !dbg !1455
  %13 = bitcast %"struct.std::_Rb_tree_const_iterator"* %4 to { [1 x i32] }*, !dbg !1454
  %14 = getelementptr { [1 x i32] }* %13, i32 0, i32 0, !dbg !1454
  %15 = load [1 x i32]* %14, align 1, !dbg !1454
  call void @_ZNSt8_Rb_treeIjSt4pairIKjS0_IjjEESt10_Select1stIS3_ESt4lessIjESaIS3_EE29_M_get_insert_hint_unique_posESt23_Rb_tree_const_iteratorIS3_ERS1_(%"struct.std::pair.1"* sret %__res, %"class.std::_Rb_tree"* %8, [1 x i32] %15, i32* dereferenceable(4) %12), !dbg !1454
  %16 = getelementptr inbounds %"struct.std::pair.1"* %__res, i32 0, i32 1, !dbg !1456
  %17 = load %"struct.std::_Rb_tree_node_base"** %16, align 4, !dbg !1456
  %18 = icmp ne %"struct.std::_Rb_tree_node_base"* %17, null, !dbg !1456
  br i1 %18, label %19, label %28, !dbg !1456

; <label>:19                                      ; preds = %0
  %20 = getelementptr inbounds %"struct.std::pair.1"* %__res, i32 0, i32 0, !dbg !1458
  %21 = load %"struct.std::_Rb_tree_node_base"** %20, align 4, !dbg !1458
  %22 = getelementptr inbounds %"struct.std::pair.1"* %__res, i32 0, i32 1, !dbg !1458
  %23 = load %"struct.std::_Rb_tree_node_base"** %22, align 4, !dbg !1458
  %24 = load %"struct.std::pair.0"** %3, align 4, !dbg !1458
  %25 = call i32 @_ZNSt8_Rb_treeIjSt4pairIKjS0_IjjEESt10_Select1stIS3_ESt4lessIjESaIS3_EE10_M_insert_EPSt18_Rb_tree_node_baseSB_RKS3_(%"class.std::_Rb_tree"* %8, %"struct.std::_Rb_tree_node_base"* %21, %"struct.std::_Rb_tree_node_base"* %23, %"struct.std::pair.0"* dereferenceable(12) %24), !dbg !1458
  %26 = getelementptr %"struct.std::_Rb_tree_iterator"* %1, i32 0, i32 0, !dbg !1458
  %27 = inttoptr i32 %25 to %"struct.std::_Rb_tree_node_base"*, !dbg !1458
  store %"struct.std::_Rb_tree_node_base"* %27, %"struct.std::_Rb_tree_node_base"** %26, !dbg !1458
  br label %33, !dbg !1458

; <label>:28                                      ; preds = %0
  %29 = getelementptr inbounds %"struct.std::pair.1"* %__res, i32 0, i32 0, !dbg !1459
  %30 = load %"struct.std::_Rb_tree_node_base"** %29, align 4, !dbg !1459
  %31 = bitcast %"struct.std::_Rb_tree_node_base"* %30 to %"struct.std::_Rb_tree_node"*, !dbg !1459
  %32 = call %"struct.std::_Rb_tree_iterator"* @_ZNSt17_Rb_tree_iteratorISt4pairIKjS0_IjjEEEC2EPSt13_Rb_tree_nodeIS3_E(%"struct.std::_Rb_tree_iterator"* %1, %"struct.std::_Rb_tree_node"* %31), !dbg !1459
  br label %33, !dbg !1459

; <label>:33                                      ; preds = %28, %19
  %34 = getelementptr %"struct.std::_Rb_tree_iterator"* %1, i32 0, i32 0, !dbg !1460
  %35 = load %"struct.std::_Rb_tree_node_base"** %34, !dbg !1460
  %36 = ptrtoint %"struct.std::_Rb_tree_node_base"* %35 to i32, !dbg !1460
  ret i32 %36, !dbg !1460
}

; Function Attrs: nounwind
define linkonce_odr %"struct.std::_Rb_tree_const_iterator"* @_ZNSt23_Rb_tree_const_iteratorISt4pairIKjS0_IjjEEEC2ERKSt17_Rb_tree_iteratorIS3_E(%"struct.std::_Rb_tree_const_iterator"* returned %this, %"struct.std::_Rb_tree_iterator"* dereferenceable(4) %__it) unnamed_addr #3 align 2 {
  %1 = alloca %"struct.std::_Rb_tree_const_iterator"*, align 4
  %2 = alloca %"struct.std::_Rb_tree_iterator"*, align 4
  store %"struct.std::_Rb_tree_const_iterator"* %this, %"struct.std::_Rb_tree_const_iterator"** %1, align 4
  call void @llvm.dbg.declare(metadata !{%"struct.std::_Rb_tree_const_iterator"** %1}, metadata !1461), !dbg !1463
  store %"struct.std::_Rb_tree_iterator"* %__it, %"struct.std::_Rb_tree_iterator"** %2, align 4
  call void @llvm.dbg.declare(metadata !{%"struct.std::_Rb_tree_iterator"** %2}, metadata !1464), !dbg !1465
  %3 = load %"struct.std::_Rb_tree_const_iterator"** %1
  %4 = getelementptr inbounds %"struct.std::_Rb_tree_const_iterator"* %3, i32 0, i32 0, !dbg !1466
  %5 = load %"struct.std::_Rb_tree_iterator"** %2, align 4, !dbg !1466
  %6 = getelementptr inbounds %"struct.std::_Rb_tree_iterator"* %5, i32 0, i32 0, !dbg !1466
  %7 = load %"struct.std::_Rb_tree_node_base"** %6, align 4, !dbg !1466
  store %"struct.std::_Rb_tree_node_base"* %7, %"struct.std::_Rb_tree_node_base"** %4, align 4, !dbg !1466
  ret %"struct.std::_Rb_tree_const_iterator"* %3, !dbg !1467
}

define linkonce_odr void @_ZNSt8_Rb_treeIjSt4pairIKjS0_IjjEESt10_Select1stIS3_ESt4lessIjESaIS3_EE29_M_get_insert_hint_unique_posESt23_Rb_tree_const_iteratorIS3_ERS1_(%"struct.std::pair.1"* noalias sret %agg.result, %"class.std::_Rb_tree"* %this, [1 x i32] %__position.coerce, i32* dereferenceable(4) %__k) #0 align 2 {
  %__position = alloca %"struct.std::_Rb_tree_const_iterator", align 4
  %1 = alloca %"class.std::_Rb_tree"*, align 4
  %2 = alloca i32*, align 4
  %__pos = alloca %"struct.std::_Rb_tree_iterator", align 4
  %3 = alloca %"struct.std::_Rb_tree_node_base"*, align 4
  %__before = alloca %"struct.std::_Rb_tree_iterator", align 4
  %4 = alloca %"struct.std::_Rb_tree_node_base"*, align 4
  %__after = alloca %"struct.std::_Rb_tree_iterator", align 4
  %5 = alloca %"struct.std::_Rb_tree_node_base"*, align 4
  %6 = alloca %"struct.std::_Rb_tree_node_base"*, align 4
  %7 = alloca %"struct.std::_Rb_tree_node_base"*, align 4
  %8 = getelementptr %"struct.std::_Rb_tree_const_iterator"* %__position, i32 0, i32 0
  %9 = bitcast %"struct.std::_Rb_tree_node_base"** %8 to [1 x i32]*
  store [1 x i32] %__position.coerce, [1 x i32]* %9, align 1
  store %"class.std::_Rb_tree"* %this, %"class.std::_Rb_tree"** %1, align 4
  call void @llvm.dbg.declare(metadata !{%"class.std::_Rb_tree"** %1}, metadata !1468), !dbg !1469
  call void @llvm.dbg.declare(metadata !{%"struct.std::_Rb_tree_const_iterator"* %__position}, metadata !1470), !dbg !1471
  store i32* %__k, i32** %2, align 4
  call void @llvm.dbg.declare(metadata !{i32** %2}, metadata !1472), !dbg !1473
  %10 = load %"class.std::_Rb_tree"** %1
  call void @llvm.dbg.declare(metadata !{%"struct.std::_Rb_tree_iterator"* %__pos}, metadata !1474), !dbg !1475
  %11 = call i32 @_ZNKSt23_Rb_tree_const_iteratorISt4pairIKjS0_IjjEEE13_M_const_castEv(%"struct.std::_Rb_tree_const_iterator"* %__position), !dbg !1476
  %12 = getelementptr %"struct.std::_Rb_tree_iterator"* %__pos, i32 0, i32 0, !dbg !1476
  %13 = inttoptr i32 %11 to %"struct.std::_Rb_tree_node_base"*, !dbg !1476
  store %"struct.std::_Rb_tree_node_base"* %13, %"struct.std::_Rb_tree_node_base"** %12, !dbg !1476
  %14 = getelementptr inbounds %"struct.std::_Rb_tree_iterator"* %__pos, i32 0, i32 0, !dbg !1477
  %15 = load %"struct.std::_Rb_tree_node_base"** %14, align 4, !dbg !1477
  %16 = call %"struct.std::_Rb_tree_node"* @_ZNSt8_Rb_treeIjSt4pairIKjS0_IjjEESt10_Select1stIS3_ESt4lessIjESaIS3_EE6_M_endEv(%"class.std::_Rb_tree"* %10), !dbg !1479
  %17 = bitcast %"struct.std::_Rb_tree_node"* %16 to %"struct.std::_Rb_tree_node_base"*, !dbg !1479
  %18 = icmp eq %"struct.std::_Rb_tree_node_base"* %15, %17, !dbg !1479
  br i1 %18, label %19, label %35, !dbg !1479

; <label>:19                                      ; preds = %0
  %20 = call i32 @_ZNKSt8_Rb_treeIjSt4pairIKjS0_IjjEESt10_Select1stIS3_ESt4lessIjESaIS3_EE4sizeEv(%"class.std::_Rb_tree"* %10), !dbg !1480
  %21 = icmp ugt i32 %20, 0, !dbg !1480
  br i1 %21, label %22, label %33, !dbg !1480

; <label>:22                                      ; preds = %19
  %23 = getelementptr inbounds %"class.std::_Rb_tree"* %10, i32 0, i32 0, !dbg !1483
  %24 = getelementptr inbounds %"struct.std::_Rb_tree<unsigned int, std::pair<const unsigned int, std::pair<unsigned int, unsigned int> >, std::_Select1st<std::pair<const unsigned int, std::pair<unsigned int, unsigned int> > >, std::less<unsigned int>, std::allocator<std::pair<const unsigned int, std::pair<unsigned int, unsigned int> > > >::_Rb_tree_impl"* %23, i32 0, i32 0, !dbg !1483
  %25 = call dereferenceable(4) %"struct.std::_Rb_tree_node_base"** @_ZNSt8_Rb_treeIjSt4pairIKjS0_IjjEESt10_Select1stIS3_ESt4lessIjESaIS3_EE12_M_rightmostEv(%"class.std::_Rb_tree"* %10), !dbg !1484
  %26 = load %"struct.std::_Rb_tree_node_base"** %25, !dbg !1484
  %27 = call dereferenceable(4) i32* @_ZNSt8_Rb_treeIjSt4pairIKjS0_IjjEESt10_Select1stIS3_ESt4lessIjESaIS3_EE6_S_keyEPKSt18_Rb_tree_node_base(%"struct.std::_Rb_tree_node_base"* %26), !dbg !1485
  %28 = load i32** %2, align 4, !dbg !1483
  %29 = call zeroext i1 @_ZNKSt4lessIjEclERKjS2_(%"struct.std::less"* %24, i32* dereferenceable(4) %27, i32* dereferenceable(4) %28), !dbg !1483
  br i1 %29, label %30, label %33, !dbg !1483

; <label>:30                                      ; preds = %22
  store %"struct.std::_Rb_tree_node_base"* null, %"struct.std::_Rb_tree_node_base"** %3, !dbg !1486
  %31 = call dereferenceable(4) %"struct.std::_Rb_tree_node_base"** @_ZNSt8_Rb_treeIjSt4pairIKjS0_IjjEESt10_Select1stIS3_ESt4lessIjESaIS3_EE12_M_rightmostEv(%"class.std::_Rb_tree"* %10), !dbg !1487
  %32 = call %"struct.std::pair.1"* @_ZNSt4pairIPSt18_Rb_tree_node_baseS1_EC2ERKS1_S4_(%"struct.std::pair.1"* %agg.result, %"struct.std::_Rb_tree_node_base"** dereferenceable(4) %3, %"struct.std::_Rb_tree_node_base"** dereferenceable(4) %31), !dbg !1486
  br label %123, !dbg !1486

; <label>:33                                      ; preds = %22, %19
  %34 = load i32** %2, align 4, !dbg !1488
  call void @_ZNSt8_Rb_treeIjSt4pairIKjS0_IjjEESt10_Select1stIS3_ESt4lessIjESaIS3_EE24_M_get_insert_unique_posERS1_(%"struct.std::pair.1"* sret %agg.result, %"class.std::_Rb_tree"* %10, i32* dereferenceable(4) %34), !dbg !1488
  br label %123, !dbg !1488

; <label>:35                                      ; preds = %0
  %36 = getelementptr inbounds %"class.std::_Rb_tree"* %10, i32 0, i32 0, !dbg !1489
  %37 = getelementptr inbounds %"struct.std::_Rb_tree<unsigned int, std::pair<const unsigned int, std::pair<unsigned int, unsigned int> >, std::_Select1st<std::pair<const unsigned int, std::pair<unsigned int, unsigned int> > >, std::less<unsigned int>, std::allocator<std::pair<const unsigned int, std::pair<unsigned int, unsigned int> > > >::_Rb_tree_impl"* %36, i32 0, i32 0, !dbg !1489
  %38 = load i32** %2, align 4, !dbg !1489
  %39 = getelementptr inbounds %"struct.std::_Rb_tree_iterator"* %__pos, i32 0, i32 0, !dbg !1491
  %40 = load %"struct.std::_Rb_tree_node_base"** %39, align 4, !dbg !1491
  %41 = call dereferenceable(4) i32* @_ZNSt8_Rb_treeIjSt4pairIKjS0_IjjEESt10_Select1stIS3_ESt4lessIjESaIS3_EE6_S_keyEPKSt18_Rb_tree_node_base(%"struct.std::_Rb_tree_node_base"* %40), !dbg !1491
  %42 = call zeroext i1 @_ZNKSt4lessIjEclERKjS2_(%"struct.std::less"* %37, i32* dereferenceable(4) %38, i32* dereferenceable(4) %41), !dbg !1489
  br i1 %42, label %43, label %78, !dbg !1489

; <label>:43                                      ; preds = %35
  call void @llvm.dbg.declare(metadata !{%"struct.std::_Rb_tree_iterator"* %__before}, metadata !1492), !dbg !1494
  %44 = bitcast %"struct.std::_Rb_tree_iterator"* %__before to i8*, !dbg !1495
  %45 = bitcast %"struct.std::_Rb_tree_iterator"* %__pos to i8*, !dbg !1495
  call void @llvm.memcpy.p0i8.p0i8.i32(i8* %44, i8* %45, i32 4, i32 4, i1 false), !dbg !1495
  %46 = getelementptr inbounds %"struct.std::_Rb_tree_iterator"* %__pos, i32 0, i32 0, !dbg !1496
  %47 = load %"struct.std::_Rb_tree_node_base"** %46, align 4, !dbg !1496
  %48 = call dereferenceable(4) %"struct.std::_Rb_tree_node_base"** @_ZNSt8_Rb_treeIjSt4pairIKjS0_IjjEESt10_Select1stIS3_ESt4lessIjESaIS3_EE11_M_leftmostEv(%"class.std::_Rb_tree"* %10), !dbg !1498
  %49 = load %"struct.std::_Rb_tree_node_base"** %48, !dbg !1498
  %50 = icmp eq %"struct.std::_Rb_tree_node_base"* %47, %49, !dbg !1498
  br i1 %50, label %51, label %55, !dbg !1498

; <label>:51                                      ; preds = %43
  %52 = call dereferenceable(4) %"struct.std::_Rb_tree_node_base"** @_ZNSt8_Rb_treeIjSt4pairIKjS0_IjjEESt10_Select1stIS3_ESt4lessIjESaIS3_EE11_M_leftmostEv(%"class.std::_Rb_tree"* %10), !dbg !1499
  %53 = call dereferenceable(4) %"struct.std::_Rb_tree_node_base"** @_ZNSt8_Rb_treeIjSt4pairIKjS0_IjjEESt10_Select1stIS3_ESt4lessIjESaIS3_EE11_M_leftmostEv(%"class.std::_Rb_tree"* %10), !dbg !1500
  %54 = call %"struct.std::pair.1"* @_ZNSt4pairIPSt18_Rb_tree_node_baseS1_EC2ERKS1_S4_(%"struct.std::pair.1"* %agg.result, %"struct.std::_Rb_tree_node_base"** dereferenceable(4) %52, %"struct.std::_Rb_tree_node_base"** dereferenceable(4) %53), !dbg !1501
  br label %123, !dbg !1501

; <label>:55                                      ; preds = %43
  %56 = getelementptr inbounds %"class.std::_Rb_tree"* %10, i32 0, i32 0, !dbg !1502
  %57 = getelementptr inbounds %"struct.std::_Rb_tree<unsigned int, std::pair<const unsigned int, std::pair<unsigned int, unsigned int> >, std::_Select1st<std::pair<const unsigned int, std::pair<unsigned int, unsigned int> > >, std::less<unsigned int>, std::allocator<std::pair<const unsigned int, std::pair<unsigned int, unsigned int> > > >::_Rb_tree_impl"* %56, i32 0, i32 0, !dbg !1502
  %58 = call dereferenceable(4) %"struct.std::_Rb_tree_iterator"* @_ZNSt17_Rb_tree_iteratorISt4pairIKjS0_IjjEEEmmEv(%"struct.std::_Rb_tree_iterator"* %__before), !dbg !1504
  %59 = getelementptr inbounds %"struct.std::_Rb_tree_iterator"* %58, i32 0, i32 0, !dbg !1504
  %60 = load %"struct.std::_Rb_tree_node_base"** %59, align 4, !dbg !1504
  %61 = call dereferenceable(4) i32* @_ZNSt8_Rb_treeIjSt4pairIKjS0_IjjEESt10_Select1stIS3_ESt4lessIjESaIS3_EE6_S_keyEPKSt18_Rb_tree_node_base(%"struct.std::_Rb_tree_node_base"* %60), !dbg !1505
  %62 = load i32** %2, align 4, !dbg !1502
  %63 = call zeroext i1 @_ZNKSt4lessIjEclERKjS2_(%"struct.std::less"* %57, i32* dereferenceable(4) %61, i32* dereferenceable(4) %62), !dbg !1502
  br i1 %63, label %64, label %76, !dbg !1502

; <label>:64                                      ; preds = %55
  %65 = getelementptr inbounds %"struct.std::_Rb_tree_iterator"* %__before, i32 0, i32 0, !dbg !1506
  %66 = load %"struct.std::_Rb_tree_node_base"** %65, align 4, !dbg !1506
  %67 = call %"struct.std::_Rb_tree_node"* @_ZNSt8_Rb_treeIjSt4pairIKjS0_IjjEESt10_Select1stIS3_ESt4lessIjESaIS3_EE8_S_rightEPSt18_Rb_tree_node_base(%"struct.std::_Rb_tree_node_base"* %66), !dbg !1506
  %68 = icmp eq %"struct.std::_Rb_tree_node"* %67, null, !dbg !1506
  br i1 %68, label %69, label %72, !dbg !1506

; <label>:69                                      ; preds = %64
  store %"struct.std::_Rb_tree_node_base"* null, %"struct.std::_Rb_tree_node_base"** %4, !dbg !1509
  %70 = getelementptr inbounds %"struct.std::_Rb_tree_iterator"* %__before, i32 0, i32 0, !dbg !1509
  %71 = call %"struct.std::pair.1"* @_ZNSt4pairIPSt18_Rb_tree_node_baseS1_EC2ERKS1_S4_(%"struct.std::pair.1"* %agg.result, %"struct.std::_Rb_tree_node_base"** dereferenceable(4) %4, %"struct.std::_Rb_tree_node_base"** dereferenceable(4) %70), !dbg !1509
  br label %123, !dbg !1509

; <label>:72                                      ; preds = %64
  %73 = getelementptr inbounds %"struct.std::_Rb_tree_iterator"* %__pos, i32 0, i32 0, !dbg !1510
  %74 = getelementptr inbounds %"struct.std::_Rb_tree_iterator"* %__pos, i32 0, i32 0, !dbg !1510
  %75 = call %"struct.std::pair.1"* @_ZNSt4pairIPSt18_Rb_tree_node_baseS1_EC2ERKS1_S4_(%"struct.std::pair.1"* %agg.result, %"struct.std::_Rb_tree_node_base"** dereferenceable(4) %73, %"struct.std::_Rb_tree_node_base"** dereferenceable(4) %74), !dbg !1510
  br label %123, !dbg !1510

; <label>:76                                      ; preds = %55
  %77 = load i32** %2, align 4, !dbg !1511
  call void @_ZNSt8_Rb_treeIjSt4pairIKjS0_IjjEESt10_Select1stIS3_ESt4lessIjESaIS3_EE24_M_get_insert_unique_posERS1_(%"struct.std::pair.1"* sret %agg.result, %"class.std::_Rb_tree"* %10, i32* dereferenceable(4) %77), !dbg !1511
  br label %123, !dbg !1511

; <label>:78                                      ; preds = %35
  %79 = getelementptr inbounds %"class.std::_Rb_tree"* %10, i32 0, i32 0, !dbg !1512
  %80 = getelementptr inbounds %"struct.std::_Rb_tree<unsigned int, std::pair<const unsigned int, std::pair<unsigned int, unsigned int> >, std::_Select1st<std::pair<const unsigned int, std::pair<unsigned int, unsigned int> > >, std::less<unsigned int>, std::allocator<std::pair<const unsigned int, std::pair<unsigned int, unsigned int> > > >::_Rb_tree_impl"* %79, i32 0, i32 0, !dbg !1512
  %81 = getelementptr inbounds %"struct.std::_Rb_tree_iterator"* %__pos, i32 0, i32 0, !dbg !1514
  %82 = load %"struct.std::_Rb_tree_node_base"** %81, align 4, !dbg !1514
  %83 = call dereferenceable(4) i32* @_ZNSt8_Rb_treeIjSt4pairIKjS0_IjjEESt10_Select1stIS3_ESt4lessIjESaIS3_EE6_S_keyEPKSt18_Rb_tree_node_base(%"struct.std::_Rb_tree_node_base"* %82), !dbg !1514
  %84 = load i32** %2, align 4, !dbg !1512
  %85 = call zeroext i1 @_ZNKSt4lessIjEclERKjS2_(%"struct.std::less"* %80, i32* dereferenceable(4) %83, i32* dereferenceable(4) %84), !dbg !1512
  br i1 %85, label %86, label %120, !dbg !1512

; <label>:86                                      ; preds = %78
  call void @llvm.dbg.declare(metadata !{%"struct.std::_Rb_tree_iterator"* %__after}, metadata !1515), !dbg !1517
  %87 = bitcast %"struct.std::_Rb_tree_iterator"* %__after to i8*, !dbg !1518
  %88 = bitcast %"struct.std::_Rb_tree_iterator"* %__pos to i8*, !dbg !1518
  call void @llvm.memcpy.p0i8.p0i8.i32(i8* %87, i8* %88, i32 4, i32 4, i1 false), !dbg !1518
  %89 = getelementptr inbounds %"struct.std::_Rb_tree_iterator"* %__pos, i32 0, i32 0, !dbg !1519
  %90 = load %"struct.std::_Rb_tree_node_base"** %89, align 4, !dbg !1519
  %91 = call dereferenceable(4) %"struct.std::_Rb_tree_node_base"** @_ZNSt8_Rb_treeIjSt4pairIKjS0_IjjEESt10_Select1stIS3_ESt4lessIjESaIS3_EE12_M_rightmostEv(%"class.std::_Rb_tree"* %10), !dbg !1521
  %92 = load %"struct.std::_Rb_tree_node_base"** %91, !dbg !1521
  %93 = icmp eq %"struct.std::_Rb_tree_node_base"* %90, %92, !dbg !1521
  br i1 %93, label %94, label %97, !dbg !1521

; <label>:94                                      ; preds = %86
  store %"struct.std::_Rb_tree_node_base"* null, %"struct.std::_Rb_tree_node_base"** %5, !dbg !1522
  %95 = call dereferenceable(4) %"struct.std::_Rb_tree_node_base"** @_ZNSt8_Rb_treeIjSt4pairIKjS0_IjjEESt10_Select1stIS3_ESt4lessIjESaIS3_EE12_M_rightmostEv(%"class.std::_Rb_tree"* %10), !dbg !1523
  %96 = call %"struct.std::pair.1"* @_ZNSt4pairIPSt18_Rb_tree_node_baseS1_EC2ERKS1_S4_(%"struct.std::pair.1"* %agg.result, %"struct.std::_Rb_tree_node_base"** dereferenceable(4) %5, %"struct.std::_Rb_tree_node_base"** dereferenceable(4) %95), !dbg !1522
  br label %123, !dbg !1522

; <label>:97                                      ; preds = %86
  %98 = getelementptr inbounds %"class.std::_Rb_tree"* %10, i32 0, i32 0, !dbg !1524
  %99 = getelementptr inbounds %"struct.std::_Rb_tree<unsigned int, std::pair<const unsigned int, std::pair<unsigned int, unsigned int> >, std::_Select1st<std::pair<const unsigned int, std::pair<unsigned int, unsigned int> > >, std::less<unsigned int>, std::allocator<std::pair<const unsigned int, std::pair<unsigned int, unsigned int> > > >::_Rb_tree_impl"* %98, i32 0, i32 0, !dbg !1524
  %100 = load i32** %2, align 4, !dbg !1524
  %101 = call dereferenceable(4) %"struct.std::_Rb_tree_iterator"* @_ZNSt17_Rb_tree_iteratorISt4pairIKjS0_IjjEEEppEv(%"struct.std::_Rb_tree_iterator"* %__after), !dbg !1526
  %102 = getelementptr inbounds %"struct.std::_Rb_tree_iterator"* %101, i32 0, i32 0, !dbg !1526
  %103 = load %"struct.std::_Rb_tree_node_base"** %102, align 4, !dbg !1526
  %104 = call dereferenceable(4) i32* @_ZNSt8_Rb_treeIjSt4pairIKjS0_IjjEESt10_Select1stIS3_ESt4lessIjESaIS3_EE6_S_keyEPKSt18_Rb_tree_node_base(%"struct.std::_Rb_tree_node_base"* %103), !dbg !1527
  %105 = call zeroext i1 @_ZNKSt4lessIjEclERKjS2_(%"struct.std::less"* %99, i32* dereferenceable(4) %100, i32* dereferenceable(4) %104), !dbg !1524
  br i1 %105, label %106, label %118, !dbg !1524

; <label>:106                                     ; preds = %97
  %107 = getelementptr inbounds %"struct.std::_Rb_tree_iterator"* %__pos, i32 0, i32 0, !dbg !1528
  %108 = load %"struct.std::_Rb_tree_node_base"** %107, align 4, !dbg !1528
  %109 = call %"struct.std::_Rb_tree_node"* @_ZNSt8_Rb_treeIjSt4pairIKjS0_IjjEESt10_Select1stIS3_ESt4lessIjESaIS3_EE8_S_rightEPSt18_Rb_tree_node_base(%"struct.std::_Rb_tree_node_base"* %108), !dbg !1528
  %110 = icmp eq %"struct.std::_Rb_tree_node"* %109, null, !dbg !1528
  br i1 %110, label %111, label %114, !dbg !1528

; <label>:111                                     ; preds = %106
  store %"struct.std::_Rb_tree_node_base"* null, %"struct.std::_Rb_tree_node_base"** %6, !dbg !1531
  %112 = getelementptr inbounds %"struct.std::_Rb_tree_iterator"* %__pos, i32 0, i32 0, !dbg !1531
  %113 = call %"struct.std::pair.1"* @_ZNSt4pairIPSt18_Rb_tree_node_baseS1_EC2ERKS1_S4_(%"struct.std::pair.1"* %agg.result, %"struct.std::_Rb_tree_node_base"** dereferenceable(4) %6, %"struct.std::_Rb_tree_node_base"** dereferenceable(4) %112), !dbg !1531
  br label %123, !dbg !1531

; <label>:114                                     ; preds = %106
  %115 = getelementptr inbounds %"struct.std::_Rb_tree_iterator"* %__after, i32 0, i32 0, !dbg !1532
  %116 = getelementptr inbounds %"struct.std::_Rb_tree_iterator"* %__after, i32 0, i32 0, !dbg !1532
  %117 = call %"struct.std::pair.1"* @_ZNSt4pairIPSt18_Rb_tree_node_baseS1_EC2ERKS1_S4_(%"struct.std::pair.1"* %agg.result, %"struct.std::_Rb_tree_node_base"** dereferenceable(4) %115, %"struct.std::_Rb_tree_node_base"** dereferenceable(4) %116), !dbg !1532
  br label %123, !dbg !1532

; <label>:118                                     ; preds = %97
  %119 = load i32** %2, align 4, !dbg !1533
  call void @_ZNSt8_Rb_treeIjSt4pairIKjS0_IjjEESt10_Select1stIS3_ESt4lessIjESaIS3_EE24_M_get_insert_unique_posERS1_(%"struct.std::pair.1"* sret %agg.result, %"class.std::_Rb_tree"* %10, i32* dereferenceable(4) %119), !dbg !1533
  br label %123, !dbg !1533

; <label>:120                                     ; preds = %78
  %121 = getelementptr inbounds %"struct.std::_Rb_tree_iterator"* %__pos, i32 0, i32 0, !dbg !1534
  store %"struct.std::_Rb_tree_node_base"* null, %"struct.std::_Rb_tree_node_base"** %7, !dbg !1534
  %122 = call %"struct.std::pair.1"* @_ZNSt4pairIPSt18_Rb_tree_node_baseS1_EC2ERKS1_S4_(%"struct.std::pair.1"* %agg.result, %"struct.std::_Rb_tree_node_base"** dereferenceable(4) %121, %"struct.std::_Rb_tree_node_base"** dereferenceable(4) %7), !dbg !1534
  br label %123, !dbg !1534

; <label>:123                                     ; preds = %120, %118, %114, %111, %94, %76, %72, %69, %51, %33, %30
  ret void, !dbg !1535
}

define linkonce_odr i32 @_ZNSt8_Rb_treeIjSt4pairIKjS0_IjjEESt10_Select1stIS3_ESt4lessIjESaIS3_EE10_M_insert_EPSt18_Rb_tree_node_baseSB_RKS3_(%"class.std::_Rb_tree"* %this, %"struct.std::_Rb_tree_node_base"* %__x, %"struct.std::_Rb_tree_node_base"* %__p, %"struct.std::pair.0"* dereferenceable(12) %__v) #0 align 2 {
  %1 = alloca %"struct.std::_Rb_tree_iterator", align 4
  %2 = alloca %"class.std::_Rb_tree"*, align 4
  %3 = alloca %"struct.std::_Rb_tree_node_base"*, align 4
  %4 = alloca %"struct.std::_Rb_tree_node_base"*, align 4
  %5 = alloca %"struct.std::pair.0"*, align 4
  %__insert_left = alloca i8, align 1
  %6 = alloca %"struct.std::_Select1st", align 1
  %__z = alloca %"struct.std::_Rb_tree_node"*, align 4
  store %"class.std::_Rb_tree"* %this, %"class.std::_Rb_tree"** %2, align 4
  call void @llvm.dbg.declare(metadata !{%"class.std::_Rb_tree"** %2}, metadata !1536), !dbg !1537
  store %"struct.std::_Rb_tree_node_base"* %__x, %"struct.std::_Rb_tree_node_base"** %3, align 4
  call void @llvm.dbg.declare(metadata !{%"struct.std::_Rb_tree_node_base"** %3}, metadata !1538), !dbg !1539
  store %"struct.std::_Rb_tree_node_base"* %__p, %"struct.std::_Rb_tree_node_base"** %4, align 4
  call void @llvm.dbg.declare(metadata !{%"struct.std::_Rb_tree_node_base"** %4}, metadata !1540), !dbg !1541
  store %"struct.std::pair.0"* %__v, %"struct.std::pair.0"** %5, align 4
  call void @llvm.dbg.declare(metadata !{%"struct.std::pair.0"** %5}, metadata !1542), !dbg !1543
  %7 = load %"class.std::_Rb_tree"** %2
  call void @llvm.dbg.declare(metadata !{i8* %__insert_left}, metadata !1544), !dbg !1545
  %8 = load %"struct.std::_Rb_tree_node_base"** %3, align 4, !dbg !1546
  %9 = icmp ne %"struct.std::_Rb_tree_node_base"* %8, null, !dbg !1546
  br i1 %9, label %23, label %10, !dbg !1546

; <label>:10                                      ; preds = %0
  %11 = load %"struct.std::_Rb_tree_node_base"** %4, align 4, !dbg !1547
  %12 = call %"struct.std::_Rb_tree_node"* @_ZNSt8_Rb_treeIjSt4pairIKjS0_IjjEESt10_Select1stIS3_ESt4lessIjESaIS3_EE6_M_endEv(%"class.std::_Rb_tree"* %7), !dbg !1549
  %13 = bitcast %"struct.std::_Rb_tree_node"* %12 to %"struct.std::_Rb_tree_node_base"*, !dbg !1549
  %14 = icmp eq %"struct.std::_Rb_tree_node_base"* %11, %13, !dbg !1549
  br i1 %14, label %23, label %15, !dbg !1549

; <label>:15                                      ; preds = %10
  %16 = getelementptr inbounds %"class.std::_Rb_tree"* %7, i32 0, i32 0, !dbg !1550
  %17 = getelementptr inbounds %"struct.std::_Rb_tree<unsigned int, std::pair<const unsigned int, std::pair<unsigned int, unsigned int> >, std::_Select1st<std::pair<const unsigned int, std::pair<unsigned int, unsigned int> > >, std::less<unsigned int>, std::allocator<std::pair<const unsigned int, std::pair<unsigned int, unsigned int> > > >::_Rb_tree_impl"* %16, i32 0, i32 0, !dbg !1550
  %18 = load %"struct.std::pair.0"** %5, align 4, !dbg !1551
  %19 = call dereferenceable(4) i32* @_ZNKSt10_Select1stISt4pairIKjS0_IjjEEEclERKS3_(%"struct.std::_Select1st"* %6, %"struct.std::pair.0"* dereferenceable(12) %18), !dbg !1551
  %20 = load %"struct.std::_Rb_tree_node_base"** %4, align 4, !dbg !1552
  %21 = call dereferenceable(4) i32* @_ZNSt8_Rb_treeIjSt4pairIKjS0_IjjEESt10_Select1stIS3_ESt4lessIjESaIS3_EE6_S_keyEPKSt18_Rb_tree_node_base(%"struct.std::_Rb_tree_node_base"* %20), !dbg !1552
  %22 = call zeroext i1 @_ZNKSt4lessIjEclERKjS2_(%"struct.std::less"* %17, i32* dereferenceable(4) %19, i32* dereferenceable(4) %21), !dbg !1550
  br label %23, !dbg !1550

; <label>:23                                      ; preds = %15, %10, %0
  %24 = phi i1 [ true, %10 ], [ true, %0 ], [ %22, %15 ]
  %25 = zext i1 %24 to i8, !dbg !1553
  store i8 %25, i8* %__insert_left, align 1, !dbg !1553
  call void @llvm.dbg.declare(metadata !{%"struct.std::_Rb_tree_node"** %__z}, metadata !1555), !dbg !1556
  %26 = load %"struct.std::pair.0"** %5, align 4, !dbg !1557
  %27 = call %"struct.std::_Rb_tree_node"* @_ZNSt8_Rb_treeIjSt4pairIKjS0_IjjEESt10_Select1stIS3_ESt4lessIjESaIS3_EE14_M_create_nodeERKS3_(%"class.std::_Rb_tree"* %7, %"struct.std::pair.0"* dereferenceable(12) %26), !dbg !1557
  store %"struct.std::_Rb_tree_node"* %27, %"struct.std::_Rb_tree_node"** %__z, align 4, !dbg !1557
  %28 = load i8* %__insert_left, align 1, !dbg !1558
  %29 = trunc i8 %28 to i1, !dbg !1558
  %30 = load %"struct.std::_Rb_tree_node"** %__z, align 4, !dbg !1558
  %31 = bitcast %"struct.std::_Rb_tree_node"* %30 to %"struct.std::_Rb_tree_node_base"*, !dbg !1558
  %32 = load %"struct.std::_Rb_tree_node_base"** %4, align 4, !dbg !1558
  %33 = getelementptr inbounds %"class.std::_Rb_tree"* %7, i32 0, i32 0, !dbg !1558
  %34 = getelementptr inbounds %"struct.std::_Rb_tree<unsigned int, std::pair<const unsigned int, std::pair<unsigned int, unsigned int> >, std::_Select1st<std::pair<const unsigned int, std::pair<unsigned int, unsigned int> > >, std::less<unsigned int>, std::allocator<std::pair<const unsigned int, std::pair<unsigned int, unsigned int> > > >::_Rb_tree_impl"* %33, i32 0, i32 1, !dbg !1558
  call void @_ZSt29_Rb_tree_insert_and_rebalancebPSt18_Rb_tree_node_baseS0_RS_(i1 zeroext %29, %"struct.std::_Rb_tree_node_base"* %31, %"struct.std::_Rb_tree_node_base"* %32, %"struct.std::_Rb_tree_node_base"* dereferenceable(16) %34) #2, !dbg !1558
  %35 = getelementptr inbounds %"class.std::_Rb_tree"* %7, i32 0, i32 0, !dbg !1559
  %36 = getelementptr inbounds %"struct.std::_Rb_tree<unsigned int, std::pair<const unsigned int, std::pair<unsigned int, unsigned int> >, std::_Select1st<std::pair<const unsigned int, std::pair<unsigned int, unsigned int> > >, std::less<unsigned int>, std::allocator<std::pair<const unsigned int, std::pair<unsigned int, unsigned int> > > >::_Rb_tree_impl"* %35, i32 0, i32 2, !dbg !1559
  %37 = load i32* %36, align 4, !dbg !1559
  %38 = add i32 %37, 1, !dbg !1559
  store i32 %38, i32* %36, align 4, !dbg !1559
  %39 = load %"struct.std::_Rb_tree_node"** %__z, align 4, !dbg !1560
  %40 = call %"struct.std::_Rb_tree_iterator"* @_ZNSt17_Rb_tree_iteratorISt4pairIKjS0_IjjEEEC2EPSt13_Rb_tree_nodeIS3_E(%"struct.std::_Rb_tree_iterator"* %1, %"struct.std::_Rb_tree_node"* %39), !dbg !1560
  %41 = getelementptr %"struct.std::_Rb_tree_iterator"* %1, i32 0, i32 0, !dbg !1560
  %42 = load %"struct.std::_Rb_tree_node_base"** %41, !dbg !1560
  %43 = ptrtoint %"struct.std::_Rb_tree_node_base"* %42 to i32, !dbg !1560
  ret i32 %43, !dbg !1560
}

define linkonce_odr %"struct.std::_Rb_tree_node"* @_ZNSt8_Rb_treeIjSt4pairIKjS0_IjjEESt10_Select1stIS3_ESt4lessIjESaIS3_EE14_M_create_nodeERKS3_(%"class.std::_Rb_tree"* %this, %"struct.std::pair.0"* dereferenceable(12) %__x) #0 align 2 {
  %1 = alloca %"class.std::_Rb_tree"*, align 4
  %2 = alloca %"struct.std::pair.0"*, align 4
  %__tmp = alloca %"struct.std::_Rb_tree_node"*, align 4
  %3 = alloca %"class.std::allocator.2", align 1
  %4 = alloca i8*
  %5 = alloca i32
  store %"class.std::_Rb_tree"* %this, %"class.std::_Rb_tree"** %1, align 4
  call void @llvm.dbg.declare(metadata !{%"class.std::_Rb_tree"** %1}, metadata !1561), !dbg !1562
  store %"struct.std::pair.0"* %__x, %"struct.std::pair.0"** %2, align 4
  call void @llvm.dbg.declare(metadata !{%"struct.std::pair.0"** %2}, metadata !1563), !dbg !1564
  %6 = load %"class.std::_Rb_tree"** %1
  call void @llvm.dbg.declare(metadata !{%"struct.std::_Rb_tree_node"** %__tmp}, metadata !1565), !dbg !1566
  %7 = call %"struct.std::_Rb_tree_node"* @_ZNSt8_Rb_treeIjSt4pairIKjS0_IjjEESt10_Select1stIS3_ESt4lessIjESaIS3_EE11_M_get_nodeEv(%"class.std::_Rb_tree"* %6), !dbg !1567
  store %"struct.std::_Rb_tree_node"* %7, %"struct.std::_Rb_tree_node"** %__tmp, align 4, !dbg !1567
  invoke void @_ZNKSt8_Rb_treeIjSt4pairIKjS0_IjjEESt10_Select1stIS3_ESt4lessIjESaIS3_EE13get_allocatorEv(%"class.std::allocator.2"* sret %3, %"class.std::_Rb_tree"* %6)
          to label %8 unwind label %16, !dbg !1568

; <label>:8                                       ; preds = %0
  %9 = bitcast %"class.std::allocator.2"* %3 to %"class.__gnu_cxx::new_allocator.3"*, !dbg !1570
  %10 = load %"struct.std::_Rb_tree_node"** %__tmp, align 4, !dbg !1572
  %11 = invoke %"struct.std::pair.0"* @_ZNSt13_Rb_tree_nodeISt4pairIKjS0_IjjEEE9_M_valptrEv(%"struct.std::_Rb_tree_node"* %10)
          to label %12 unwind label %20, !dbg !1572

; <label>:12                                      ; preds = %8
  %13 = load %"struct.std::pair.0"** %2, align 4, !dbg !1573
  invoke void @_ZN9__gnu_cxx13new_allocatorISt4pairIKjS1_IjjEEE9constructEPS4_RKS4_(%"class.__gnu_cxx::new_allocator.3"* %9, %"struct.std::pair.0"* %11, %"struct.std::pair.0"* dereferenceable(12) %13)
          to label %14 unwind label %20, !dbg !1573

; <label>:14                                      ; preds = %12
  %15 = call %"class.std::allocator.2"* @_ZNSaISt4pairIKjS_IjjEEED2Ev(%"class.std::allocator.2"* %3) #2, !dbg !1575
  br label %35, !dbg !1577

; <label>:16                                      ; preds = %0
  %17 = landingpad { i8*, i32 } personality i8* bitcast (i32 (...)* @__gxx_personality_v0 to i8*)
          catch i8* null, !dbg !1578
  %18 = extractvalue { i8*, i32 } %17, 0, !dbg !1578
  store i8* %18, i8** %4, !dbg !1578
  %19 = extractvalue { i8*, i32 } %17, 1, !dbg !1578
  store i32 %19, i32* %5, !dbg !1578
  br label %25, !dbg !1578

; <label>:20                                      ; preds = %12, %8
  %21 = landingpad { i8*, i32 } personality i8* bitcast (i32 (...)* @__gxx_personality_v0 to i8*)
          catch i8* null, !dbg !1578
  %22 = extractvalue { i8*, i32 } %21, 0, !dbg !1578
  store i8* %22, i8** %4, !dbg !1578
  %23 = extractvalue { i8*, i32 } %21, 1, !dbg !1578
  store i32 %23, i32* %5, !dbg !1578
  %24 = call %"class.std::allocator.2"* @_ZNSaISt4pairIKjS_IjjEEED2Ev(%"class.std::allocator.2"* %3) #2, !dbg !1578
  br label %25, !dbg !1578

; <label>:25                                      ; preds = %20, %16
  %26 = load i8** %4, !dbg !1577
  %27 = call i8* @__cxa_begin_catch(i8* %26) #2, !dbg !1577
  %28 = load %"struct.std::_Rb_tree_node"** %__tmp, align 4, !dbg !1579
  invoke void @_ZNSt8_Rb_treeIjSt4pairIKjS0_IjjEESt10_Select1stIS3_ESt4lessIjESaIS3_EE11_M_put_nodeEPSt13_Rb_tree_nodeIS3_E(%"class.std::_Rb_tree"* %6, %"struct.std::_Rb_tree_node"* %28)
          to label %29 unwind label %30, !dbg !1579

; <label>:29                                      ; preds = %25
  invoke void @__cxa_rethrow() #13
          to label %45 unwind label %30, !dbg !1581

; <label>:30                                      ; preds = %29, %25
  %31 = landingpad { i8*, i32 } personality i8* bitcast (i32 (...)* @__gxx_personality_v0 to i8*)
          cleanup, !dbg !1582
  %32 = extractvalue { i8*, i32 } %31, 0, !dbg !1582
  store i8* %32, i8** %4, !dbg !1582
  %33 = extractvalue { i8*, i32 } %31, 1, !dbg !1582
  store i32 %33, i32* %5, !dbg !1582
  invoke void @__cxa_end_catch()
          to label %34 unwind label %42, !dbg !1583

; <label>:34                                      ; preds = %30
  br label %37, !dbg !1584

; <label>:35                                      ; preds = %14
  %36 = load %"struct.std::_Rb_tree_node"** %__tmp, align 4, !dbg !1586
  ret %"struct.std::_Rb_tree_node"* %36, !dbg !1586

; <label>:37                                      ; preds = %34
  %38 = load i8** %4, !dbg !1587
  %39 = load i32* %5, !dbg !1587
  %40 = insertvalue { i8*, i32 } undef, i8* %38, 0, !dbg !1587
  %41 = insertvalue { i8*, i32 } %40, i32 %39, 1, !dbg !1587
  resume { i8*, i32 } %41, !dbg !1587

; <label>:42                                      ; preds = %30
  %43 = landingpad { i8*, i32 } personality i8* bitcast (i32 (...)* @__gxx_personality_v0 to i8*)
          catch i8* null, !dbg !1589
  %44 = extractvalue { i8*, i32 } %43, 0, !dbg !1589
  call void @__clang_call_terminate(i8* %44) #14, !dbg !1589
  unreachable, !dbg !1589

; <label>:45                                      ; preds = %29
  unreachable
}

; Function Attrs: nounwind
declare void @_ZSt29_Rb_tree_insert_and_rebalancebPSt18_Rb_tree_node_baseS0_RS_(i1 zeroext, %"struct.std::_Rb_tree_node_base"*, %"struct.std::_Rb_tree_node_base"*, %"struct.std::_Rb_tree_node_base"* dereferenceable(16)) #3

define linkonce_odr %"struct.std::_Rb_tree_node"* @_ZNSt8_Rb_treeIjSt4pairIKjS0_IjjEESt10_Select1stIS3_ESt4lessIjESaIS3_EE11_M_get_nodeEv(%"class.std::_Rb_tree"* %this) #0 align 2 {
  %1 = alloca %"class.std::_Rb_tree"*, align 4
  store %"class.std::_Rb_tree"* %this, %"class.std::_Rb_tree"** %1, align 4
  call void @llvm.dbg.declare(metadata !{%"class.std::_Rb_tree"** %1}, metadata !1591), !dbg !1592
  %2 = load %"class.std::_Rb_tree"** %1
  %3 = call dereferenceable(1) %"class.std::allocator"* @_ZNSt8_Rb_treeIjSt4pairIKjS0_IjjEESt10_Select1stIS3_ESt4lessIjESaIS3_EE21_M_get_Node_allocatorEv(%"class.std::_Rb_tree"* %2), !dbg !1593
  %4 = call %"struct.std::_Rb_tree_node"* @_ZN9__gnu_cxx14__alloc_traitsISaISt13_Rb_tree_nodeISt4pairIKjS2_IjjEEEEE8allocateERS7_j(%"class.std::allocator"* dereferenceable(1) %3, i32 1), !dbg !1594
  ret %"struct.std::_Rb_tree_node"* %4, !dbg !1594
}

define linkonce_odr void @_ZNKSt8_Rb_treeIjSt4pairIKjS0_IjjEESt10_Select1stIS3_ESt4lessIjESaIS3_EE13get_allocatorEv(%"class.std::allocator.2"* noalias sret %agg.result, %"class.std::_Rb_tree"* %this) #0 align 2 {
  %1 = alloca %"class.std::_Rb_tree"*, align 4
  store %"class.std::_Rb_tree"* %this, %"class.std::_Rb_tree"** %1, align 4
  call void @llvm.dbg.declare(metadata !{%"class.std::_Rb_tree"** %1}, metadata !1595), !dbg !1597
  %2 = load %"class.std::_Rb_tree"** %1
  %3 = call dereferenceable(1) %"class.std::allocator"* @_ZNKSt8_Rb_treeIjSt4pairIKjS0_IjjEESt10_Select1stIS3_ESt4lessIjESaIS3_EE21_M_get_Node_allocatorEv(%"class.std::_Rb_tree"* %2), !dbg !1598
  %4 = call %"class.std::allocator.2"* @_ZNSaISt4pairIKjS_IjjEEEC2ISt13_Rb_tree_nodeIS2_EEERKSaIT_E(%"class.std::allocator.2"* %agg.result, %"class.std::allocator"* dereferenceable(1) %3) #2, !dbg !1599
  ret void, !dbg !1599
}

; Function Attrs: nounwind
define linkonce_odr void @_ZN9__gnu_cxx13new_allocatorISt4pairIKjS1_IjjEEE9constructEPS4_RKS4_(%"class.__gnu_cxx::new_allocator.3"* %this, %"struct.std::pair.0"* %__p, %"struct.std::pair.0"* dereferenceable(12) %__val) #3 align 2 {
  %1 = alloca %"class.__gnu_cxx::new_allocator.3"*, align 4
  %2 = alloca %"struct.std::pair.0"*, align 4
  %3 = alloca %"struct.std::pair.0"*, align 4
  store %"class.__gnu_cxx::new_allocator.3"* %this, %"class.__gnu_cxx::new_allocator.3"** %1, align 4
  call void @llvm.dbg.declare(metadata !{%"class.__gnu_cxx::new_allocator.3"** %1}, metadata !1600), !dbg !1602
  store %"struct.std::pair.0"* %__p, %"struct.std::pair.0"** %2, align 4
  call void @llvm.dbg.declare(metadata !{%"struct.std::pair.0"** %2}, metadata !1603), !dbg !1605
  store %"struct.std::pair.0"* %__val, %"struct.std::pair.0"** %3, align 4
  call void @llvm.dbg.declare(metadata !{%"struct.std::pair.0"** %3}, metadata !1606), !dbg !1607
  %4 = load %"class.__gnu_cxx::new_allocator.3"** %1
  %5 = load %"struct.std::pair.0"** %2, align 4, !dbg !1608
  %6 = bitcast %"struct.std::pair.0"* %5 to i8*, !dbg !1608
  %7 = icmp eq i8* %6, null, !dbg !1608
  br i1 %7, label %13, label %8, !dbg !1608

; <label>:8                                       ; preds = %0
  %9 = bitcast i8* %6 to %"struct.std::pair.0"*, !dbg !1609
  %10 = load %"struct.std::pair.0"** %3, align 4, !dbg !1609
  %11 = bitcast %"struct.std::pair.0"* %9 to i8*, !dbg !1609
  %12 = bitcast %"struct.std::pair.0"* %10 to i8*, !dbg !1609
  call void @llvm.memcpy.p0i8.p0i8.i32(i8* %11, i8* %12, i32 12, i32 4, i1 false), !dbg !1609
  br label %13, !dbg !1609

; <label>:13                                      ; preds = %8, %0
  %14 = phi %"struct.std::pair.0"* [ %9, %8 ], [ null, %0 ], !dbg !1608
  ret void, !dbg !1611
}

; Function Attrs: nounwind
define linkonce_odr %"class.std::allocator.2"* @_ZNSaISt4pairIKjS_IjjEEED2Ev(%"class.std::allocator.2"* returned %this) unnamed_addr #3 align 2 {
  %1 = alloca %"class.std::allocator.2"*, align 4
  store %"class.std::allocator.2"* %this, %"class.std::allocator.2"** %1, align 4
  call void @llvm.dbg.declare(metadata !{%"class.std::allocator.2"** %1}, metadata !1614), !dbg !1616
  %2 = load %"class.std::allocator.2"** %1
  %3 = bitcast %"class.std::allocator.2"* %2 to %"class.__gnu_cxx::new_allocator.3"*, !dbg !1617
  %4 = call %"class.__gnu_cxx::new_allocator.3"* @_ZN9__gnu_cxx13new_allocatorISt4pairIKjS1_IjjEEED2Ev(%"class.__gnu_cxx::new_allocator.3"* %3) #2, !dbg !1617
  ret %"class.std::allocator.2"* %2, !dbg !1619
}

declare i8* @__cxa_begin_catch(i8*)

define linkonce_odr void @_ZNSt8_Rb_treeIjSt4pairIKjS0_IjjEESt10_Select1stIS3_ESt4lessIjESaIS3_EE11_M_put_nodeEPSt13_Rb_tree_nodeIS3_E(%"class.std::_Rb_tree"* %this, %"struct.std::_Rb_tree_node"* %__p) #0 align 2 {
  %1 = alloca %"class.std::_Rb_tree"*, align 4
  %2 = alloca %"struct.std::_Rb_tree_node"*, align 4
  store %"class.std::_Rb_tree"* %this, %"class.std::_Rb_tree"** %1, align 4
  call void @llvm.dbg.declare(metadata !{%"class.std::_Rb_tree"** %1}, metadata !1620), !dbg !1621
  store %"struct.std::_Rb_tree_node"* %__p, %"struct.std::_Rb_tree_node"** %2, align 4
  call void @llvm.dbg.declare(metadata !{%"struct.std::_Rb_tree_node"** %2}, metadata !1622), !dbg !1623
  %3 = load %"class.std::_Rb_tree"** %1
  %4 = call dereferenceable(1) %"class.std::allocator"* @_ZNSt8_Rb_treeIjSt4pairIKjS0_IjjEESt10_Select1stIS3_ESt4lessIjESaIS3_EE21_M_get_Node_allocatorEv(%"class.std::_Rb_tree"* %3), !dbg !1624
  %5 = load %"struct.std::_Rb_tree_node"** %2, align 4, !dbg !1625
  call void @_ZN9__gnu_cxx14__alloc_traitsISaISt13_Rb_tree_nodeISt4pairIKjS2_IjjEEEEE10deallocateERS7_PS6_j(%"class.std::allocator"* dereferenceable(1) %4, %"struct.std::_Rb_tree_node"* %5, i32 1), !dbg !1625
  ret void, !dbg !1626
}

declare void @__cxa_rethrow()

declare void @__cxa_end_catch()

; Function Attrs: noinline noreturn nounwind
define linkonce_odr hidden void @__clang_call_terminate(i8*) #8 {
  %2 = call i8* @__cxa_begin_catch(i8* %0) #2
  call void @_ZSt9terminatev() #14
  unreachable
}

declare void @_ZSt9terminatev()

define linkonce_odr void @_ZN9__gnu_cxx14__alloc_traitsISaISt13_Rb_tree_nodeISt4pairIKjS2_IjjEEEEE10deallocateERS7_PS6_j(%"class.std::allocator"* dereferenceable(1) %__a, %"struct.std::_Rb_tree_node"* %__p, i32 %__n) #0 align 2 {
  %1 = alloca %"class.std::allocator"*, align 4
  %2 = alloca %"struct.std::_Rb_tree_node"*, align 4
  %3 = alloca i32, align 4
  store %"class.std::allocator"* %__a, %"class.std::allocator"** %1, align 4
  call void @llvm.dbg.declare(metadata !{%"class.std::allocator"** %1}, metadata !1627), !dbg !1629
  store %"struct.std::_Rb_tree_node"* %__p, %"struct.std::_Rb_tree_node"** %2, align 4
  call void @llvm.dbg.declare(metadata !{%"struct.std::_Rb_tree_node"** %2}, metadata !1630), !dbg !1631
  store i32 %__n, i32* %3, align 4
  call void @llvm.dbg.declare(metadata !{i32* %3}, metadata !1632), !dbg !1633
  %4 = load %"class.std::allocator"** %1, align 4, !dbg !1634
  %5 = bitcast %"class.std::allocator"* %4 to %"class.__gnu_cxx::new_allocator"*, !dbg !1634
  %6 = load %"struct.std::_Rb_tree_node"** %2, align 4, !dbg !1634
  %7 = load i32* %3, align 4, !dbg !1634
  call void @_ZN9__gnu_cxx13new_allocatorISt13_Rb_tree_nodeISt4pairIKjS2_IjjEEEE10deallocateEPS6_j(%"class.__gnu_cxx::new_allocator"* %5, %"struct.std::_Rb_tree_node"* %6, i32 %7), !dbg !1634
  ret void, !dbg !1635
}

; Function Attrs: nounwind
define linkonce_odr dereferenceable(1) %"class.std::allocator"* @_ZNSt8_Rb_treeIjSt4pairIKjS0_IjjEESt10_Select1stIS3_ESt4lessIjESaIS3_EE21_M_get_Node_allocatorEv(%"class.std::_Rb_tree"* %this) #3 align 2 {
  %1 = alloca %"class.std::_Rb_tree"*, align 4
  store %"class.std::_Rb_tree"* %this, %"class.std::_Rb_tree"** %1, align 4
  call void @llvm.dbg.declare(metadata !{%"class.std::_Rb_tree"** %1}, metadata !1636), !dbg !1637
  %2 = load %"class.std::_Rb_tree"** %1
  %3 = getelementptr inbounds %"class.std::_Rb_tree"* %2, i32 0, i32 0, !dbg !1638
  %4 = bitcast %"struct.std::_Rb_tree<unsigned int, std::pair<const unsigned int, std::pair<unsigned int, unsigned int> >, std::_Select1st<std::pair<const unsigned int, std::pair<unsigned int, unsigned int> > >, std::less<unsigned int>, std::allocator<std::pair<const unsigned int, std::pair<unsigned int, unsigned int> > > >::_Rb_tree_impl"* %3 to %"class.std::allocator"*, !dbg !1638
  ret %"class.std::allocator"* %4, !dbg !1638
}

; Function Attrs: nounwind
define linkonce_odr void @_ZN9__gnu_cxx13new_allocatorISt13_Rb_tree_nodeISt4pairIKjS2_IjjEEEE10deallocateEPS6_j(%"class.__gnu_cxx::new_allocator"* %this, %"struct.std::_Rb_tree_node"* %__p, i32) #3 align 2 {
  %2 = alloca %"class.__gnu_cxx::new_allocator"*, align 4
  %3 = alloca %"struct.std::_Rb_tree_node"*, align 4
  %4 = alloca i32, align 4
  store %"class.__gnu_cxx::new_allocator"* %this, %"class.__gnu_cxx::new_allocator"** %2, align 4
  call void @llvm.dbg.declare(metadata !{%"class.__gnu_cxx::new_allocator"** %2}, metadata !1639), !dbg !1641
  store %"struct.std::_Rb_tree_node"* %__p, %"struct.std::_Rb_tree_node"** %3, align 4
  call void @llvm.dbg.declare(metadata !{%"struct.std::_Rb_tree_node"** %3}, metadata !1642), !dbg !1643
  store i32 %0, i32* %4, align 4
  call void @llvm.dbg.declare(metadata !{i32* %4}, metadata !1644), !dbg !1645
  %5 = load %"class.__gnu_cxx::new_allocator"** %2
  %6 = load %"struct.std::_Rb_tree_node"** %3, align 4, !dbg !1646
  %7 = bitcast %"struct.std::_Rb_tree_node"* %6 to i8*, !dbg !1646
  call void @_ZdlPv(i8* %7) #2, !dbg !1646
  ret void, !dbg !1647
}

; Function Attrs: nounwind
define linkonce_odr %"class.__gnu_cxx::new_allocator.3"* @_ZN9__gnu_cxx13new_allocatorISt4pairIKjS1_IjjEEED2Ev(%"class.__gnu_cxx::new_allocator.3"* returned %this) unnamed_addr #3 align 2 {
  %1 = alloca %"class.__gnu_cxx::new_allocator.3"*, align 4
  store %"class.__gnu_cxx::new_allocator.3"* %this, %"class.__gnu_cxx::new_allocator.3"** %1, align 4
  call void @llvm.dbg.declare(metadata !{%"class.__gnu_cxx::new_allocator.3"** %1}, metadata !1648), !dbg !1649
  %2 = load %"class.__gnu_cxx::new_allocator.3"** %1
  ret %"class.__gnu_cxx::new_allocator.3"* %2, !dbg !1650
}

; Function Attrs: nounwind
define linkonce_odr dereferenceable(1) %"class.std::allocator"* @_ZNKSt8_Rb_treeIjSt4pairIKjS0_IjjEESt10_Select1stIS3_ESt4lessIjESaIS3_EE21_M_get_Node_allocatorEv(%"class.std::_Rb_tree"* %this) #3 align 2 {
  %1 = alloca %"class.std::_Rb_tree"*, align 4
  store %"class.std::_Rb_tree"* %this, %"class.std::_Rb_tree"** %1, align 4
  call void @llvm.dbg.declare(metadata !{%"class.std::_Rb_tree"** %1}, metadata !1651), !dbg !1652
  %2 = load %"class.std::_Rb_tree"** %1
  %3 = getelementptr inbounds %"class.std::_Rb_tree"* %2, i32 0, i32 0, !dbg !1653
  %4 = bitcast %"struct.std::_Rb_tree<unsigned int, std::pair<const unsigned int, std::pair<unsigned int, unsigned int> >, std::_Select1st<std::pair<const unsigned int, std::pair<unsigned int, unsigned int> > >, std::less<unsigned int>, std::allocator<std::pair<const unsigned int, std::pair<unsigned int, unsigned int> > > >::_Rb_tree_impl"* %3 to %"class.std::allocator"*, !dbg !1653
  ret %"class.std::allocator"* %4, !dbg !1653
}

; Function Attrs: nounwind
define linkonce_odr %"class.std::allocator.2"* @_ZNSaISt4pairIKjS_IjjEEEC2ISt13_Rb_tree_nodeIS2_EEERKSaIT_E(%"class.std::allocator.2"* returned %this, %"class.std::allocator"* dereferenceable(1)) unnamed_addr #3 align 2 {
  %2 = alloca %"class.std::allocator.2"*, align 4
  %3 = alloca %"class.std::allocator"*, align 4
  store %"class.std::allocator.2"* %this, %"class.std::allocator.2"** %2, align 4
  call void @llvm.dbg.declare(metadata !{%"class.std::allocator.2"** %2}, metadata !1654), !dbg !1655
  store %"class.std::allocator"* %0, %"class.std::allocator"** %3, align 4
  call void @llvm.dbg.declare(metadata !{%"class.std::allocator"** %3}, metadata !1656), !dbg !1658
  %4 = load %"class.std::allocator.2"** %2
  %5 = bitcast %"class.std::allocator.2"* %4 to %"class.__gnu_cxx::new_allocator.3"*, !dbg !1659
  %6 = call %"class.__gnu_cxx::new_allocator.3"* @_ZN9__gnu_cxx13new_allocatorISt4pairIKjS1_IjjEEEC2Ev(%"class.__gnu_cxx::new_allocator.3"* %5) #2, !dbg !1659
  ret %"class.std::allocator.2"* %4, !dbg !1660
}

; Function Attrs: nounwind
define linkonce_odr %"class.__gnu_cxx::new_allocator.3"* @_ZN9__gnu_cxx13new_allocatorISt4pairIKjS1_IjjEEEC2Ev(%"class.__gnu_cxx::new_allocator.3"* returned %this) unnamed_addr #3 align 2 {
  %1 = alloca %"class.__gnu_cxx::new_allocator.3"*, align 4
  store %"class.__gnu_cxx::new_allocator.3"* %this, %"class.__gnu_cxx::new_allocator.3"** %1, align 4
  call void @llvm.dbg.declare(metadata !{%"class.__gnu_cxx::new_allocator.3"** %1}, metadata !1661), !dbg !1662
  %2 = load %"class.__gnu_cxx::new_allocator.3"** %1
  ret %"class.__gnu_cxx::new_allocator.3"* %2, !dbg !1663
}

define linkonce_odr %"struct.std::_Rb_tree_node"* @_ZN9__gnu_cxx14__alloc_traitsISaISt13_Rb_tree_nodeISt4pairIKjS2_IjjEEEEE8allocateERS7_j(%"class.std::allocator"* dereferenceable(1) %__a, i32 %__n) #0 align 2 {
  %1 = alloca %"class.std::allocator"*, align 4
  %2 = alloca i32, align 4
  store %"class.std::allocator"* %__a, %"class.std::allocator"** %1, align 4
  call void @llvm.dbg.declare(metadata !{%"class.std::allocator"** %1}, metadata !1664), !dbg !1665
  store i32 %__n, i32* %2, align 4
  call void @llvm.dbg.declare(metadata !{i32* %2}, metadata !1666), !dbg !1667
  %3 = load %"class.std::allocator"** %1, align 4, !dbg !1668
  %4 = bitcast %"class.std::allocator"* %3 to %"class.__gnu_cxx::new_allocator"*, !dbg !1668
  %5 = load i32* %2, align 4, !dbg !1668
  %6 = call %"struct.std::_Rb_tree_node"* @_ZN9__gnu_cxx13new_allocatorISt13_Rb_tree_nodeISt4pairIKjS2_IjjEEEE8allocateEjPKv(%"class.__gnu_cxx::new_allocator"* %4, i32 %5, i8* null), !dbg !1668
  ret %"struct.std::_Rb_tree_node"* %6, !dbg !1668
}

define linkonce_odr %"struct.std::_Rb_tree_node"* @_ZN9__gnu_cxx13new_allocatorISt13_Rb_tree_nodeISt4pairIKjS2_IjjEEEE8allocateEjPKv(%"class.__gnu_cxx::new_allocator"* %this, i32 %__n, i8*) #0 align 2 {
  %2 = alloca %"class.__gnu_cxx::new_allocator"*, align 4
  %3 = alloca i32, align 4
  %4 = alloca i8*, align 4
  store %"class.__gnu_cxx::new_allocator"* %this, %"class.__gnu_cxx::new_allocator"** %2, align 4
  call void @llvm.dbg.declare(metadata !{%"class.__gnu_cxx::new_allocator"** %2}, metadata !1669), !dbg !1670
  store i32 %__n, i32* %3, align 4
  call void @llvm.dbg.declare(metadata !{i32* %3}, metadata !1671), !dbg !1672
  store i8* %0, i8** %4, align 4
  call void @llvm.dbg.declare(metadata !{i8** %4}, metadata !1673), !dbg !1674
  %5 = load %"class.__gnu_cxx::new_allocator"** %2
  %6 = load i32* %3, align 4, !dbg !1675
  %7 = call i32 @_ZNK9__gnu_cxx13new_allocatorISt13_Rb_tree_nodeISt4pairIKjS2_IjjEEEE8max_sizeEv(%"class.__gnu_cxx::new_allocator"* %5) #2, !dbg !1677
  %8 = icmp ugt i32 %6, %7, !dbg !1677
  br i1 %8, label %9, label %10, !dbg !1677

; <label>:9                                       ; preds = %1
  call void @_ZSt17__throw_bad_allocv() #13, !dbg !1678
  unreachable, !dbg !1678

; <label>:10                                      ; preds = %1
  %11 = load i32* %3, align 4, !dbg !1679
  %12 = mul i32 %11, 28, !dbg !1679
  %13 = call noalias i8* @_Znwj(i32 %12), !dbg !1679
  %14 = bitcast i8* %13 to %"struct.std::_Rb_tree_node"*, !dbg !1679
  ret %"struct.std::_Rb_tree_node"* %14, !dbg !1679
}

; Function Attrs: nounwind
define linkonce_odr i32 @_ZNK9__gnu_cxx13new_allocatorISt13_Rb_tree_nodeISt4pairIKjS2_IjjEEEE8max_sizeEv(%"class.__gnu_cxx::new_allocator"* %this) #3 align 2 {
  %1 = alloca %"class.__gnu_cxx::new_allocator"*, align 4
  store %"class.__gnu_cxx::new_allocator"* %this, %"class.__gnu_cxx::new_allocator"** %1, align 4
  call void @llvm.dbg.declare(metadata !{%"class.__gnu_cxx::new_allocator"** %1}, metadata !1680), !dbg !1682
  %2 = load %"class.__gnu_cxx::new_allocator"** %1
  ret i32 153391689, !dbg !1683
}

; Function Attrs: noreturn
declare void @_ZSt17__throw_bad_allocv() #9

; Function Attrs: nobuiltin
declare noalias i8* @_Znwj(i32) #10

define linkonce_odr i32 @_ZNKSt23_Rb_tree_const_iteratorISt4pairIKjS0_IjjEEE13_M_const_castEv(%"struct.std::_Rb_tree_const_iterator"* %this) #0 align 2 {
  %1 = alloca %"struct.std::_Rb_tree_iterator", align 4
  %2 = alloca %"struct.std::_Rb_tree_const_iterator"*, align 4
  store %"struct.std::_Rb_tree_const_iterator"* %this, %"struct.std::_Rb_tree_const_iterator"** %2, align 4
  call void @llvm.dbg.declare(metadata !{%"struct.std::_Rb_tree_const_iterator"** %2}, metadata !1684), !dbg !1686
  %3 = load %"struct.std::_Rb_tree_const_iterator"** %2
  %4 = getelementptr inbounds %"struct.std::_Rb_tree_const_iterator"* %3, i32 0, i32 0, !dbg !1687
  %5 = load %"struct.std::_Rb_tree_node_base"** %4, align 4, !dbg !1687
  %6 = bitcast %"struct.std::_Rb_tree_node_base"* %5 to %"struct.std::_Rb_tree_node"*, !dbg !1687
  %7 = call %"struct.std::_Rb_tree_iterator"* @_ZNSt17_Rb_tree_iteratorISt4pairIKjS0_IjjEEEC2EPSt13_Rb_tree_nodeIS3_E(%"struct.std::_Rb_tree_iterator"* %1, %"struct.std::_Rb_tree_node"* %6), !dbg !1687
  %8 = getelementptr %"struct.std::_Rb_tree_iterator"* %1, i32 0, i32 0, !dbg !1687
  %9 = load %"struct.std::_Rb_tree_node_base"** %8, !dbg !1687
  %10 = ptrtoint %"struct.std::_Rb_tree_node_base"* %9 to i32, !dbg !1687
  ret i32 %10, !dbg !1687
}

; Function Attrs: nounwind
define linkonce_odr i32 @_ZNKSt8_Rb_treeIjSt4pairIKjS0_IjjEESt10_Select1stIS3_ESt4lessIjESaIS3_EE4sizeEv(%"class.std::_Rb_tree"* %this) #3 align 2 {
  %1 = alloca %"class.std::_Rb_tree"*, align 4
  store %"class.std::_Rb_tree"* %this, %"class.std::_Rb_tree"** %1, align 4
  call void @llvm.dbg.declare(metadata !{%"class.std::_Rb_tree"** %1}, metadata !1688), !dbg !1689
  %2 = load %"class.std::_Rb_tree"** %1
  %3 = getelementptr inbounds %"class.std::_Rb_tree"* %2, i32 0, i32 0, !dbg !1690
  %4 = getelementptr inbounds %"struct.std::_Rb_tree<unsigned int, std::pair<const unsigned int, std::pair<unsigned int, unsigned int> >, std::_Select1st<std::pair<const unsigned int, std::pair<unsigned int, unsigned int> > >, std::less<unsigned int>, std::allocator<std::pair<const unsigned int, std::pair<unsigned int, unsigned int> > > >::_Rb_tree_impl"* %3, i32 0, i32 2, !dbg !1690
  %5 = load i32* %4, align 4, !dbg !1690
  ret i32 %5, !dbg !1690
}

; Function Attrs: nounwind
define linkonce_odr dereferenceable(4) %"struct.std::_Rb_tree_node_base"** @_ZNSt8_Rb_treeIjSt4pairIKjS0_IjjEESt10_Select1stIS3_ESt4lessIjESaIS3_EE12_M_rightmostEv(%"class.std::_Rb_tree"* %this) #3 align 2 {
  %1 = alloca %"class.std::_Rb_tree"*, align 4
  store %"class.std::_Rb_tree"* %this, %"class.std::_Rb_tree"** %1, align 4
  call void @llvm.dbg.declare(metadata !{%"class.std::_Rb_tree"** %1}, metadata !1691), !dbg !1692
  %2 = load %"class.std::_Rb_tree"** %1
  %3 = getelementptr inbounds %"class.std::_Rb_tree"* %2, i32 0, i32 0, !dbg !1693
  %4 = getelementptr inbounds %"struct.std::_Rb_tree<unsigned int, std::pair<const unsigned int, std::pair<unsigned int, unsigned int> >, std::_Select1st<std::pair<const unsigned int, std::pair<unsigned int, unsigned int> > >, std::less<unsigned int>, std::allocator<std::pair<const unsigned int, std::pair<unsigned int, unsigned int> > > >::_Rb_tree_impl"* %3, i32 0, i32 1, !dbg !1693
  %5 = getelementptr inbounds %"struct.std::_Rb_tree_node_base"* %4, i32 0, i32 3, !dbg !1693
  ret %"struct.std::_Rb_tree_node_base"** %5, !dbg !1693
}

; Function Attrs: nounwind
define linkonce_odr %"struct.std::pair.1"* @_ZNSt4pairIPSt18_Rb_tree_node_baseS1_EC2ERKS1_S4_(%"struct.std::pair.1"* returned %this, %"struct.std::_Rb_tree_node_base"** dereferenceable(4) %__a, %"struct.std::_Rb_tree_node_base"** dereferenceable(4) %__b) unnamed_addr #3 align 2 {
  %1 = alloca %"struct.std::pair.1"*, align 4
  %2 = alloca %"struct.std::_Rb_tree_node_base"**, align 4
  %3 = alloca %"struct.std::_Rb_tree_node_base"**, align 4
  store %"struct.std::pair.1"* %this, %"struct.std::pair.1"** %1, align 4
  call void @llvm.dbg.declare(metadata !{%"struct.std::pair.1"** %1}, metadata !1694), !dbg !1696
  store %"struct.std::_Rb_tree_node_base"** %__a, %"struct.std::_Rb_tree_node_base"*** %2, align 4
  call void @llvm.dbg.declare(metadata !{%"struct.std::_Rb_tree_node_base"*** %2}, metadata !1697), !dbg !1698
  store %"struct.std::_Rb_tree_node_base"** %__b, %"struct.std::_Rb_tree_node_base"*** %3, align 4
  call void @llvm.dbg.declare(metadata !{%"struct.std::_Rb_tree_node_base"*** %3}, metadata !1699), !dbg !1700
  %4 = load %"struct.std::pair.1"** %1
  %5 = getelementptr inbounds %"struct.std::pair.1"* %4, i32 0, i32 0, !dbg !1701
  %6 = load %"struct.std::_Rb_tree_node_base"*** %2, align 4, !dbg !1701
  %7 = load %"struct.std::_Rb_tree_node_base"** %6, align 4, !dbg !1701
  store %"struct.std::_Rb_tree_node_base"* %7, %"struct.std::_Rb_tree_node_base"** %5, align 4, !dbg !1701
  %8 = getelementptr inbounds %"struct.std::pair.1"* %4, i32 0, i32 1, !dbg !1701
  %9 = load %"struct.std::_Rb_tree_node_base"*** %3, align 4, !dbg !1701
  %10 = load %"struct.std::_Rb_tree_node_base"** %9, align 4, !dbg !1701
  store %"struct.std::_Rb_tree_node_base"* %10, %"struct.std::_Rb_tree_node_base"** %8, align 4, !dbg !1701
  ret %"struct.std::pair.1"* %4, !dbg !1702
}

define linkonce_odr void @_ZNSt8_Rb_treeIjSt4pairIKjS0_IjjEESt10_Select1stIS3_ESt4lessIjESaIS3_EE24_M_get_insert_unique_posERS1_(%"struct.std::pair.1"* noalias sret %agg.result, %"class.std::_Rb_tree"* %this, i32* dereferenceable(4) %__k) #0 align 2 {
  %1 = alloca %"class.std::_Rb_tree"*, align 4
  %2 = alloca i32*, align 4
  %__x = alloca %"struct.std::_Rb_tree_node"*, align 4
  %__y = alloca %"struct.std::_Rb_tree_node"*, align 4
  %__comp = alloca i8, align 1
  %__j = alloca %"struct.std::_Rb_tree_iterator", align 4
  %3 = alloca %"struct.std::_Rb_tree_iterator", align 4
  %4 = alloca %"struct.std::_Rb_tree_node_base"*, align 4
  %5 = alloca %"struct.std::_Rb_tree_node_base"*, align 4
  %6 = alloca %"struct.std::_Rb_tree_node_base"*, align 4
  %7 = alloca %"struct.std::_Rb_tree_node_base"*, align 4
  %8 = alloca %"struct.std::_Rb_tree_node_base"*, align 4
  store %"class.std::_Rb_tree"* %this, %"class.std::_Rb_tree"** %1, align 4
  call void @llvm.dbg.declare(metadata !{%"class.std::_Rb_tree"** %1}, metadata !1703), !dbg !1704
  store i32* %__k, i32** %2, align 4
  call void @llvm.dbg.declare(metadata !{i32** %2}, metadata !1705), !dbg !1706
  %9 = load %"class.std::_Rb_tree"** %1
  call void @llvm.dbg.declare(metadata !{%"struct.std::_Rb_tree_node"** %__x}, metadata !1707), !dbg !1708
  %10 = call %"struct.std::_Rb_tree_node"* @_ZNSt8_Rb_treeIjSt4pairIKjS0_IjjEESt10_Select1stIS3_ESt4lessIjESaIS3_EE8_M_beginEv(%"class.std::_Rb_tree"* %9), !dbg !1709
  store %"struct.std::_Rb_tree_node"* %10, %"struct.std::_Rb_tree_node"** %__x, align 4, !dbg !1709
  call void @llvm.dbg.declare(metadata !{%"struct.std::_Rb_tree_node"** %__y}, metadata !1710), !dbg !1711
  %11 = call %"struct.std::_Rb_tree_node"* @_ZNSt8_Rb_treeIjSt4pairIKjS0_IjjEESt10_Select1stIS3_ESt4lessIjESaIS3_EE6_M_endEv(%"class.std::_Rb_tree"* %9), !dbg !1712
  store %"struct.std::_Rb_tree_node"* %11, %"struct.std::_Rb_tree_node"** %__y, align 4, !dbg !1712
  call void @llvm.dbg.declare(metadata !{i8* %__comp}, metadata !1713), !dbg !1714
  store i8 1, i8* %__comp, align 1, !dbg !1715
  br label %12, !dbg !1716

; <label>:12                                      ; preds = %34, %0
  %13 = load %"struct.std::_Rb_tree_node"** %__x, align 4, !dbg !1717
  %14 = icmp ne %"struct.std::_Rb_tree_node"* %13, null, !dbg !1717
  br i1 %14, label %15, label %36, !dbg !1717

; <label>:15                                      ; preds = %12
  %16 = load %"struct.std::_Rb_tree_node"** %__x, align 4, !dbg !1719
  store %"struct.std::_Rb_tree_node"* %16, %"struct.std::_Rb_tree_node"** %__y, align 4, !dbg !1719
  %17 = getelementptr inbounds %"class.std::_Rb_tree"* %9, i32 0, i32 0, !dbg !1721
  %18 = getelementptr inbounds %"struct.std::_Rb_tree<unsigned int, std::pair<const unsigned int, std::pair<unsigned int, unsigned int> >, std::_Select1st<std::pair<const unsigned int, std::pair<unsigned int, unsigned int> > >, std::less<unsigned int>, std::allocator<std::pair<const unsigned int, std::pair<unsigned int, unsigned int> > > >::_Rb_tree_impl"* %17, i32 0, i32 0, !dbg !1721
  %19 = load i32** %2, align 4, !dbg !1721
  %20 = load %"struct.std::_Rb_tree_node"** %__x, align 4, !dbg !1722
  %21 = call dereferenceable(4) i32* @_ZNSt8_Rb_treeIjSt4pairIKjS0_IjjEESt10_Select1stIS3_ESt4lessIjESaIS3_EE6_S_keyEPKSt13_Rb_tree_nodeIS3_E(%"struct.std::_Rb_tree_node"* %20), !dbg !1722
  %22 = call zeroext i1 @_ZNKSt4lessIjEclERKjS2_(%"struct.std::less"* %18, i32* dereferenceable(4) %19, i32* dereferenceable(4) %21), !dbg !1721
  %23 = zext i1 %22 to i8, !dbg !1721
  store i8 %23, i8* %__comp, align 1, !dbg !1721
  %24 = load i8* %__comp, align 1, !dbg !1723
  %25 = trunc i8 %24 to i1, !dbg !1723
  br i1 %25, label %26, label %30, !dbg !1723

; <label>:26                                      ; preds = %15
  %27 = load %"struct.std::_Rb_tree_node"** %__x, align 4, !dbg !1724
  %28 = bitcast %"struct.std::_Rb_tree_node"* %27 to %"struct.std::_Rb_tree_node_base"*, !dbg !1724
  %29 = call %"struct.std::_Rb_tree_node"* @_ZNSt8_Rb_treeIjSt4pairIKjS0_IjjEESt10_Select1stIS3_ESt4lessIjESaIS3_EE7_S_leftEPSt18_Rb_tree_node_base(%"struct.std::_Rb_tree_node_base"* %28), !dbg !1724
  br label %34, !dbg !1724

; <label>:30                                      ; preds = %15
  %31 = load %"struct.std::_Rb_tree_node"** %__x, align 4, !dbg !1726
  %32 = bitcast %"struct.std::_Rb_tree_node"* %31 to %"struct.std::_Rb_tree_node_base"*, !dbg !1726
  %33 = call %"struct.std::_Rb_tree_node"* @_ZNSt8_Rb_treeIjSt4pairIKjS0_IjjEESt10_Select1stIS3_ESt4lessIjESaIS3_EE8_S_rightEPSt18_Rb_tree_node_base(%"struct.std::_Rb_tree_node_base"* %32), !dbg !1726
  br label %34, !dbg !1726

; <label>:34                                      ; preds = %30, %26
  %35 = phi %"struct.std::_Rb_tree_node"* [ %29, %26 ], [ %33, %30 ], !dbg !1728
  store %"struct.std::_Rb_tree_node"* %35, %"struct.std::_Rb_tree_node"** %__x, align 4, !dbg !1729
  br label %12, !dbg !1732

; <label>:36                                      ; preds = %12
  call void @llvm.dbg.declare(metadata !{%"struct.std::_Rb_tree_iterator"* %__j}, metadata !1733), !dbg !1734
  %37 = load %"struct.std::_Rb_tree_node"** %__y, align 4, !dbg !1735
  %38 = call %"struct.std::_Rb_tree_iterator"* @_ZNSt17_Rb_tree_iteratorISt4pairIKjS0_IjjEEEC2EPSt13_Rb_tree_nodeIS3_E(%"struct.std::_Rb_tree_iterator"* %__j, %"struct.std::_Rb_tree_node"* %37), !dbg !1734
  %39 = load i8* %__comp, align 1, !dbg !1736
  %40 = trunc i8 %39 to i1, !dbg !1736
  br i1 %40, label %41, label %55, !dbg !1736

; <label>:41                                      ; preds = %36
  %42 = call i32 @_ZNSt8_Rb_treeIjSt4pairIKjS0_IjjEESt10_Select1stIS3_ESt4lessIjESaIS3_EE5beginEv(%"class.std::_Rb_tree"* %9), !dbg !1738
  %43 = getelementptr %"struct.std::_Rb_tree_iterator"* %3, i32 0, i32 0, !dbg !1738
  %44 = inttoptr i32 %42 to %"struct.std::_Rb_tree_node_base"*, !dbg !1738
  store %"struct.std::_Rb_tree_node_base"* %44, %"struct.std::_Rb_tree_node_base"** %43, !dbg !1738
  %45 = call zeroext i1 @_ZNKSt17_Rb_tree_iteratorISt4pairIKjS0_IjjEEEeqERKS4_(%"struct.std::_Rb_tree_iterator"* %__j, %"struct.std::_Rb_tree_iterator"* dereferenceable(4) %3), !dbg !1741
  br i1 %45, label %46, label %52, !dbg !1741

; <label>:46                                      ; preds = %41
  %47 = load %"struct.std::_Rb_tree_node"** %__x, align 4, !dbg !1742
  %48 = bitcast %"struct.std::_Rb_tree_node"* %47 to %"struct.std::_Rb_tree_node_base"*, !dbg !1742
  store %"struct.std::_Rb_tree_node_base"* %48, %"struct.std::_Rb_tree_node_base"** %4, !dbg !1742
  %49 = load %"struct.std::_Rb_tree_node"** %__y, align 4, !dbg !1742
  %50 = bitcast %"struct.std::_Rb_tree_node"* %49 to %"struct.std::_Rb_tree_node_base"*, !dbg !1742
  store %"struct.std::_Rb_tree_node_base"* %50, %"struct.std::_Rb_tree_node_base"** %5, !dbg !1742
  %51 = call %"struct.std::pair.1"* @_ZNSt4pairIPSt18_Rb_tree_node_baseS1_EC2ERKS1_S4_(%"struct.std::pair.1"* %agg.result, %"struct.std::_Rb_tree_node_base"** dereferenceable(4) %4, %"struct.std::_Rb_tree_node_base"** dereferenceable(4) %5), !dbg !1742
  br label %72, !dbg !1742

; <label>:52                                      ; preds = %41
  %53 = call dereferenceable(4) %"struct.std::_Rb_tree_iterator"* @_ZNSt17_Rb_tree_iteratorISt4pairIKjS0_IjjEEEmmEv(%"struct.std::_Rb_tree_iterator"* %__j), !dbg !1743
  br label %54

; <label>:54                                      ; preds = %52
  br label %55, !dbg !1744

; <label>:55                                      ; preds = %54, %36
  %56 = getelementptr inbounds %"class.std::_Rb_tree"* %9, i32 0, i32 0, !dbg !1745
  %57 = getelementptr inbounds %"struct.std::_Rb_tree<unsigned int, std::pair<const unsigned int, std::pair<unsigned int, unsigned int> >, std::_Select1st<std::pair<const unsigned int, std::pair<unsigned int, unsigned int> > >, std::less<unsigned int>, std::allocator<std::pair<const unsigned int, std::pair<unsigned int, unsigned int> > > >::_Rb_tree_impl"* %56, i32 0, i32 0, !dbg !1745
  %58 = getelementptr inbounds %"struct.std::_Rb_tree_iterator"* %__j, i32 0, i32 0, !dbg !1747
  %59 = load %"struct.std::_Rb_tree_node_base"** %58, align 4, !dbg !1747
  %60 = call dereferenceable(4) i32* @_ZNSt8_Rb_treeIjSt4pairIKjS0_IjjEESt10_Select1stIS3_ESt4lessIjESaIS3_EE6_S_keyEPKSt18_Rb_tree_node_base(%"struct.std::_Rb_tree_node_base"* %59), !dbg !1747
  %61 = load i32** %2, align 4, !dbg !1745
  %62 = call zeroext i1 @_ZNKSt4lessIjEclERKjS2_(%"struct.std::less"* %57, i32* dereferenceable(4) %60, i32* dereferenceable(4) %61), !dbg !1745
  br i1 %62, label %63, label %69, !dbg !1745

; <label>:63                                      ; preds = %55
  %64 = load %"struct.std::_Rb_tree_node"** %__x, align 4, !dbg !1748
  %65 = bitcast %"struct.std::_Rb_tree_node"* %64 to %"struct.std::_Rb_tree_node_base"*, !dbg !1748
  store %"struct.std::_Rb_tree_node_base"* %65, %"struct.std::_Rb_tree_node_base"** %6, !dbg !1748
  %66 = load %"struct.std::_Rb_tree_node"** %__y, align 4, !dbg !1748
  %67 = bitcast %"struct.std::_Rb_tree_node"* %66 to %"struct.std::_Rb_tree_node_base"*, !dbg !1748
  store %"struct.std::_Rb_tree_node_base"* %67, %"struct.std::_Rb_tree_node_base"** %7, !dbg !1748
  %68 = call %"struct.std::pair.1"* @_ZNSt4pairIPSt18_Rb_tree_node_baseS1_EC2ERKS1_S4_(%"struct.std::pair.1"* %agg.result, %"struct.std::_Rb_tree_node_base"** dereferenceable(4) %6, %"struct.std::_Rb_tree_node_base"** dereferenceable(4) %7), !dbg !1748
  br label %72, !dbg !1748

; <label>:69                                      ; preds = %55
  %70 = getelementptr inbounds %"struct.std::_Rb_tree_iterator"* %__j, i32 0, i32 0, !dbg !1749
  store %"struct.std::_Rb_tree_node_base"* null, %"struct.std::_Rb_tree_node_base"** %8, !dbg !1749
  %71 = call %"struct.std::pair.1"* @_ZNSt4pairIPSt18_Rb_tree_node_baseS1_EC2ERKS1_S4_(%"struct.std::pair.1"* %agg.result, %"struct.std::_Rb_tree_node_base"** dereferenceable(4) %70, %"struct.std::_Rb_tree_node_base"** dereferenceable(4) %8), !dbg !1749
  br label %72, !dbg !1749

; <label>:72                                      ; preds = %69, %63, %46
  ret void, !dbg !1750
}

; Function Attrs: nounwind
define linkonce_odr dereferenceable(4) %"struct.std::_Rb_tree_node_base"** @_ZNSt8_Rb_treeIjSt4pairIKjS0_IjjEESt10_Select1stIS3_ESt4lessIjESaIS3_EE11_M_leftmostEv(%"class.std::_Rb_tree"* %this) #3 align 2 {
  %1 = alloca %"class.std::_Rb_tree"*, align 4
  store %"class.std::_Rb_tree"* %this, %"class.std::_Rb_tree"** %1, align 4
  call void @llvm.dbg.declare(metadata !{%"class.std::_Rb_tree"** %1}, metadata !1751), !dbg !1752
  %2 = load %"class.std::_Rb_tree"** %1
  %3 = getelementptr inbounds %"class.std::_Rb_tree"* %2, i32 0, i32 0, !dbg !1753
  %4 = getelementptr inbounds %"struct.std::_Rb_tree<unsigned int, std::pair<const unsigned int, std::pair<unsigned int, unsigned int> >, std::_Select1st<std::pair<const unsigned int, std::pair<unsigned int, unsigned int> > >, std::less<unsigned int>, std::allocator<std::pair<const unsigned int, std::pair<unsigned int, unsigned int> > > >::_Rb_tree_impl"* %3, i32 0, i32 1, !dbg !1753
  %5 = getelementptr inbounds %"struct.std::_Rb_tree_node_base"* %4, i32 0, i32 2, !dbg !1753
  ret %"struct.std::_Rb_tree_node_base"** %5, !dbg !1753
}

; Function Attrs: nounwind
define linkonce_odr dereferenceable(4) %"struct.std::_Rb_tree_iterator"* @_ZNSt17_Rb_tree_iteratorISt4pairIKjS0_IjjEEEmmEv(%"struct.std::_Rb_tree_iterator"* %this) #3 align 2 {
  %1 = alloca %"struct.std::_Rb_tree_iterator"*, align 4
  store %"struct.std::_Rb_tree_iterator"* %this, %"struct.std::_Rb_tree_iterator"** %1, align 4
  call void @llvm.dbg.declare(metadata !{%"struct.std::_Rb_tree_iterator"** %1}, metadata !1754), !dbg !1755
  %2 = load %"struct.std::_Rb_tree_iterator"** %1
  %3 = getelementptr inbounds %"struct.std::_Rb_tree_iterator"* %2, i32 0, i32 0, !dbg !1756
  %4 = load %"struct.std::_Rb_tree_node_base"** %3, align 4, !dbg !1756
  %5 = call %"struct.std::_Rb_tree_node_base"* @_ZSt18_Rb_tree_decrementPSt18_Rb_tree_node_base(%"struct.std::_Rb_tree_node_base"* %4) #11, !dbg !1756
  %6 = getelementptr inbounds %"struct.std::_Rb_tree_iterator"* %2, i32 0, i32 0, !dbg !1756
  store %"struct.std::_Rb_tree_node_base"* %5, %"struct.std::_Rb_tree_node_base"** %6, align 4, !dbg !1756
  ret %"struct.std::_Rb_tree_iterator"* %2, !dbg !1757
}

; Function Attrs: nounwind readonly
declare %"struct.std::_Rb_tree_node_base"* @_ZSt18_Rb_tree_decrementPSt18_Rb_tree_node_base(%"struct.std::_Rb_tree_node_base"*) #7

; Function Attrs: nounwind
define linkonce_odr void @_ZNKSt8_Rb_treeIjSt4pairIKjS0_IjjEESt10_Select1stIS3_ESt4lessIjESaIS3_EE8key_compEv(%"class.std::_Rb_tree"* %this) #3 align 2 {
  %1 = alloca %"struct.std::less", align 1
  %2 = alloca %"class.std::_Rb_tree"*, align 4
  store %"class.std::_Rb_tree"* %this, %"class.std::_Rb_tree"** %2, align 4
  call void @llvm.dbg.declare(metadata !{%"class.std::_Rb_tree"** %2}, metadata !1758), !dbg !1759
  %3 = load %"class.std::_Rb_tree"** %2
  %4 = getelementptr inbounds %"class.std::_Rb_tree"* %3, i32 0, i32 0, !dbg !1760
  %5 = getelementptr inbounds %"struct.std::_Rb_tree<unsigned int, std::pair<const unsigned int, std::pair<unsigned int, unsigned int> >, std::_Select1st<std::pair<const unsigned int, std::pair<unsigned int, unsigned int> > >, std::less<unsigned int>, std::allocator<std::pair<const unsigned int, std::pair<unsigned int, unsigned int> > > >::_Rb_tree_impl"* %4, i32 0, i32 0, !dbg !1760
  ret void, !dbg !1760
}

define linkonce_odr i32 @_ZNSt8_Rb_treeIjSt4pairIKjS0_IjjEESt10_Select1stIS3_ESt4lessIjESaIS3_EE11lower_boundERS1_(%"class.std::_Rb_tree"* %this, i32* dereferenceable(4) %__k) #0 align 2 {
  %1 = alloca %"struct.std::_Rb_tree_iterator", align 4
  %2 = alloca %"class.std::_Rb_tree"*, align 4
  %3 = alloca i32*, align 4
  store %"class.std::_Rb_tree"* %this, %"class.std::_Rb_tree"** %2, align 4
  call void @llvm.dbg.declare(metadata !{%"class.std::_Rb_tree"** %2}, metadata !1761), !dbg !1762
  store i32* %__k, i32** %3, align 4
  call void @llvm.dbg.declare(metadata !{i32** %3}, metadata !1763), !dbg !1764
  %4 = load %"class.std::_Rb_tree"** %2
  %5 = call %"struct.std::_Rb_tree_node"* @_ZNSt8_Rb_treeIjSt4pairIKjS0_IjjEESt10_Select1stIS3_ESt4lessIjESaIS3_EE8_M_beginEv(%"class.std::_Rb_tree"* %4), !dbg !1765
  %6 = call %"struct.std::_Rb_tree_node"* @_ZNSt8_Rb_treeIjSt4pairIKjS0_IjjEESt10_Select1stIS3_ESt4lessIjESaIS3_EE6_M_endEv(%"class.std::_Rb_tree"* %4), !dbg !1766
  %7 = load i32** %3, align 4, !dbg !1767
  %8 = call i32 @_ZNSt8_Rb_treeIjSt4pairIKjS0_IjjEESt10_Select1stIS3_ESt4lessIjESaIS3_EE14_M_lower_boundEPSt13_Rb_tree_nodeIS3_ESC_RS1_(%"class.std::_Rb_tree"* %4, %"struct.std::_Rb_tree_node"* %5, %"struct.std::_Rb_tree_node"* %6, i32* dereferenceable(4) %7), !dbg !1767
  %9 = getelementptr %"struct.std::_Rb_tree_iterator"* %1, i32 0, i32 0, !dbg !1767
  %10 = inttoptr i32 %8 to %"struct.std::_Rb_tree_node_base"*, !dbg !1767
  store %"struct.std::_Rb_tree_node_base"* %10, %"struct.std::_Rb_tree_node_base"** %9, !dbg !1767
  %11 = getelementptr %"struct.std::_Rb_tree_iterator"* %1, i32 0, i32 0, !dbg !1767
  %12 = load %"struct.std::_Rb_tree_node_base"** %11, !dbg !1767
  %13 = ptrtoint %"struct.std::_Rb_tree_node_base"* %12 to i32, !dbg !1767
  ret i32 %13, !dbg !1767
}

define linkonce_odr %"class.std::_Rb_tree"* @_ZNSt8_Rb_treeIjSt4pairIKjS0_IjjEESt10_Select1stIS3_ESt4lessIjESaIS3_EEC2Ev(%"class.std::_Rb_tree"* returned %this) unnamed_addr #0 align 2 {
  %1 = alloca %"class.std::_Rb_tree"*, align 4
  store %"class.std::_Rb_tree"* %this, %"class.std::_Rb_tree"** %1, align 4
  call void @llvm.dbg.declare(metadata !{%"class.std::_Rb_tree"** %1}, metadata !1768), !dbg !1769
  %2 = load %"class.std::_Rb_tree"** %1
  %3 = getelementptr inbounds %"class.std::_Rb_tree"* %2, i32 0, i32 0, !dbg !1770
  %4 = call %"struct.std::_Rb_tree<unsigned int, std::pair<const unsigned int, std::pair<unsigned int, unsigned int> >, std::_Select1st<std::pair<const unsigned int, std::pair<unsigned int, unsigned int> > >, std::less<unsigned int>, std::allocator<std::pair<const unsigned int, std::pair<unsigned int, unsigned int> > > >::_Rb_tree_impl"* @_ZNSt8_Rb_treeIjSt4pairIKjS0_IjjEESt10_Select1stIS3_ESt4lessIjESaIS3_EE13_Rb_tree_implIS7_Lb0EEC2Ev(%"struct.std::_Rb_tree<unsigned int, std::pair<const unsigned int, std::pair<unsigned int, unsigned int> >, std::_Select1st<std::pair<const unsigned int, std::pair<unsigned int, unsigned int> > >, std::less<unsigned int>, std::allocator<std::pair<const unsigned int, std::pair<unsigned int, unsigned int> > > >::_Rb_tree_impl"* %3), !dbg !1770
  ret %"class.std::_Rb_tree"* %2, !dbg !1771
}

define linkonce_odr %"struct.std::_Rb_tree<unsigned int, std::pair<const unsigned int, std::pair<unsigned int, unsigned int> >, std::_Select1st<std::pair<const unsigned int, std::pair<unsigned int, unsigned int> > >, std::less<unsigned int>, std::allocator<std::pair<const unsigned int, std::pair<unsigned int, unsigned int> > > >::_Rb_tree_impl"* @_ZNSt8_Rb_treeIjSt4pairIKjS0_IjjEESt10_Select1stIS3_ESt4lessIjESaIS3_EE13_Rb_tree_implIS7_Lb0EEC2Ev(%"struct.std::_Rb_tree<unsigned int, std::pair<const unsigned int, std::pair<unsigned int, unsigned int> >, std::_Select1st<std::pair<const unsigned int, std::pair<unsigned int, unsigned int> > >, std::less<unsigned int>, std::allocator<std::pair<const unsigned int, std::pair<unsigned int, unsigned int> > > >::_Rb_tree_impl"* returned %this) unnamed_addr #0 align 2 {
  %1 = alloca %"struct.std::_Rb_tree<unsigned int, std::pair<const unsigned int, std::pair<unsigned int, unsigned int> >, std::_Select1st<std::pair<const unsigned int, std::pair<unsigned int, unsigned int> > >, std::less<unsigned int>, std::allocator<std::pair<const unsigned int, std::pair<unsigned int, unsigned int> > > >::_Rb_tree_impl"*, align 4
  %2 = alloca i8*
  %3 = alloca i32
  store %"struct.std::_Rb_tree<unsigned int, std::pair<const unsigned int, std::pair<unsigned int, unsigned int> >, std::_Select1st<std::pair<const unsigned int, std::pair<unsigned int, unsigned int> > >, std::less<unsigned int>, std::allocator<std::pair<const unsigned int, std::pair<unsigned int, unsigned int> > > >::_Rb_tree_impl"* %this, %"struct.std::_Rb_tree<unsigned int, std::pair<const unsigned int, std::pair<unsigned int, unsigned int> >, std::_Select1st<std::pair<const unsigned int, std::pair<unsigned int, unsigned int> > >, std::less<unsigned int>, std::allocator<std::pair<const unsigned int, std::pair<unsigned int, unsigned int> > > >::_Rb_tree_impl"** %1, align 4
  call void @llvm.dbg.declare(metadata !{%"struct.std::_Rb_tree<unsigned int, std::pair<const unsigned int, std::pair<unsigned int, unsigned int> >, std::_Select1st<std::pair<const unsigned int, std::pair<unsigned int, unsigned int> > >, std::less<unsigned int>, std::allocator<std::pair<const unsigned int, std::pair<unsigned int, unsigned int> > > >::_Rb_tree_impl"** %1}, metadata !1772), !dbg !1774
  %4 = load %"struct.std::_Rb_tree<unsigned int, std::pair<const unsigned int, std::pair<unsigned int, unsigned int> >, std::_Select1st<std::pair<const unsigned int, std::pair<unsigned int, unsigned int> > >, std::less<unsigned int>, std::allocator<std::pair<const unsigned int, std::pair<unsigned int, unsigned int> > > >::_Rb_tree_impl"** %1
  %5 = bitcast %"struct.std::_Rb_tree<unsigned int, std::pair<const unsigned int, std::pair<unsigned int, unsigned int> >, std::_Select1st<std::pair<const unsigned int, std::pair<unsigned int, unsigned int> > >, std::less<unsigned int>, std::allocator<std::pair<const unsigned int, std::pair<unsigned int, unsigned int> > > >::_Rb_tree_impl"* %4 to %"class.std::allocator"*, !dbg !1775
  %6 = call %"class.std::allocator"* @_ZNSaISt13_Rb_tree_nodeISt4pairIKjS0_IjjEEEEC2Ev(%"class.std::allocator"* %5) #2, !dbg !1775
  %7 = getelementptr inbounds %"struct.std::_Rb_tree<unsigned int, std::pair<const unsigned int, std::pair<unsigned int, unsigned int> >, std::_Select1st<std::pair<const unsigned int, std::pair<unsigned int, unsigned int> > >, std::less<unsigned int>, std::allocator<std::pair<const unsigned int, std::pair<unsigned int, unsigned int> > > >::_Rb_tree_impl"* %4, i32 0, i32 0, !dbg !1775
  %8 = getelementptr inbounds %"struct.std::_Rb_tree<unsigned int, std::pair<const unsigned int, std::pair<unsigned int, unsigned int> >, std::_Select1st<std::pair<const unsigned int, std::pair<unsigned int, unsigned int> > >, std::less<unsigned int>, std::allocator<std::pair<const unsigned int, std::pair<unsigned int, unsigned int> > > >::_Rb_tree_impl"* %4, i32 0, i32 1, !dbg !1775
  %9 = bitcast %"struct.std::_Rb_tree_node_base"* %8 to i8*, !dbg !1775
  call void @llvm.memset.p0i8.i32(i8* %9, i8 0, i32 16, i32 4, i1 false), !dbg !1775
  %10 = getelementptr inbounds %"struct.std::_Rb_tree<unsigned int, std::pair<const unsigned int, std::pair<unsigned int, unsigned int> >, std::_Select1st<std::pair<const unsigned int, std::pair<unsigned int, unsigned int> > >, std::less<unsigned int>, std::allocator<std::pair<const unsigned int, std::pair<unsigned int, unsigned int> > > >::_Rb_tree_impl"* %4, i32 0, i32 2, !dbg !1775
  store i32 0, i32* %10, align 4, !dbg !1775
  invoke void @_ZNSt8_Rb_treeIjSt4pairIKjS0_IjjEESt10_Select1stIS3_ESt4lessIjESaIS3_EE13_Rb_tree_implIS7_Lb0EE13_M_initializeEv(%"struct.std::_Rb_tree<unsigned int, std::pair<const unsigned int, std::pair<unsigned int, unsigned int> >, std::_Select1st<std::pair<const unsigned int, std::pair<unsigned int, unsigned int> > >, std::less<unsigned int>, std::allocator<std::pair<const unsigned int, std::pair<unsigned int, unsigned int> > > >::_Rb_tree_impl"* %4)
          to label %11 unwind label %12, !dbg !1776

; <label>:11                                      ; preds = %0
  ret %"struct.std::_Rb_tree<unsigned int, std::pair<const unsigned int, std::pair<unsigned int, unsigned int> >, std::_Select1st<std::pair<const unsigned int, std::pair<unsigned int, unsigned int> > >, std::less<unsigned int>, std::allocator<std::pair<const unsigned int, std::pair<unsigned int, unsigned int> > > >::_Rb_tree_impl"* %4, !dbg !1778

; <label>:12                                      ; preds = %0
  %13 = landingpad { i8*, i32 } personality i8* bitcast (i32 (...)* @__gxx_personality_v0 to i8*)
          cleanup, !dbg !1780
  %14 = extractvalue { i8*, i32 } %13, 0, !dbg !1780
  store i8* %14, i8** %2, !dbg !1780
  %15 = extractvalue { i8*, i32 } %13, 1, !dbg !1780
  store i32 %15, i32* %3, !dbg !1780
  %16 = bitcast %"struct.std::_Rb_tree<unsigned int, std::pair<const unsigned int, std::pair<unsigned int, unsigned int> >, std::_Select1st<std::pair<const unsigned int, std::pair<unsigned int, unsigned int> > >, std::less<unsigned int>, std::allocator<std::pair<const unsigned int, std::pair<unsigned int, unsigned int> > > >::_Rb_tree_impl"* %4 to %"class.std::allocator"*, !dbg !1782
  %17 = call %"class.std::allocator"* @_ZNSaISt13_Rb_tree_nodeISt4pairIKjS0_IjjEEEED2Ev(%"class.std::allocator"* %16) #2, !dbg !1782
  br label %18, !dbg !1782

; <label>:18                                      ; preds = %12
  %19 = load i8** %2, !dbg !1783
  %20 = load i32* %3, !dbg !1783
  %21 = insertvalue { i8*, i32 } undef, i8* %19, 0, !dbg !1783
  %22 = insertvalue { i8*, i32 } %21, i32 %20, 1, !dbg !1783
  resume { i8*, i32 } %22, !dbg !1783
}

; Function Attrs: nounwind
define linkonce_odr %"class.std::allocator"* @_ZNSaISt13_Rb_tree_nodeISt4pairIKjS0_IjjEEEEC2Ev(%"class.std::allocator"* returned %this) unnamed_addr #3 align 2 {
  %1 = alloca %"class.std::allocator"*, align 4
  store %"class.std::allocator"* %this, %"class.std::allocator"** %1, align 4
  call void @llvm.dbg.declare(metadata !{%"class.std::allocator"** %1}, metadata !1785), !dbg !1787
  %2 = load %"class.std::allocator"** %1
  %3 = bitcast %"class.std::allocator"* %2 to %"class.__gnu_cxx::new_allocator"*, !dbg !1788
  %4 = call %"class.__gnu_cxx::new_allocator"* @_ZN9__gnu_cxx13new_allocatorISt13_Rb_tree_nodeISt4pairIKjS2_IjjEEEEC2Ev(%"class.__gnu_cxx::new_allocator"* %3) #2, !dbg !1788
  ret %"class.std::allocator"* %2, !dbg !1789
}

; Function Attrs: nounwind
declare void @llvm.memset.p0i8.i32(i8* nocapture, i8, i32, i32, i1) #2

; Function Attrs: nounwind
define linkonce_odr void @_ZNSt8_Rb_treeIjSt4pairIKjS0_IjjEESt10_Select1stIS3_ESt4lessIjESaIS3_EE13_Rb_tree_implIS7_Lb0EE13_M_initializeEv(%"struct.std::_Rb_tree<unsigned int, std::pair<const unsigned int, std::pair<unsigned int, unsigned int> >, std::_Select1st<std::pair<const unsigned int, std::pair<unsigned int, unsigned int> > >, std::less<unsigned int>, std::allocator<std::pair<const unsigned int, std::pair<unsigned int, unsigned int> > > >::_Rb_tree_impl"* %this) #3 align 2 {
  %1 = alloca %"struct.std::_Rb_tree<unsigned int, std::pair<const unsigned int, std::pair<unsigned int, unsigned int> >, std::_Select1st<std::pair<const unsigned int, std::pair<unsigned int, unsigned int> > >, std::less<unsigned int>, std::allocator<std::pair<const unsigned int, std::pair<unsigned int, unsigned int> > > >::_Rb_tree_impl"*, align 4
  store %"struct.std::_Rb_tree<unsigned int, std::pair<const unsigned int, std::pair<unsigned int, unsigned int> >, std::_Select1st<std::pair<const unsigned int, std::pair<unsigned int, unsigned int> > >, std::less<unsigned int>, std::allocator<std::pair<const unsigned int, std::pair<unsigned int, unsigned int> > > >::_Rb_tree_impl"* %this, %"struct.std::_Rb_tree<unsigned int, std::pair<const unsigned int, std::pair<unsigned int, unsigned int> >, std::_Select1st<std::pair<const unsigned int, std::pair<unsigned int, unsigned int> > >, std::less<unsigned int>, std::allocator<std::pair<const unsigned int, std::pair<unsigned int, unsigned int> > > >::_Rb_tree_impl"** %1, align 4
  call void @llvm.dbg.declare(metadata !{%"struct.std::_Rb_tree<unsigned int, std::pair<const unsigned int, std::pair<unsigned int, unsigned int> >, std::_Select1st<std::pair<const unsigned int, std::pair<unsigned int, unsigned int> > >, std::less<unsigned int>, std::allocator<std::pair<const unsigned int, std::pair<unsigned int, unsigned int> > > >::_Rb_tree_impl"** %1}, metadata !1790), !dbg !1791
  %2 = load %"struct.std::_Rb_tree<unsigned int, std::pair<const unsigned int, std::pair<unsigned int, unsigned int> >, std::_Select1st<std::pair<const unsigned int, std::pair<unsigned int, unsigned int> > >, std::less<unsigned int>, std::allocator<std::pair<const unsigned int, std::pair<unsigned int, unsigned int> > > >::_Rb_tree_impl"** %1
  %3 = getelementptr inbounds %"struct.std::_Rb_tree<unsigned int, std::pair<const unsigned int, std::pair<unsigned int, unsigned int> >, std::_Select1st<std::pair<const unsigned int, std::pair<unsigned int, unsigned int> > >, std::less<unsigned int>, std::allocator<std::pair<const unsigned int, std::pair<unsigned int, unsigned int> > > >::_Rb_tree_impl"* %2, i32 0, i32 1, !dbg !1792
  %4 = getelementptr inbounds %"struct.std::_Rb_tree_node_base"* %3, i32 0, i32 0, !dbg !1792
  store i32 0, i32* %4, align 4, !dbg !1792
  %5 = getelementptr inbounds %"struct.std::_Rb_tree<unsigned int, std::pair<const unsigned int, std::pair<unsigned int, unsigned int> >, std::_Select1st<std::pair<const unsigned int, std::pair<unsigned int, unsigned int> > >, std::less<unsigned int>, std::allocator<std::pair<const unsigned int, std::pair<unsigned int, unsigned int> > > >::_Rb_tree_impl"* %2, i32 0, i32 1, !dbg !1793
  %6 = getelementptr inbounds %"struct.std::_Rb_tree_node_base"* %5, i32 0, i32 1, !dbg !1793
  store %"struct.std::_Rb_tree_node_base"* null, %"struct.std::_Rb_tree_node_base"** %6, align 4, !dbg !1793
  %7 = getelementptr inbounds %"struct.std::_Rb_tree<unsigned int, std::pair<const unsigned int, std::pair<unsigned int, unsigned int> >, std::_Select1st<std::pair<const unsigned int, std::pair<unsigned int, unsigned int> > >, std::less<unsigned int>, std::allocator<std::pair<const unsigned int, std::pair<unsigned int, unsigned int> > > >::_Rb_tree_impl"* %2, i32 0, i32 1, !dbg !1794
  %8 = getelementptr inbounds %"struct.std::_Rb_tree<unsigned int, std::pair<const unsigned int, std::pair<unsigned int, unsigned int> >, std::_Select1st<std::pair<const unsigned int, std::pair<unsigned int, unsigned int> > >, std::less<unsigned int>, std::allocator<std::pair<const unsigned int, std::pair<unsigned int, unsigned int> > > >::_Rb_tree_impl"* %2, i32 0, i32 1, !dbg !1794
  %9 = getelementptr inbounds %"struct.std::_Rb_tree_node_base"* %8, i32 0, i32 2, !dbg !1794
  store %"struct.std::_Rb_tree_node_base"* %7, %"struct.std::_Rb_tree_node_base"** %9, align 4, !dbg !1794
  %10 = getelementptr inbounds %"struct.std::_Rb_tree<unsigned int, std::pair<const unsigned int, std::pair<unsigned int, unsigned int> >, std::_Select1st<std::pair<const unsigned int, std::pair<unsigned int, unsigned int> > >, std::less<unsigned int>, std::allocator<std::pair<const unsigned int, std::pair<unsigned int, unsigned int> > > >::_Rb_tree_impl"* %2, i32 0, i32 1, !dbg !1795
  %11 = getelementptr inbounds %"struct.std::_Rb_tree<unsigned int, std::pair<const unsigned int, std::pair<unsigned int, unsigned int> >, std::_Select1st<std::pair<const unsigned int, std::pair<unsigned int, unsigned int> > >, std::less<unsigned int>, std::allocator<std::pair<const unsigned int, std::pair<unsigned int, unsigned int> > > >::_Rb_tree_impl"* %2, i32 0, i32 1, !dbg !1795
  %12 = getelementptr inbounds %"struct.std::_Rb_tree_node_base"* %11, i32 0, i32 3, !dbg !1795
  store %"struct.std::_Rb_tree_node_base"* %10, %"struct.std::_Rb_tree_node_base"** %12, align 4, !dbg !1795
  ret void, !dbg !1796
}

; Function Attrs: nounwind
define linkonce_odr %"class.std::allocator"* @_ZNSaISt13_Rb_tree_nodeISt4pairIKjS0_IjjEEEED2Ev(%"class.std::allocator"* returned %this) unnamed_addr #3 align 2 {
  %1 = alloca %"class.std::allocator"*, align 4
  store %"class.std::allocator"* %this, %"class.std::allocator"** %1, align 4
  call void @llvm.dbg.declare(metadata !{%"class.std::allocator"** %1}, metadata !1797), !dbg !1798
  %2 = load %"class.std::allocator"** %1
  %3 = bitcast %"class.std::allocator"* %2 to %"class.__gnu_cxx::new_allocator"*, !dbg !1799
  %4 = call %"class.__gnu_cxx::new_allocator"* @_ZN9__gnu_cxx13new_allocatorISt13_Rb_tree_nodeISt4pairIKjS2_IjjEEEED2Ev(%"class.__gnu_cxx::new_allocator"* %3) #2, !dbg !1799
  ret %"class.std::allocator"* %2, !dbg !1801
}

; Function Attrs: nounwind
define linkonce_odr %"class.__gnu_cxx::new_allocator"* @_ZN9__gnu_cxx13new_allocatorISt13_Rb_tree_nodeISt4pairIKjS2_IjjEEEED2Ev(%"class.__gnu_cxx::new_allocator"* returned %this) unnamed_addr #3 align 2 {
  %1 = alloca %"class.__gnu_cxx::new_allocator"*, align 4
  store %"class.__gnu_cxx::new_allocator"* %this, %"class.__gnu_cxx::new_allocator"** %1, align 4
  call void @llvm.dbg.declare(metadata !{%"class.__gnu_cxx::new_allocator"** %1}, metadata !1802), !dbg !1803
  %2 = load %"class.__gnu_cxx::new_allocator"** %1
  ret %"class.__gnu_cxx::new_allocator"* %2, !dbg !1804
}

; Function Attrs: nounwind
define linkonce_odr %"class.__gnu_cxx::new_allocator"* @_ZN9__gnu_cxx13new_allocatorISt13_Rb_tree_nodeISt4pairIKjS2_IjjEEEEC2Ev(%"class.__gnu_cxx::new_allocator"* returned %this) unnamed_addr #3 align 2 {
  %1 = alloca %"class.__gnu_cxx::new_allocator"*, align 4
  store %"class.__gnu_cxx::new_allocator"* %this, %"class.__gnu_cxx::new_allocator"** %1, align 4
  call void @llvm.dbg.declare(metadata !{%"class.__gnu_cxx::new_allocator"** %1}, metadata !1805), !dbg !1806
  %2 = load %"class.__gnu_cxx::new_allocator"** %1
  ret %"class.__gnu_cxx::new_allocator"* %2, !dbg !1807
}

define linkonce_odr %"class.std::_Rb_tree"* @_ZNSt8_Rb_treeIjSt4pairIKjS0_IjjEESt10_Select1stIS3_ESt4lessIjESaIS3_EED2Ev(%"class.std::_Rb_tree"* returned %this) unnamed_addr #0 align 2 {
  %1 = alloca %"class.std::_Rb_tree"*, align 4
  %2 = alloca i8*
  %3 = alloca i32
  store %"class.std::_Rb_tree"* %this, %"class.std::_Rb_tree"** %1, align 4
  call void @llvm.dbg.declare(metadata !{%"class.std::_Rb_tree"** %1}, metadata !1808), !dbg !1809
  %4 = load %"class.std::_Rb_tree"** %1
  %5 = invoke %"struct.std::_Rb_tree_node"* @_ZNSt8_Rb_treeIjSt4pairIKjS0_IjjEESt10_Select1stIS3_ESt4lessIjESaIS3_EE8_M_beginEv(%"class.std::_Rb_tree"* %4)
          to label %6 unwind label %10, !dbg !1810

; <label>:6                                       ; preds = %0
  invoke void @_ZNSt8_Rb_treeIjSt4pairIKjS0_IjjEESt10_Select1stIS3_ESt4lessIjESaIS3_EE8_M_eraseEPSt13_Rb_tree_nodeIS3_E(%"class.std::_Rb_tree"* %4, %"struct.std::_Rb_tree_node"* %5)
          to label %7 unwind label %10, !dbg !1812

; <label>:7                                       ; preds = %6
  %8 = getelementptr inbounds %"class.std::_Rb_tree"* %4, i32 0, i32 0, !dbg !1814
  %9 = call %"struct.std::_Rb_tree<unsigned int, std::pair<const unsigned int, std::pair<unsigned int, unsigned int> >, std::_Select1st<std::pair<const unsigned int, std::pair<unsigned int, unsigned int> > >, std::less<unsigned int>, std::allocator<std::pair<const unsigned int, std::pair<unsigned int, unsigned int> > > >::_Rb_tree_impl"* @_ZNSt8_Rb_treeIjSt4pairIKjS0_IjjEESt10_Select1stIS3_ESt4lessIjESaIS3_EE13_Rb_tree_implIS7_Lb0EED2Ev(%"struct.std::_Rb_tree<unsigned int, std::pair<const unsigned int, std::pair<unsigned int, unsigned int> >, std::_Select1st<std::pair<const unsigned int, std::pair<unsigned int, unsigned int> > >, std::less<unsigned int>, std::allocator<std::pair<const unsigned int, std::pair<unsigned int, unsigned int> > > >::_Rb_tree_impl"* %8) #2, !dbg !1814
  ret %"class.std::_Rb_tree"* %4, !dbg !1816

; <label>:10                                      ; preds = %6, %0
  %11 = landingpad { i8*, i32 } personality i8* bitcast (i32 (...)* @__gxx_personality_v0 to i8*)
          cleanup, !dbg !1817
  %12 = extractvalue { i8*, i32 } %11, 0, !dbg !1817
  store i8* %12, i8** %2, !dbg !1817
  %13 = extractvalue { i8*, i32 } %11, 1, !dbg !1817
  store i32 %13, i32* %3, !dbg !1817
  %14 = getelementptr inbounds %"class.std::_Rb_tree"* %4, i32 0, i32 0, !dbg !1816
  %15 = call %"struct.std::_Rb_tree<unsigned int, std::pair<const unsigned int, std::pair<unsigned int, unsigned int> >, std::_Select1st<std::pair<const unsigned int, std::pair<unsigned int, unsigned int> > >, std::less<unsigned int>, std::allocator<std::pair<const unsigned int, std::pair<unsigned int, unsigned int> > > >::_Rb_tree_impl"* @_ZNSt8_Rb_treeIjSt4pairIKjS0_IjjEESt10_Select1stIS3_ESt4lessIjESaIS3_EE13_Rb_tree_implIS7_Lb0EED2Ev(%"struct.std::_Rb_tree<unsigned int, std::pair<const unsigned int, std::pair<unsigned int, unsigned int> >, std::_Select1st<std::pair<const unsigned int, std::pair<unsigned int, unsigned int> > >, std::less<unsigned int>, std::allocator<std::pair<const unsigned int, std::pair<unsigned int, unsigned int> > > >::_Rb_tree_impl"* %14) #2, !dbg !1816
  br label %16, !dbg !1816

; <label>:16                                      ; preds = %10
  %17 = load i8** %2, !dbg !1820
  %18 = load i32* %3, !dbg !1820
  %19 = insertvalue { i8*, i32 } undef, i8* %17, 0, !dbg !1820
  %20 = insertvalue { i8*, i32 } %19, i32 %18, 1, !dbg !1820
  resume { i8*, i32 } %20, !dbg !1820
}

define linkonce_odr void @_ZNSt8_Rb_treeIjSt4pairIKjS0_IjjEESt10_Select1stIS3_ESt4lessIjESaIS3_EE8_M_eraseEPSt13_Rb_tree_nodeIS3_E(%"class.std::_Rb_tree"* %this, %"struct.std::_Rb_tree_node"* %__x) #0 align 2 {
  %1 = alloca %"class.std::_Rb_tree"*, align 4
  %2 = alloca %"struct.std::_Rb_tree_node"*, align 4
  %__y = alloca %"struct.std::_Rb_tree_node"*, align 4
  store %"class.std::_Rb_tree"* %this, %"class.std::_Rb_tree"** %1, align 4
  call void @llvm.dbg.declare(metadata !{%"class.std::_Rb_tree"** %1}, metadata !1822), !dbg !1823
  store %"struct.std::_Rb_tree_node"* %__x, %"struct.std::_Rb_tree_node"** %2, align 4
  call void @llvm.dbg.declare(metadata !{%"struct.std::_Rb_tree_node"** %2}, metadata !1824), !dbg !1825
  %3 = load %"class.std::_Rb_tree"** %1
  br label %4, !dbg !1826

; <label>:4                                       ; preds = %7, %0
  %5 = load %"struct.std::_Rb_tree_node"** %2, align 4, !dbg !1827
  %6 = icmp ne %"struct.std::_Rb_tree_node"* %5, null, !dbg !1827
  br i1 %6, label %7, label %16, !dbg !1827

; <label>:7                                       ; preds = %4
  %8 = load %"struct.std::_Rb_tree_node"** %2, align 4, !dbg !1829
  %9 = bitcast %"struct.std::_Rb_tree_node"* %8 to %"struct.std::_Rb_tree_node_base"*, !dbg !1829
  %10 = call %"struct.std::_Rb_tree_node"* @_ZNSt8_Rb_treeIjSt4pairIKjS0_IjjEESt10_Select1stIS3_ESt4lessIjESaIS3_EE8_S_rightEPSt18_Rb_tree_node_base(%"struct.std::_Rb_tree_node_base"* %9), !dbg !1829
  call void @_ZNSt8_Rb_treeIjSt4pairIKjS0_IjjEESt10_Select1stIS3_ESt4lessIjESaIS3_EE8_M_eraseEPSt13_Rb_tree_nodeIS3_E(%"class.std::_Rb_tree"* %3, %"struct.std::_Rb_tree_node"* %10), !dbg !1831
  call void @llvm.dbg.declare(metadata !{%"struct.std::_Rb_tree_node"** %__y}, metadata !1832), !dbg !1833
  %11 = load %"struct.std::_Rb_tree_node"** %2, align 4, !dbg !1834
  %12 = bitcast %"struct.std::_Rb_tree_node"* %11 to %"struct.std::_Rb_tree_node_base"*, !dbg !1834
  %13 = call %"struct.std::_Rb_tree_node"* @_ZNSt8_Rb_treeIjSt4pairIKjS0_IjjEESt10_Select1stIS3_ESt4lessIjESaIS3_EE7_S_leftEPSt18_Rb_tree_node_base(%"struct.std::_Rb_tree_node_base"* %12), !dbg !1834
  store %"struct.std::_Rb_tree_node"* %13, %"struct.std::_Rb_tree_node"** %__y, align 4, !dbg !1834
  %14 = load %"struct.std::_Rb_tree_node"** %2, align 4, !dbg !1835
  call void @_ZNSt8_Rb_treeIjSt4pairIKjS0_IjjEESt10_Select1stIS3_ESt4lessIjESaIS3_EE15_M_destroy_nodeEPSt13_Rb_tree_nodeIS3_E(%"class.std::_Rb_tree"* %3, %"struct.std::_Rb_tree_node"* %14), !dbg !1835
  %15 = load %"struct.std::_Rb_tree_node"** %__y, align 4, !dbg !1836
  store %"struct.std::_Rb_tree_node"* %15, %"struct.std::_Rb_tree_node"** %2, align 4, !dbg !1836
  br label %4, !dbg !1837

; <label>:16                                      ; preds = %4
  ret void, !dbg !1838
}

; Function Attrs: inlinehint nounwind
define linkonce_odr %"struct.std::_Rb_tree<unsigned int, std::pair<const unsigned int, std::pair<unsigned int, unsigned int> >, std::_Select1st<std::pair<const unsigned int, std::pair<unsigned int, unsigned int> > >, std::less<unsigned int>, std::allocator<std::pair<const unsigned int, std::pair<unsigned int, unsigned int> > > >::_Rb_tree_impl"* @_ZNSt8_Rb_treeIjSt4pairIKjS0_IjjEESt10_Select1stIS3_ESt4lessIjESaIS3_EE13_Rb_tree_implIS7_Lb0EED2Ev(%"struct.std::_Rb_tree<unsigned int, std::pair<const unsigned int, std::pair<unsigned int, unsigned int> >, std::_Select1st<std::pair<const unsigned int, std::pair<unsigned int, unsigned int> > >, std::less<unsigned int>, std::allocator<std::pair<const unsigned int, std::pair<unsigned int, unsigned int> > > >::_Rb_tree_impl"* returned %this) unnamed_addr #6 align 2 {
  %1 = alloca %"struct.std::_Rb_tree<unsigned int, std::pair<const unsigned int, std::pair<unsigned int, unsigned int> >, std::_Select1st<std::pair<const unsigned int, std::pair<unsigned int, unsigned int> > >, std::less<unsigned int>, std::allocator<std::pair<const unsigned int, std::pair<unsigned int, unsigned int> > > >::_Rb_tree_impl"*, align 4
  store %"struct.std::_Rb_tree<unsigned int, std::pair<const unsigned int, std::pair<unsigned int, unsigned int> >, std::_Select1st<std::pair<const unsigned int, std::pair<unsigned int, unsigned int> > >, std::less<unsigned int>, std::allocator<std::pair<const unsigned int, std::pair<unsigned int, unsigned int> > > >::_Rb_tree_impl"* %this, %"struct.std::_Rb_tree<unsigned int, std::pair<const unsigned int, std::pair<unsigned int, unsigned int> >, std::_Select1st<std::pair<const unsigned int, std::pair<unsigned int, unsigned int> > >, std::less<unsigned int>, std::allocator<std::pair<const unsigned int, std::pair<unsigned int, unsigned int> > > >::_Rb_tree_impl"** %1, align 4
  call void @llvm.dbg.declare(metadata !{%"struct.std::_Rb_tree<unsigned int, std::pair<const unsigned int, std::pair<unsigned int, unsigned int> >, std::_Select1st<std::pair<const unsigned int, std::pair<unsigned int, unsigned int> > >, std::less<unsigned int>, std::allocator<std::pair<const unsigned int, std::pair<unsigned int, unsigned int> > > >::_Rb_tree_impl"** %1}, metadata !1839), !dbg !1840
  %2 = load %"struct.std::_Rb_tree<unsigned int, std::pair<const unsigned int, std::pair<unsigned int, unsigned int> >, std::_Select1st<std::pair<const unsigned int, std::pair<unsigned int, unsigned int> > >, std::less<unsigned int>, std::allocator<std::pair<const unsigned int, std::pair<unsigned int, unsigned int> > > >::_Rb_tree_impl"** %1
  %3 = bitcast %"struct.std::_Rb_tree<unsigned int, std::pair<const unsigned int, std::pair<unsigned int, unsigned int> >, std::_Select1st<std::pair<const unsigned int, std::pair<unsigned int, unsigned int> > >, std::less<unsigned int>, std::allocator<std::pair<const unsigned int, std::pair<unsigned int, unsigned int> > > >::_Rb_tree_impl"* %2 to %"class.std::allocator"*, !dbg !1841
  %4 = call %"class.std::allocator"* @_ZNSaISt13_Rb_tree_nodeISt4pairIKjS0_IjjEEEED2Ev(%"class.std::allocator"* %3) #2, !dbg !1841
  ret %"struct.std::_Rb_tree<unsigned int, std::pair<const unsigned int, std::pair<unsigned int, unsigned int> >, std::_Select1st<std::pair<const unsigned int, std::pair<unsigned int, unsigned int> > >, std::less<unsigned int>, std::allocator<std::pair<const unsigned int, std::pair<unsigned int, unsigned int> > > >::_Rb_tree_impl"* %2, !dbg !1843
}

define linkonce_odr void @_ZNSt8_Rb_treeIjSt4pairIKjS0_IjjEESt10_Select1stIS3_ESt4lessIjESaIS3_EE15_M_destroy_nodeEPSt13_Rb_tree_nodeIS3_E(%"class.std::_Rb_tree"* %this, %"struct.std::_Rb_tree_node"* %__p) #0 align 2 {
  %1 = alloca %"class.std::_Rb_tree"*, align 4
  %2 = alloca %"struct.std::_Rb_tree_node"*, align 4
  %3 = alloca %"class.std::allocator.2", align 1
  %4 = alloca i8*
  %5 = alloca i32
  store %"class.std::_Rb_tree"* %this, %"class.std::_Rb_tree"** %1, align 4
  call void @llvm.dbg.declare(metadata !{%"class.std::_Rb_tree"** %1}, metadata !1844), !dbg !1845
  store %"struct.std::_Rb_tree_node"* %__p, %"struct.std::_Rb_tree_node"** %2, align 4
  call void @llvm.dbg.declare(metadata !{%"struct.std::_Rb_tree_node"** %2}, metadata !1846), !dbg !1847
  %6 = load %"class.std::_Rb_tree"** %1
  call void @_ZNKSt8_Rb_treeIjSt4pairIKjS0_IjjEESt10_Select1stIS3_ESt4lessIjESaIS3_EE13get_allocatorEv(%"class.std::allocator.2"* sret %3, %"class.std::_Rb_tree"* %6), !dbg !1848
  %7 = bitcast %"class.std::allocator.2"* %3 to %"class.__gnu_cxx::new_allocator.3"*, !dbg !1848
  %8 = load %"struct.std::_Rb_tree_node"** %2, align 4, !dbg !1849
  %9 = invoke %"struct.std::pair.0"* @_ZNSt13_Rb_tree_nodeISt4pairIKjS0_IjjEEE9_M_valptrEv(%"struct.std::_Rb_tree_node"* %8)
          to label %10 unwind label %14, !dbg !1849

; <label>:10                                      ; preds = %0
  invoke void @_ZN9__gnu_cxx13new_allocatorISt4pairIKjS1_IjjEEE7destroyEPS4_(%"class.__gnu_cxx::new_allocator.3"* %7, %"struct.std::pair.0"* %9)
          to label %11 unwind label %14, !dbg !1850

; <label>:11                                      ; preds = %10
  %12 = call %"class.std::allocator.2"* @_ZNSaISt4pairIKjS_IjjEEED2Ev(%"class.std::allocator.2"* %3) #2, !dbg !1852
  %13 = load %"struct.std::_Rb_tree_node"** %2, align 4, !dbg !1854
  call void @_ZNSt8_Rb_treeIjSt4pairIKjS0_IjjEESt10_Select1stIS3_ESt4lessIjESaIS3_EE11_M_put_nodeEPSt13_Rb_tree_nodeIS3_E(%"class.std::_Rb_tree"* %6, %"struct.std::_Rb_tree_node"* %13), !dbg !1854
  ret void, !dbg !1855

; <label>:14                                      ; preds = %10, %0
  %15 = landingpad { i8*, i32 } personality i8* bitcast (i32 (...)* @__gxx_personality_v0 to i8*)
          cleanup, !dbg !1855
  %16 = extractvalue { i8*, i32 } %15, 0, !dbg !1855
  store i8* %16, i8** %4, !dbg !1855
  %17 = extractvalue { i8*, i32 } %15, 1, !dbg !1855
  store i32 %17, i32* %5, !dbg !1855
  %18 = call %"class.std::allocator.2"* @_ZNSaISt4pairIKjS_IjjEEED2Ev(%"class.std::allocator.2"* %3) #2, !dbg !1855
  br label %19, !dbg !1855

; <label>:19                                      ; preds = %14
  %20 = load i8** %4, !dbg !1856
  %21 = load i32* %5, !dbg !1856
  %22 = insertvalue { i8*, i32 } undef, i8* %20, 0, !dbg !1856
  %23 = insertvalue { i8*, i32 } %22, i32 %21, 1, !dbg !1856
  resume { i8*, i32 } %23, !dbg !1856
}

; Function Attrs: nounwind
define linkonce_odr void @_ZN9__gnu_cxx13new_allocatorISt4pairIKjS1_IjjEEE7destroyEPS4_(%"class.__gnu_cxx::new_allocator.3"* %this, %"struct.std::pair.0"* %__p) #3 align 2 {
  %1 = alloca %"class.__gnu_cxx::new_allocator.3"*, align 4
  %2 = alloca %"struct.std::pair.0"*, align 4
  store %"class.__gnu_cxx::new_allocator.3"* %this, %"class.__gnu_cxx::new_allocator.3"** %1, align 4
  call void @llvm.dbg.declare(metadata !{%"class.__gnu_cxx::new_allocator.3"** %1}, metadata !1858), !dbg !1859
  store %"struct.std::pair.0"* %__p, %"struct.std::pair.0"** %2, align 4
  call void @llvm.dbg.declare(metadata !{%"struct.std::pair.0"** %2}, metadata !1860), !dbg !1861
  %3 = load %"class.__gnu_cxx::new_allocator.3"** %1
  %4 = load %"struct.std::pair.0"** %2, align 4, !dbg !1862
  ret void, !dbg !1863
}

define internal void @_GLOBAL__sub_I_xillinio.cpp() section ".text.startup" {
  call void @__cxx_global_var_init(), !dbg !1864
  ret void, !dbg !1864
}

attributes #0 = { "less-precise-fpmad"="false" "no-frame-pointer-elim"="true" "no-frame-pointer-elim-non-leaf" "no-infs-fp-math"="false" "no-nans-fp-math"="false" "stack-protector-buffer-size"="8" "unsafe-fp-math"="false" "use-soft-float"="false" }
attributes #1 = { inlinehint "less-precise-fpmad"="false" "no-frame-pointer-elim"="true" "no-frame-pointer-elim-non-leaf" "no-infs-fp-math"="false" "no-nans-fp-math"="false" "stack-protector-buffer-size"="8" "unsafe-fp-math"="false" "use-soft-float"="false" }
attributes #2 = { nounwind }
attributes #3 = { nounwind "less-precise-fpmad"="false" "no-frame-pointer-elim"="true" "no-frame-pointer-elim-non-leaf" "no-infs-fp-math"="false" "no-nans-fp-math"="false" "stack-protector-buffer-size"="8" "unsafe-fp-math"="false" "use-soft-float"="false" }
attributes #4 = { nounwind readnone }
attributes #5 = { nobuiltin nounwind "less-precise-fpmad"="false" "no-frame-pointer-elim"="true" "no-frame-pointer-elim-non-leaf" "no-infs-fp-math"="false" "no-nans-fp-math"="false" "stack-protector-buffer-size"="8" "unsafe-fp-math"="false" "use-soft-float"="false" }
attributes #6 = { inlinehint nounwind "less-precise-fpmad"="false" "no-frame-pointer-elim"="true" "no-frame-pointer-elim-non-leaf" "no-infs-fp-math"="false" "no-nans-fp-math"="false" "stack-protector-buffer-size"="8" "unsafe-fp-math"="false" "use-soft-float"="false" }
attributes #7 = { nounwind readonly "less-precise-fpmad"="false" "no-frame-pointer-elim"="true" "no-frame-pointer-elim-non-leaf" "no-infs-fp-math"="false" "no-nans-fp-math"="false" "stack-protector-buffer-size"="8" "unsafe-fp-math"="false" "use-soft-float"="false" }
attributes #8 = { noinline noreturn nounwind }
attributes #9 = { noreturn "less-precise-fpmad"="false" "no-frame-pointer-elim"="true" "no-frame-pointer-elim-non-leaf" "no-infs-fp-math"="false" "no-nans-fp-math"="false" "stack-protector-buffer-size"="8" "unsafe-fp-math"="false" "use-soft-float"="false" }
attributes #10 = { nobuiltin "less-precise-fpmad"="false" "no-frame-pointer-elim"="true" "no-frame-pointer-elim-non-leaf" "no-infs-fp-math"="false" "no-nans-fp-math"="false" "stack-protector-buffer-size"="8" "unsafe-fp-math"="false" "use-soft-float"="false" }
attributes #11 = { nounwind readonly }
attributes #12 = { builtin nounwind }
attributes #13 = { noreturn }
attributes #14 = { noreturn nounwind }

!llvm.dbg.cu = !{!0}
!xidane.function_declaration_type = !{!958, !959, !960, !959, !961, !959, !962, !963, !964, !965, !966, !967, !968, !969, !970, !971, !972, !973, !974, !975, !976, !977, !978, !979, !980, !981, !982, !983, !984, !985, !986, !959, !987, !979, !988, !989, !990, !991, !992, !959, !993, !994, !995, !996, !997, !959, !998, !999, !1000, !1001, !1002, !1003, !1004, !1005, !1006, !979, !1007, !1008, !1007, !1008, !1009, !1010, !1009, !1010, !1011, !979, !1012, !975, !1013, !1014, !1015, !1016, !1017, !1016, !1018, !977, !1019, !1020, !1021, !1022, !1023, !1024, !1025, !1026, !1027, !1028, !1029, !1030, !1031, !1032, !1033, !1034, !1035, !1034, !1036, !1037, !1038, !975, !1039, !1040, !1041, !1042, !1043, !1044, !1045, !959, !1046, !1047, !1046, !1047, !1045, !959, !1048, !1049, !1050, !1051, !1050, !1051, !1052, !1053, !1054, !1055, !1056, !1057, !1058, !1059, !1060, !1016, !1061, !1062, !1063, !1064, !1065, !959, !1066, !1008, !1067, !1068, !1069, !1070, !1071, !1072, !1065, !959, !1073, !959, !1074, !1075, !1076, !1077, !1076, !1077, !1078, !959, !1079, !1080, !1081, !1082, !1083, !1084, !1085, !959, !1086, !1087, !1088, !979, !1089, !1084, !1090, !1091, !1092, !1093, !1094, !1095, !1096, !1091, !1097, !991, !1098, !1005, !1092, !1093, !1099, !1100, !1101, !975, !958, !959, !1102, !959, !1102, !959, !1103, !959, !1103, !959, !1104, !959, !1105, !959, !1106, !959, !1107, !959, !1108, !959, !960, !959, !1109, !959, !1109, !959, !1110, !1008, !1111, !959, !1111, !959, !1112, !1008, !1113, !1114}
!xidane.function_declaration_filename = !{!958, !1115, !960, !1115, !961, !1116, !962, !1116, !964, !1115, !966, !1116, !968, !1116, !970, !1117, !972, !1118, !974, !1115, !976, !1119, !978, !1115, !980, !1120, !982, !1121, !984, !1116, !986, !1116, !987, !1115, !988, !1119, !990, !1119, !992, !1116, !993, !1122, !995, !1120, !997, !1116, !1000, !1119, !1002, !1123, !1004, !1119, !1006, !1119, !1007, !1119, !1007, !1119, !1009, !1121, !1009, !1121, !1011, !1119, !1012, !1119, !1013, !1119, !1015, !1119, !1017, !1119, !1018, !1119, !1019, !1124, !1021, !1119, !1023, !1124, !1025, !1119, !1027, !1119, !1029, !1123, !1031, !1119, !1033, !1119, !1035, !1119, !1036, !1119, !1038, !1115, !1039, !1115, !1041, !1119, !1043, !1115, !1045, !1121, !1046, !1121, !1046, !1121, !1045, !1121, !1048, !1119, !1050, !1119, !1050, !1119, !1052, !1119, !1054, !1119, !1056, !1119, !1058, !1119, !1060, !1119, !1061, !1119, !1063, !1125, !1065, !1126, !1066, !1119, !1067, !1127, !1069, !1119, !1071, !1125, !1065, !1126, !1073, !1125, !1074, !1119, !1076, !1126, !1076, !1126, !1078, !1125, !1079, !1127, !1081, !1125, !1083, !1125, !1085, !1128, !1088, !1119, !1089, !1119, !1090, !1119, !1092, !1121, !1094, !1119, !1096, !1119, !1097, !1119, !1098, !1119, !1092, !1121, !1099, !1119, !1101, !1119, !958, !1115, !1102, !1119, !1102, !1119, !1103, !1119, !1103, !1119, !1104, !1126, !1105, !1119, !1106, !1126, !1107, !1125, !1108, !1125, !960, !1115, !1109, !1119, !1109, !1119, !1110, !1119, !1111, !1119, !1111, !1119, !1112, !1119, !1113, !1125}
!xidane.ExternC = !{!970, !972, !980, !993, !995}
!llvm.module.flags = !{!1129, !1130, !1131, !1132}
!llvm.ident = !{!1133}

!0 = metadata !{i32 786449, metadata !1, i32 4, metadata !"clang version 3.5.0 (tags/RELEASE_350/final)", i1 false, metadata !"", i32 0, metadata !2, metadata !10, metadata !827, metadata !934, metadata !937, metadata !"", i32 1} ; [ DW_TAG_compile_unit ] [/home/vgr16/nfshome/face_with_corner/SDRelease//home/vgr16/nfshome/face_with_corner/src/xillinio/xillinio.cpp] [DW_LANG_C_plus_plus]
!1 = metadata !{metadata !"/home/vgr16/nfshome/face_with_corner/src/xillinio/xillinio.cpp", metadata !"/home/vgr16/nfshome/face_with_corner/SDRelease"}
!2 = metadata !{metadata !3}
!3 = metadata !{i32 786436, metadata !4, metadata !5, metadata !"_Rb_tree_color", i32 90, i64 32, i64 32, i32 0, i32 0, null, metadata !7, i32 0, null, null, metadata !"_ZTSSt14_Rb_tree_color"} ; [ DW_TAG_enumeration_type ] [_Rb_tree_color] [line 90, size 32, align 32, offset 0] [def] [from ]
!4 = metadata !{metadata !"/usr/local/Xilinx/SDSoC/2015.4/SDK/2015.4/gnu/arm/lin/arm-xilinx-linux-gnueabi/include/c++/4.9.2/bits/stl_tree.h", metadata !"/home/vgr16/nfshome/face_with_corner/SDRelease"}
!5 = metadata !{i32 786489, metadata !6, null, metadata !"std", i32 186} ; [ DW_TAG_namespace ] [std] [line 186]
!6 = metadata !{metadata !"/usr/local/Xilinx/SDSoC/2015.4/SDK/2015.4/gnu/arm/lin/arm-xilinx-linux-gnueabi/include/c++/4.9.2/arm-xilinx-linux-gnueabi/bits/c++config.h", metadata !"/home/vgr16/nfshome/face_with_corner/SDRelease"}
!7 = metadata !{metadata !8, metadata !9}
!8 = metadata !{i32 786472, metadata !"_S_red", i64 0} ; [ DW_TAG_enumerator ] [_S_red :: 0]
!9 = metadata !{i32 786472, metadata !"_S_black", i64 1} ; [ DW_TAG_enumerator ] [_S_black :: 1]
!10 = metadata !{metadata !11, metadata !13, metadata !15, metadata !17, metadata !22, metadata !27, metadata !67, metadata !204, metadata !220, metadata !230, metadata !236, metadata !252, metadata !268, metadata !317, metadata !560, metadata !577, metadata !594, metadata !609, metadata !622, metadata !662, metadata !665, metadata !691, metadata !692, metadata !3, metadata !415, metadata !708, metadata !755, metadata !793, metadata !795, metadata !149, metadata !194, metadata !198, metadata !177, metadata !796, metadata !800}
!11 = metadata !{i32 786451, metadata !12, null, metadata !"_IO_FILE", i32 245, i64 0, i64 0, i32 0, i32 4, null, null, i32 0, null, null, metadata !"_ZTS8_IO_FILE"} ; [ DW_TAG_structure_type ] [_IO_FILE] [line 245, size 0, align 0, offset 0] [decl] [from ]
!12 = metadata !{metadata !"/usr/local/Xilinx/SDSoC/2015.4/SDK/2015.4/gnu/arm/lin/arm-xilinx-linux-gnueabi/libc/usr/include/libio.h", metadata !"/home/vgr16/nfshome/face_with_corner/SDRelease"}
!13 = metadata !{i32 786451, metadata !14, null, metadata !"", i32 21, i64 0, i64 0, i32 0, i32 4, null, null, i32 0, null, null, metadata !"_ZTS9_G_fpos_t"} ; [ DW_TAG_structure_type ] [line 21, size 0, align 0, offset 0] [decl] [from ]
!14 = metadata !{metadata !"/usr/local/Xilinx/SDSoC/2015.4/SDK/2015.4/gnu/arm/lin/arm-xilinx-linux-gnueabi/libc/usr/include/_G_config.h", metadata !"/home/vgr16/nfshome/face_with_corner/SDRelease"}
!15 = metadata !{i32 786451, metadata !16, null, metadata !"", i32 97, i64 0, i64 0, i32 0, i32 4, null, null, i32 0, null, null, metadata !"_ZTS5div_t"} ; [ DW_TAG_structure_type ] [line 97, size 0, align 0, offset 0] [decl] [from ]
!16 = metadata !{metadata !"/usr/local/Xilinx/SDSoC/2015.4/SDK/2015.4/gnu/arm/lin/arm-xilinx-linux-gnueabi/libc/usr/include/stdlib.h", metadata !"/home/vgr16/nfshome/face_with_corner/SDRelease"}
!17 = metadata !{i32 786451, metadata !16, null, metadata !"", i32 105, i64 64, i64 32, i32 0, i32 0, null, metadata !18, i32 0, null, null, metadata !"_ZTS6ldiv_t"} ; [ DW_TAG_structure_type ] [line 105, size 64, align 32, offset 0] [def] [from ]
!18 = metadata !{metadata !19, metadata !21}
!19 = metadata !{i32 786445, metadata !16, metadata !"_ZTS6ldiv_t", metadata !"quot", i32 107, i64 32, i64 32, i64 0, i32 0, metadata !20} ; [ DW_TAG_member ] [quot] [line 107, size 32, align 32, offset 0] [from long int]
!20 = metadata !{i32 786468, null, null, metadata !"long int", i32 0, i64 32, i64 32, i64 0, i32 0, i32 5} ; [ DW_TAG_base_type ] [long int] [line 0, size 32, align 32, offset 0, enc DW_ATE_signed]
!21 = metadata !{i32 786445, metadata !16, metadata !"_ZTS6ldiv_t", metadata !"rem", i32 108, i64 32, i64 32, i64 32, i32 0, metadata !20} ; [ DW_TAG_member ] [rem] [line 108, size 32, align 32, offset 32] [from long int]
!22 = metadata !{i32 786451, metadata !16, null, metadata !"", i32 117, i64 128, i64 64, i32 0, i32 0, null, metadata !23, i32 0, null, null, metadata !"_ZTS7lldiv_t"} ; [ DW_TAG_structure_type ] [line 117, size 128, align 64, offset 0] [def] [from ]
!23 = metadata !{metadata !24, metadata !26}
!24 = metadata !{i32 786445, metadata !16, metadata !"_ZTS7lldiv_t", metadata !"quot", i32 119, i64 64, i64 64, i64 0, i32 0, metadata !25} ; [ DW_TAG_member ] [quot] [line 119, size 64, align 64, offset 0] [from long long int]
!25 = metadata !{i32 786468, null, null, metadata !"long long int", i32 0, i64 64, i64 64, i64 0, i32 0, i32 5} ; [ DW_TAG_base_type ] [long long int] [line 0, size 64, align 64, offset 0, enc DW_ATE_signed]
!26 = metadata !{i32 786445, metadata !16, metadata !"_ZTS7lldiv_t", metadata !"rem", i32 120, i64 64, i64 64, i64 64, i32 0, metadata !25} ; [ DW_TAG_member ] [rem] [line 120, size 64, align 64, offset 64] [from long long int]
!27 = metadata !{i32 786434, metadata !28, null, metadata !"xil_lin_io", i32 33, i64 32, i64 32, i32 0, i32 0, null, metadata !29, i32 0, metadata !"_ZTS10xil_lin_io", null, metadata !"_ZTS10xil_lin_io"} ; [ DW_TAG_class_type ] [xil_lin_io] [line 33, size 32, align 32, offset 0] [def] [from ]
!28 = metadata !{metadata !"../src/xillinio/xillinio.h", metadata !"/home/vgr16/nfshome/face_with_corner/SDRelease"}
!29 = metadata !{metadata !30, metadata !37, metadata !38, metadata !39, metadata !45, metadata !48, metadata !55, metadata !60, metadata !63, metadata !66}
!30 = metadata !{i32 786445, metadata !28, metadata !31, metadata !"_vptr$xil_lin_io", i32 0, i64 32, i64 0, i64 0, i32 64, metadata !32} ; [ DW_TAG_member ] [_vptr$xil_lin_io] [line 0, size 32, align 0, offset 0] [artificial] [from ]
!31 = metadata !{i32 786473, metadata !28}        ; [ DW_TAG_file_type ] [/home/vgr16/nfshome/face_with_corner/SDRelease/../src/xillinio/xillinio.h]
!32 = metadata !{i32 786447, null, null, metadata !"", i32 0, i64 32, i64 0, i64 0, i32 0, metadata !33} ; [ DW_TAG_pointer_type ] [line 0, size 32, align 0, offset 0] [from __vtbl_ptr_type]
!33 = metadata !{i32 786447, null, null, metadata !"__vtbl_ptr_type", i32 0, i64 32, i64 0, i64 0, i32 0, metadata !34} ; [ DW_TAG_pointer_type ] [__vtbl_ptr_type] [line 0, size 32, align 0, offset 0] [from ]
!34 = metadata !{i32 786453, i32 0, null, metadata !"", i32 0, i64 0, i64 0, i64 0, i32 0, null, metadata !35, i32 0, null, null, null} ; [ DW_TAG_subroutine_type ] [line 0, size 0, align 0, offset 0] [from ]
!35 = metadata !{metadata !36}
!36 = metadata !{i32 786468, null, null, metadata !"int", i32 0, i64 32, i64 32, i64 0, i32 0, i32 5} ; [ DW_TAG_base_type ] [int] [line 0, size 32, align 32, offset 0, enc DW_ATE_signed]
!37 = metadata !{i32 786445, metadata !1, metadata !"_ZTS10xil_lin_io", metadata !"pToV", i32 23, i64 0, i64 0, i64 0, i32 4096, metadata !"_ZTSSt3mapIjSt4pairIjjESt4lessIjESaIS0_IKjS1_EEE", null} ; [ DW_TAG_member ] [pToV] [line 23, size 0, align 0, offset 0] [static] [from _ZTSSt3mapIjSt4pairIjjESt4lessIjESaIS0_IKjS1_EEE]
!38 = metadata !{i32 786445, metadata !1, metadata !"_ZTS10xil_lin_io", metadata !"fd", i32 24, i64 0, i64 0, i64 0, i32 4097, metadata !36, i32 -1} ; [ DW_TAG_member ] [fd] [line 24, size 0, align 0, offset 0] [private] [static] [from int]
!39 = metadata !{i32 786478, metadata !28, metadata !"_ZTS10xil_lin_io", metadata !"Xil_In32", metadata !"Xil_In32", metadata !"_ZN10xil_lin_io8Xil_In32Ejj", i32 45, metadata !40, i1 false, i1 false, i32 0, i32 0, null, i32 256, i1 false, null, null, i32 0, null, i32 45} ; [ DW_TAG_subprogram ] [line 45] [Xil_In32]
!40 = metadata !{i32 786453, i32 0, null, metadata !"", i32 0, i64 0, i64 0, i64 0, i32 0, null, metadata !41, i32 0, null, null, null} ; [ DW_TAG_subroutine_type ] [line 0, size 0, align 0, offset 0] [from ]
!41 = metadata !{metadata !42, metadata !42, metadata !42}
!42 = metadata !{i32 786454, metadata !43, null, metadata !"u_int32_t", i32 202, i64 0, i64 0, i64 0, i32 0, metadata !44} ; [ DW_TAG_typedef ] [u_int32_t] [line 202, size 0, align 0, offset 0] [from unsigned int]
!43 = metadata !{metadata !"/usr/local/Xilinx/SDSoC/2015.4/SDK/2015.4/gnu/arm/lin/arm-xilinx-linux-gnueabi/libc/usr/include/sys/types.h", metadata !"/home/vgr16/nfshome/face_with_corner/SDRelease"}
!44 = metadata !{i32 786468, null, null, metadata !"unsigned int", i32 0, i64 32, i64 32, i64 0, i32 0, i32 7} ; [ DW_TAG_base_type ] [unsigned int] [line 0, size 32, align 32, offset 0, enc DW_ATE_unsigned]
!45 = metadata !{i32 786478, metadata !28, metadata !"_ZTS10xil_lin_io", metadata !"Xil_Out32", metadata !"Xil_Out32", metadata !"_ZN10xil_lin_io9Xil_Out32Ejjj", i32 53, metadata !46, i1 false, i1 false, i32 0, i32 0, null, i32 256, i1 false, null, null, i32 0, null, i32 53} ; [ DW_TAG_subprogram ] [line 53] [Xil_Out32]
!46 = metadata !{i32 786453, i32 0, null, metadata !"", i32 0, i64 0, i64 0, i64 0, i32 0, null, metadata !47, i32 0, null, null, null} ; [ DW_TAG_subroutine_type ] [line 0, size 0, align 0, offset 0] [from ]
!47 = metadata !{null, metadata !42, metadata !42, metadata !42}
!48 = metadata !{i32 786478, metadata !28, metadata !"_ZTS10xil_lin_io", metadata !"mapAddAddr", metadata !"mapAddAddr", metadata !"_ZN10xil_lin_io10mapAddAddrEjj", i32 62, metadata !49, i1 false, i1 false, i32 0, i32 0, null, i32 256, i1 false, null, null, i32 0, null, i32 62} ; [ DW_TAG_subprogram ] [line 62] [mapAddAddr]
!49 = metadata !{i32 786453, i32 0, null, metadata !"", i32 0, i64 0, i64 0, i64 0, i32 0, null, metadata !50, i32 0, null, null, null} ; [ DW_TAG_subroutine_type ] [line 0, size 0, align 0, offset 0] [from ]
!50 = metadata !{metadata !51, metadata !52, metadata !42, metadata !53}
!51 = metadata !{i32 786454, metadata !43, null, metadata !"int32_t", i32 196, i64 0, i64 0, i64 0, i32 0, metadata !36} ; [ DW_TAG_typedef ] [int32_t] [line 196, size 0, align 0, offset 0] [from int]
!52 = metadata !{i32 786447, null, null, metadata !"", i32 0, i64 32, i64 32, i64 0, i32 1088, metadata !"_ZTS10xil_lin_io"} ; [ DW_TAG_pointer_type ] [line 0, size 32, align 32, offset 0] [artificial] [from _ZTS10xil_lin_io]
!53 = metadata !{i32 786454, metadata !54, null, metadata !"size_t", i32 212, i64 0, i64 0, i64 0, i32 0, metadata !44} ; [ DW_TAG_typedef ] [size_t] [line 212, size 0, align 0, offset 0] [from unsigned int]
!54 = metadata !{metadata !"/usr/local/Xilinx/SDSoC/2015.4/SDK/2015.4/gnu/arm/lin/lib/gcc/arm-xilinx-linux-gnueabi/4.9.2/include/stddef.h", metadata !"/home/vgr16/nfshome/face_with_corner/SDRelease"}
!55 = metadata !{i32 786478, metadata !28, metadata !"_ZTS10xil_lin_io", metadata !"getVirtAddr", metadata !"getVirtAddr", metadata !"_ZNK10xil_lin_io11getVirtAddrEj", i32 69, metadata !56, i1 false, i1 false, i32 0, i32 0, null, i32 256, i1 false, null, null, i32 0, null, i32 69} ; [ DW_TAG_subprogram ] [line 69] [getVirtAddr]
!56 = metadata !{i32 786453, i32 0, null, metadata !"", i32 0, i64 0, i64 0, i64 0, i32 0, null, metadata !57, i32 0, null, null, null} ; [ DW_TAG_subroutine_type ] [line 0, size 0, align 0, offset 0] [from ]
!57 = metadata !{metadata !42, metadata !58, metadata !42}
!58 = metadata !{i32 786447, null, null, metadata !"", i32 0, i64 32, i64 32, i64 0, i32 1088, metadata !59} ; [ DW_TAG_pointer_type ] [line 0, size 32, align 32, offset 0] [artificial] [from ]
!59 = metadata !{i32 786470, null, null, metadata !"", i32 0, i64 0, i64 0, i64 0, i32 0, metadata !"_ZTS10xil_lin_io"} ; [ DW_TAG_const_type ] [line 0, size 0, align 0, offset 0] [from _ZTS10xil_lin_io]
!60 = metadata !{i32 786478, metadata !28, metadata !"_ZTS10xil_lin_io", metadata !"printMap", metadata !"printMap", metadata !"_ZNK10xil_lin_io8printMapEv", i32 74, metadata !61, i1 false, i1 false, i32 0, i32 0, null, i32 256, i1 false, null, null, i32 0, null, i32 74} ; [ DW_TAG_subprogram ] [line 74] [printMap]
!61 = metadata !{i32 786453, i32 0, null, metadata !"", i32 0, i64 0, i64 0, i64 0, i32 0, null, metadata !62, i32 0, null, null, null} ; [ DW_TAG_subroutine_type ] [line 0, size 0, align 0, offset 0] [from ]
!62 = metadata !{null, metadata !58}
!63 = metadata !{i32 786478, metadata !28, metadata !"_ZTS10xil_lin_io", metadata !"xil_lin_io", metadata !"xil_lin_io", metadata !"", i32 79, metadata !64, i1 false, i1 false, i32 0, i32 0, null, i32 256, i1 false, null, null, i32 0, null, i32 79} ; [ DW_TAG_subprogram ] [line 79] [xil_lin_io]
!64 = metadata !{i32 786453, i32 0, null, metadata !"", i32 0, i64 0, i64 0, i64 0, i32 0, null, metadata !65, i32 0, null, null, null} ; [ DW_TAG_subroutine_type ] [line 0, size 0, align 0, offset 0] [from ]
!65 = metadata !{null, metadata !52}
!66 = metadata !{i32 786478, metadata !28, metadata !"_ZTS10xil_lin_io", metadata !"~xil_lin_io", metadata !"~xil_lin_io", metadata !"", i32 83, metadata !64, i1 false, i1 false, i32 1, i32 0, metadata !"_ZTS10xil_lin_io", i32 256, i1 false, null, null, i32 0, null, i32 83} ; [ DW_TAG_subprogram ] [line 83] [~xil_lin_io]
!67 = metadata !{i32 786434, metadata !68, metadata !5, metadata !"map<unsigned int, std::pair<unsigned int, unsigned int>, std::less<unsigned int>, std::allocator<std::pair<const unsigned int, std::pair<unsigned int, unsigned int> > > >", i32 96, i64 192, i64 32, i32 0, i32 0, null, metadata !69, i32 0, null, metadata !199, metadata !"_ZTSSt3mapIjSt4pairIjjESt4lessIjESaIS0_IKjS1_EEE"} ; [ DW_TAG_class_type ] [map<unsigned int, std::pair<unsigned int, unsigned int>, std::less<unsigned int>, std::allocator<std::pair<const unsigned int, std::pair<unsigned int, unsigned int> > > >] [line 96, size 192, align 32, offset 0] [def] [from ]
!68 = metadata !{metadata !"/usr/local/Xilinx/SDSoC/2015.4/SDK/2015.4/gnu/arm/lin/arm-xilinx-linux-gnueabi/include/c++/4.9.2/bits/stl_map.h", metadata !"/home/vgr16/nfshome/face_with_corner/SDRelease"}
!69 = metadata !{metadata !70, metadata !72, metadata !76, metadata !84, metadata !89, metadata !93, metadata !97, metadata !102, metadata !107, metadata !108, metadata !109, metadata !114, metadata !119, metadata !120, metadata !121, metadata !125, metadata !131, metadata !132, metadata !140, metadata !141, metadata !146, metadata !154, metadata !157, metadata !160, metadata !163, metadata !166, metadata !169, metadata !170, metadata !174, metadata !178, metadata !181, metadata !184, metadata !187, metadata !188, metadata !189, metadata !190, metadata !191, metadata !195}
!70 = metadata !{i32 786445, metadata !68, metadata !"_ZTSSt3mapIjSt4pairIjjESt4lessIjESaIS0_IKjS1_EEE", metadata !"_M_t", i32 138, i64 192, i64 32, i64 0, i32 1, metadata !71} ; [ DW_TAG_member ] [_M_t] [line 138, size 192, align 32, offset 0] [private] [from _Rep_type]
!71 = metadata !{i32 786454, metadata !68, metadata !"_ZTSSt3mapIjSt4pairIjjESt4lessIjESaIS0_IKjS1_EEE", metadata !"_Rep_type", i32 135, i64 0, i64 0, i64 0, i32 0, metadata !"_ZTSSt8_Rb_treeIjSt4pairIKjS0_IjjEESt10_Select1stIS3_ESt4lessIjESaIS3_EE"} ; [ DW_TAG_typedef ] [_Rep_type] [line 135, size 0, align 0, offset 0] [from _ZTSSt8_Rb_treeIjSt4pairIKjS0_IjjEESt10_Select1stIS3_ESt4lessIjESaIS3_EE]
!72 = metadata !{i32 786478, metadata !68, metadata !"_ZTSSt3mapIjSt4pairIjjESt4lessIjESaIS0_IKjS1_EEE", metadata !"map", metadata !"map", metadata !"", i32 162, metadata !73, i1 false, i1 false, i32 0, i32 0, null, i32 256, i1 false, null, null, i32 0, null, i32 162} ; [ DW_TAG_subprogram ] [line 162] [map]
!73 = metadata !{i32 786453, i32 0, null, metadata !"", i32 0, i64 0, i64 0, i64 0, i32 0, null, metadata !74, i32 0, null, null, null} ; [ DW_TAG_subroutine_type ] [line 0, size 0, align 0, offset 0] [from ]
!74 = metadata !{null, metadata !75}
!75 = metadata !{i32 786447, null, null, metadata !"", i32 0, i64 32, i64 32, i64 0, i32 1088, metadata !"_ZTSSt3mapIjSt4pairIjjESt4lessIjESaIS0_IKjS1_EEE"} ; [ DW_TAG_pointer_type ] [line 0, size 32, align 32, offset 0] [artificial] [from _ZTSSt3mapIjSt4pairIjjESt4lessIjESaIS0_IKjS1_EEE]
!76 = metadata !{i32 786478, metadata !68, metadata !"_ZTSSt3mapIjSt4pairIjjESt4lessIjESaIS0_IKjS1_EEE", metadata !"map", metadata !"map", metadata !"", i32 171, metadata !77, i1 false, i1 false, i32 0, i32 0, null, i32 384, i1 false, null, null, i32 0, null, i32 171} ; [ DW_TAG_subprogram ] [line 171] [map]
!77 = metadata !{i32 786453, i32 0, null, metadata !"", i32 0, i64 0, i64 0, i64 0, i32 0, null, metadata !78, i32 0, null, null, null} ; [ DW_TAG_subroutine_type ] [line 0, size 0, align 0, offset 0] [from ]
!78 = metadata !{null, metadata !75, metadata !79, metadata !81}
!79 = metadata !{i32 786448, null, null, null, i32 0, i64 0, i64 0, i64 0, i32 0, metadata !80} ; [ DW_TAG_reference_type ] [line 0, size 0, align 0, offset 0] [from ]
!80 = metadata !{i32 786470, null, null, metadata !"", i32 0, i64 0, i64 0, i64 0, i32 0, metadata !"_ZTSSt4lessIjE"} ; [ DW_TAG_const_type ] [line 0, size 0, align 0, offset 0] [from _ZTSSt4lessIjE]
!81 = metadata !{i32 786448, null, null, null, i32 0, i64 0, i64 0, i64 0, i32 0, metadata !82} ; [ DW_TAG_reference_type ] [line 0, size 0, align 0, offset 0] [from ]
!82 = metadata !{i32 786470, null, null, metadata !"", i32 0, i64 0, i64 0, i64 0, i32 0, metadata !83} ; [ DW_TAG_const_type ] [line 0, size 0, align 0, offset 0] [from allocator_type]
!83 = metadata !{i32 786454, metadata !68, metadata !"_ZTSSt3mapIjSt4pairIjjESt4lessIjESaIS0_IKjS1_EEE", metadata !"allocator_type", i32 103, i64 0, i64 0, i64 0, i32 0, metadata !"_ZTSSaISt4pairIKjS_IjjEEE"} ; [ DW_TAG_typedef ] [allocator_type] [line 103, size 0, align 0, offset 0] [from _ZTSSaISt4pairIKjS_IjjEEE]
!84 = metadata !{i32 786478, metadata !68, metadata !"_ZTSSt3mapIjSt4pairIjjESt4lessIjESaIS0_IKjS1_EEE", metadata !"map", metadata !"map", metadata !"", i32 182, metadata !85, i1 false, i1 false, i32 0, i32 0, null, i32 256, i1 false, null, null, i32 0, null, i32 182} ; [ DW_TAG_subprogram ] [line 182] [map]
!85 = metadata !{i32 786453, i32 0, null, metadata !"", i32 0, i64 0, i64 0, i64 0, i32 0, null, metadata !86, i32 0, null, null, null} ; [ DW_TAG_subroutine_type ] [line 0, size 0, align 0, offset 0] [from ]
!86 = metadata !{null, metadata !75, metadata !87}
!87 = metadata !{i32 786448, null, null, null, i32 0, i64 0, i64 0, i64 0, i32 0, metadata !88} ; [ DW_TAG_reference_type ] [line 0, size 0, align 0, offset 0] [from ]
!88 = metadata !{i32 786470, null, null, metadata !"", i32 0, i64 0, i64 0, i64 0, i32 0, metadata !"_ZTSSt3mapIjSt4pairIjjESt4lessIjESaIS0_IKjS1_EEE"} ; [ DW_TAG_const_type ] [line 0, size 0, align 0, offset 0] [from _ZTSSt3mapIjSt4pairIjjESt4lessIjESaIS0_IKjS1_EEE]
!89 = metadata !{i32 786478, metadata !68, metadata !"_ZTSSt3mapIjSt4pairIjjESt4lessIjESaIS0_IKjS1_EEE", metadata !"operator=", metadata !"operator=", metadata !"_ZNSt3mapIjSt4pairIjjESt4lessIjESaIS0_IKjS1_EEEaSERKS7_", i32 293, metadata !90, i1 false, i1 false, i32 0, i32 0, null, i32 256, i1 false, null, null, i32 0, null, i32 293} ; [ DW_TAG_subprogram ] [line 293] [operator=]
!90 = metadata !{i32 786453, i32 0, null, metadata !"", i32 0, i64 0, i64 0, i64 0, i32 0, null, metadata !91, i32 0, null, null, null} ; [ DW_TAG_subroutine_type ] [line 0, size 0, align 0, offset 0] [from ]
!91 = metadata !{metadata !92, metadata !75, metadata !87}
!92 = metadata !{i32 786448, null, null, null, i32 0, i64 0, i64 0, i64 0, i32 0, metadata !"_ZTSSt3mapIjSt4pairIjjESt4lessIjESaIS0_IKjS1_EEE"} ; [ DW_TAG_reference_type ] [line 0, size 0, align 0, offset 0] [from _ZTSSt3mapIjSt4pairIjjESt4lessIjESaIS0_IKjS1_EEE]
!93 = metadata !{i32 786478, metadata !68, metadata !"_ZTSSt3mapIjSt4pairIjjESt4lessIjESaIS0_IKjS1_EEE", metadata !"get_allocator", metadata !"get_allocator", metadata !"_ZNKSt3mapIjSt4pairIjjESt4lessIjESaIS0_IKjS1_EEE13get_allocatorEv", i32 345, metadata !94, i1 false, i1 false, i32 0, i32 0, null, i32 256, i1 false, null, null, i32 0, null, i32 345} ; [ DW_TAG_subprogram ] [line 345] [get_allocator]
!94 = metadata !{i32 786453, i32 0, null, metadata !"", i32 0, i64 0, i64 0, i64 0, i32 0, null, metadata !95, i32 0, null, null, null} ; [ DW_TAG_subroutine_type ] [line 0, size 0, align 0, offset 0] [from ]
!95 = metadata !{metadata !83, metadata !96}
!96 = metadata !{i32 786447, null, null, metadata !"", i32 0, i64 32, i64 32, i64 0, i32 1088, metadata !88} ; [ DW_TAG_pointer_type ] [line 0, size 32, align 32, offset 0] [artificial] [from ]
!97 = metadata !{i32 786478, metadata !68, metadata !"_ZTSSt3mapIjSt4pairIjjESt4lessIjESaIS0_IKjS1_EEE", metadata !"begin", metadata !"begin", metadata !"_ZNSt3mapIjSt4pairIjjESt4lessIjESaIS0_IKjS1_EEE5beginEv", i32 355, metadata !98, i1 false, i1 false, i32 0, i32 0, null, i32 256, i1 false, null, null, i32 0, null, i32 355} ; [ DW_TAG_subprogram ] [line 355] [begin]
!98 = metadata !{i32 786453, i32 0, null, metadata !"", i32 0, i64 0, i64 0, i64 0, i32 0, null, metadata !99, i32 0, null, null, null} ; [ DW_TAG_subroutine_type ] [line 0, size 0, align 0, offset 0] [from ]
!99 = metadata !{metadata !100, metadata !75}
!100 = metadata !{i32 786454, metadata !68, metadata !"_ZTSSt3mapIjSt4pairIjjESt4lessIjESaIS0_IKjS1_EEE", metadata !"iterator", i32 149, i64 0, i64 0, i64 0, i32 0, metadata !101} ; [ DW_TAG_typedef ] [iterator] [line 149, size 0, align 0, offset 0] [from iterator]
!101 = metadata !{i32 786454, metadata !4, metadata !"_ZTSSt8_Rb_treeIjSt4pairIKjS0_IjjEESt10_Select1stIS3_ESt4lessIjESaIS3_EE", metadata !"iterator", i32 584, i64 0, i64 0, i64 0, i32 0, metadata !"_ZTSSt17_Rb_tree_iteratorISt4pairIKjS0_IjjEEE"} ; [ DW_TAG_typedef ] [iterator] [line 584, size 0, align 0, offset 0] [from _ZTSSt17_Rb_tree_iteratorISt4pairIKjS0_IjjEEE]
!102 = metadata !{i32 786478, metadata !68, metadata !"_ZTSSt3mapIjSt4pairIjjESt4lessIjESaIS0_IKjS1_EEE", metadata !"begin", metadata !"begin", metadata !"_ZNKSt3mapIjSt4pairIjjESt4lessIjESaIS0_IKjS1_EEE5beginEv", i32 364, metadata !103, i1 false, i1 false, i32 0, i32 0, null, i32 256, i1 false, null, null, i32 0, null, i32 364} ; [ DW_TAG_subprogram ] [line 364] [begin]
!103 = metadata !{i32 786453, i32 0, null, metadata !"", i32 0, i64 0, i64 0, i64 0, i32 0, null, metadata !104, i32 0, null, null, null} ; [ DW_TAG_subroutine_type ] [line 0, size 0, align 0, offset 0] [from ]
!104 = metadata !{metadata !105, metadata !96}
!105 = metadata !{i32 786454, metadata !68, metadata !"_ZTSSt3mapIjSt4pairIjjESt4lessIjESaIS0_IKjS1_EEE", metadata !"const_iterator", i32 150, i64 0, i64 0, i64 0, i32 0, metadata !106} ; [ DW_TAG_typedef ] [const_iterator] [line 150, size 0, align 0, offset 0] [from const_iterator]
!106 = metadata !{i32 786454, metadata !4, metadata !"_ZTSSt8_Rb_treeIjSt4pairIKjS0_IjjEESt10_Select1stIS3_ESt4lessIjESaIS3_EE", metadata !"const_iterator", i32 585, i64 0, i64 0, i64 0, i32 0, metadata !"_ZTSSt23_Rb_tree_const_iteratorISt4pairIKjS0_IjjEEE"} ; [ DW_TAG_typedef ] [const_iterator] [line 585, size 0, align 0, offset 0] [from _ZTSSt23_Rb_tree_const_iteratorISt4pairIKjS0_IjjEEE]
!107 = metadata !{i32 786478, metadata !68, metadata !"_ZTSSt3mapIjSt4pairIjjESt4lessIjESaIS0_IKjS1_EEE", metadata !"end", metadata !"end", metadata !"_ZNSt3mapIjSt4pairIjjESt4lessIjESaIS0_IKjS1_EEE3endEv", i32 373, metadata !98, i1 false, i1 false, i32 0, i32 0, null, i32 256, i1 false, null, null, i32 0, null, i32 373} ; [ DW_TAG_subprogram ] [line 373] [end]
!108 = metadata !{i32 786478, metadata !68, metadata !"_ZTSSt3mapIjSt4pairIjjESt4lessIjESaIS0_IKjS1_EEE", metadata !"end", metadata !"end", metadata !"_ZNKSt3mapIjSt4pairIjjESt4lessIjESaIS0_IKjS1_EEE3endEv", i32 382, metadata !103, i1 false, i1 false, i32 0, i32 0, null, i32 256, i1 false, null, null, i32 0, null, i32 382} ; [ DW_TAG_subprogram ] [line 382] [end]
!109 = metadata !{i32 786478, metadata !68, metadata !"_ZTSSt3mapIjSt4pairIjjESt4lessIjESaIS0_IKjS1_EEE", metadata !"rbegin", metadata !"rbegin", metadata !"_ZNSt3mapIjSt4pairIjjESt4lessIjESaIS0_IKjS1_EEE6rbeginEv", i32 391, metadata !110, i1 false, i1 false, i32 0, i32 0, null, i32 256, i1 false, null, null, i32 0, null, i32 391} ; [ DW_TAG_subprogram ] [line 391] [rbegin]
!110 = metadata !{i32 786453, i32 0, null, metadata !"", i32 0, i64 0, i64 0, i64 0, i32 0, null, metadata !111, i32 0, null, null, null} ; [ DW_TAG_subroutine_type ] [line 0, size 0, align 0, offset 0] [from ]
!111 = metadata !{metadata !112, metadata !75}
!112 = metadata !{i32 786454, metadata !68, metadata !"_ZTSSt3mapIjSt4pairIjjESt4lessIjESaIS0_IKjS1_EEE", metadata !"reverse_iterator", i32 153, i64 0, i64 0, i64 0, i32 0, metadata !113} ; [ DW_TAG_typedef ] [reverse_iterator] [line 153, size 0, align 0, offset 0] [from reverse_iterator]
!113 = metadata !{i32 786454, metadata !4, metadata !"_ZTSSt8_Rb_treeIjSt4pairIKjS0_IjjEESt10_Select1stIS3_ESt4lessIjESaIS3_EE", metadata !"reverse_iterator", i32 587, i64 0, i64 0, i64 0, i32 0, metadata !"_ZTSSt16reverse_iteratorISt17_Rb_tree_iteratorISt4pairIKjS1_IjjEEEE"} ; [ DW_TAG_typedef ] [reverse_iterator] [line 587, size 0, align 0, offset 0] [from _ZTSSt16reverse_iteratorISt17_Rb_tree_iteratorISt4pairIKjS1_IjjEEEE]
!114 = metadata !{i32 786478, metadata !68, metadata !"_ZTSSt3mapIjSt4pairIjjESt4lessIjESaIS0_IKjS1_EEE", metadata !"rbegin", metadata !"rbegin", metadata !"_ZNKSt3mapIjSt4pairIjjESt4lessIjESaIS0_IKjS1_EEE6rbeginEv", i32 400, metadata !115, i1 false, i1 false, i32 0, i32 0, null, i32 256, i1 false, null, null, i32 0, null, i32 400} ; [ DW_TAG_subprogram ] [line 400] [rbegin]
!115 = metadata !{i32 786453, i32 0, null, metadata !"", i32 0, i64 0, i64 0, i64 0, i32 0, null, metadata !116, i32 0, null, null, null} ; [ DW_TAG_subroutine_type ] [line 0, size 0, align 0, offset 0] [from ]
!116 = metadata !{metadata !117, metadata !96}
!117 = metadata !{i32 786454, metadata !68, metadata !"_ZTSSt3mapIjSt4pairIjjESt4lessIjESaIS0_IKjS1_EEE", metadata !"const_reverse_iterator", i32 154, i64 0, i64 0, i64 0, i32 0, metadata !118} ; [ DW_TAG_typedef ] [const_reverse_iterator] [line 154, size 0, align 0, offset 0] [from const_reverse_iterator]
!118 = metadata !{i32 786454, metadata !4, metadata !"_ZTSSt8_Rb_treeIjSt4pairIKjS0_IjjEESt10_Select1stIS3_ESt4lessIjESaIS3_EE", metadata !"const_reverse_iterator", i32 588, i64 0, i64 0, i64 0, i32 0, metadata !"_ZTSSt16reverse_iteratorISt23_Rb_tree_const_iteratorISt4pairIKjS1_IjjEEEE"} ; [ DW_TAG_typedef ] [const_reverse_iterator] [line 588, size 0, align 0, offset 0] [from _ZTSSt16reverse_iteratorISt23_Rb_tree_const_iteratorISt4pairIKjS1_IjjEEEE]
!119 = metadata !{i32 786478, metadata !68, metadata !"_ZTSSt3mapIjSt4pairIjjESt4lessIjESaIS0_IKjS1_EEE", metadata !"rend", metadata !"rend", metadata !"_ZNSt3mapIjSt4pairIjjESt4lessIjESaIS0_IKjS1_EEE4rendEv", i32 409, metadata !110, i1 false, i1 false, i32 0, i32 0, null, i32 256, i1 false, null, null, i32 0, null, i32 409} ; [ DW_TAG_subprogram ] [line 409] [rend]
!120 = metadata !{i32 786478, metadata !68, metadata !"_ZTSSt3mapIjSt4pairIjjESt4lessIjESaIS0_IKjS1_EEE", metadata !"rend", metadata !"rend", metadata !"_ZNKSt3mapIjSt4pairIjjESt4lessIjESaIS0_IKjS1_EEE4rendEv", i32 418, metadata !115, i1 false, i1 false, i32 0, i32 0, null, i32 256, i1 false, null, null, i32 0, null, i32 418} ; [ DW_TAG_subprogram ] [line 418] [rend]
!121 = metadata !{i32 786478, metadata !68, metadata !"_ZTSSt3mapIjSt4pairIjjESt4lessIjESaIS0_IKjS1_EEE", metadata !"empty", metadata !"empty", metadata !"_ZNKSt3mapIjSt4pairIjjESt4lessIjESaIS0_IKjS1_EEE5emptyEv", i32 464, metadata !122, i1 false, i1 false, i32 0, i32 0, null, i32 256, i1 false, null, null, i32 0, null, i32 464} ; [ DW_TAG_subprogram ] [line 464] [empty]
!122 = metadata !{i32 786453, i32 0, null, metadata !"", i32 0, i64 0, i64 0, i64 0, i32 0, null, metadata !123, i32 0, null, null, null} ; [ DW_TAG_subroutine_type ] [line 0, size 0, align 0, offset 0] [from ]
!123 = metadata !{metadata !124, metadata !96}
!124 = metadata !{i32 786468, null, null, metadata !"bool", i32 0, i64 8, i64 8, i64 0, i32 0, i32 2} ; [ DW_TAG_base_type ] [bool] [line 0, size 8, align 8, offset 0, enc DW_ATE_boolean]
!125 = metadata !{i32 786478, metadata !68, metadata !"_ZTSSt3mapIjSt4pairIjjESt4lessIjESaIS0_IKjS1_EEE", metadata !"size", metadata !"size", metadata !"_ZNKSt3mapIjSt4pairIjjESt4lessIjESaIS0_IKjS1_EEE4sizeEv", i32 469, metadata !126, i1 false, i1 false, i32 0, i32 0, null, i32 256, i1 false, null, null, i32 0, null, i32 469} ; [ DW_TAG_subprogram ] [line 469] [size]
!126 = metadata !{i32 786453, i32 0, null, metadata !"", i32 0, i64 0, i64 0, i64 0, i32 0, null, metadata !127, i32 0, null, null, null} ; [ DW_TAG_subroutine_type ] [line 0, size 0, align 0, offset 0] [from ]
!127 = metadata !{metadata !128, metadata !96}
!128 = metadata !{i32 786454, metadata !68, metadata !"_ZTSSt3mapIjSt4pairIjjESt4lessIjESaIS0_IKjS1_EEE", metadata !"size_type", i32 151, i64 0, i64 0, i64 0, i32 0, metadata !129} ; [ DW_TAG_typedef ] [size_type] [line 151, size 0, align 0, offset 0] [from size_type]
!129 = metadata !{i32 786454, metadata !4, metadata !"_ZTSSt8_Rb_treeIjSt4pairIKjS0_IjjEESt10_Select1stIS3_ESt4lessIjESaIS3_EE", metadata !"size_type", i32 366, i64 0, i64 0, i64 0, i32 0, metadata !130} ; [ DW_TAG_typedef ] [size_type] [line 366, size 0, align 0, offset 0] [from size_t]
!130 = metadata !{i32 786454, metadata !6, metadata !5, metadata !"size_t", i32 188, i64 0, i64 0, i64 0, i32 0, metadata !44} ; [ DW_TAG_typedef ] [size_t] [line 188, size 0, align 0, offset 0] [from unsigned int]
!131 = metadata !{i32 786478, metadata !68, metadata !"_ZTSSt3mapIjSt4pairIjjESt4lessIjESaIS0_IKjS1_EEE", metadata !"max_size", metadata !"max_size", metadata !"_ZNKSt3mapIjSt4pairIjjESt4lessIjESaIS0_IKjS1_EEE8max_sizeEv", i32 474, metadata !126, i1 false, i1 false, i32 0, i32 0, null, i32 256, i1 false, null, null, i32 0, null, i32 474} ; [ DW_TAG_subprogram ] [line 474] [max_size]
!132 = metadata !{i32 786478, metadata !68, metadata !"_ZTSSt3mapIjSt4pairIjjESt4lessIjESaIS0_IKjS1_EEE", metadata !"operator[]", metadata !"operator[]", metadata !"_ZNSt3mapIjSt4pairIjjESt4lessIjESaIS0_IKjS1_EEEixERS4_", i32 491, metadata !133, i1 false, i1 false, i32 0, i32 0, null, i32 256, i1 false, null, null, i32 0, null, i32 491} ; [ DW_TAG_subprogram ] [line 491] [operator[]]
!133 = metadata !{i32 786453, i32 0, null, metadata !"", i32 0, i64 0, i64 0, i64 0, i32 0, null, metadata !134, i32 0, null, null, null} ; [ DW_TAG_subroutine_type ] [line 0, size 0, align 0, offset 0] [from ]
!134 = metadata !{metadata !135, metadata !75, metadata !137}
!135 = metadata !{i32 786448, null, null, null, i32 0, i64 0, i64 0, i64 0, i32 0, metadata !136} ; [ DW_TAG_reference_type ] [line 0, size 0, align 0, offset 0] [from mapped_type]
!136 = metadata !{i32 786454, metadata !68, metadata !"_ZTSSt3mapIjSt4pairIjjESt4lessIjESaIS0_IKjS1_EEE", metadata !"mapped_type", i32 100, i64 0, i64 0, i64 0, i32 0, metadata !"_ZTSSt4pairIjjE"} ; [ DW_TAG_typedef ] [mapped_type] [line 100, size 0, align 0, offset 0] [from _ZTSSt4pairIjjE]
!137 = metadata !{i32 786448, null, null, null, i32 0, i64 0, i64 0, i64 0, i32 0, metadata !138} ; [ DW_TAG_reference_type ] [line 0, size 0, align 0, offset 0] [from ]
!138 = metadata !{i32 786470, null, null, metadata !"", i32 0, i64 0, i64 0, i64 0, i32 0, metadata !139} ; [ DW_TAG_const_type ] [line 0, size 0, align 0, offset 0] [from key_type]
!139 = metadata !{i32 786454, metadata !68, metadata !"_ZTSSt3mapIjSt4pairIjjESt4lessIjESaIS0_IKjS1_EEE", metadata !"key_type", i32 99, i64 0, i64 0, i64 0, i32 0, metadata !44} ; [ DW_TAG_typedef ] [key_type] [line 99, size 0, align 0, offset 0] [from unsigned int]
!140 = metadata !{i32 786478, metadata !68, metadata !"_ZTSSt3mapIjSt4pairIjjESt4lessIjESaIS0_IKjS1_EEE", metadata !"at", metadata !"at", metadata !"_ZNSt3mapIjSt4pairIjjESt4lessIjESaIS0_IKjS1_EEE2atERS4_", i32 536, metadata !133, i1 false, i1 false, i32 0, i32 0, null, i32 256, i1 false, null, null, i32 0, null, i32 536} ; [ DW_TAG_subprogram ] [line 536] [at]
!141 = metadata !{i32 786478, metadata !68, metadata !"_ZTSSt3mapIjSt4pairIjjESt4lessIjESaIS0_IKjS1_EEE", metadata !"at", metadata !"at", metadata !"_ZNKSt3mapIjSt4pairIjjESt4lessIjESaIS0_IKjS1_EEE2atERS4_", i32 545, metadata !142, i1 false, i1 false, i32 0, i32 0, null, i32 256, i1 false, null, null, i32 0, null, i32 545} ; [ DW_TAG_subprogram ] [line 545] [at]
!142 = metadata !{i32 786453, i32 0, null, metadata !"", i32 0, i64 0, i64 0, i64 0, i32 0, null, metadata !143, i32 0, null, null, null} ; [ DW_TAG_subroutine_type ] [line 0, size 0, align 0, offset 0] [from ]
!143 = metadata !{metadata !144, metadata !96, metadata !137}
!144 = metadata !{i32 786448, null, null, null, i32 0, i64 0, i64 0, i64 0, i32 0, metadata !145} ; [ DW_TAG_reference_type ] [line 0, size 0, align 0, offset 0] [from ]
!145 = metadata !{i32 786470, null, null, metadata !"", i32 0, i64 0, i64 0, i64 0, i32 0, metadata !136} ; [ DW_TAG_const_type ] [line 0, size 0, align 0, offset 0] [from mapped_type]
!146 = metadata !{i32 786478, metadata !68, metadata !"_ZTSSt3mapIjSt4pairIjjESt4lessIjESaIS0_IKjS1_EEE", metadata !"insert", metadata !"insert", metadata !"_ZNSt3mapIjSt4pairIjjESt4lessIjESaIS0_IKjS1_EEE6insertERKS5_", i32 629, metadata !147, i1 false, i1 false, i32 0, i32 0, null, i32 256, i1 false, null, null, i32 0, null, i32 629} ; [ DW_TAG_subprogram ] [line 629] [insert]
!147 = metadata !{i32 786453, i32 0, null, metadata !"", i32 0, i64 0, i64 0, i64 0, i32 0, null, metadata !148, i32 0, null, null, null} ; [ DW_TAG_subroutine_type ] [line 0, size 0, align 0, offset 0] [from ]
!148 = metadata !{metadata !149, metadata !75, metadata !151}
!149 = metadata !{i32 786451, metadata !150, metadata !5, metadata !"pair<std::_Rb_tree_iterator<std::pair<const unsigned int, std::pair<unsigned int, unsigned int> > >, bool>", i32 96, i64 0, i64 0, i32 0, i32 4, null, null, i32 0, null, null, metadata !"_ZTSSt4pairISt17_Rb_tree_iteratorIS_IKjS_IjjEEEbE"} ; [ DW_TAG_structure_type ] [pair<std::_Rb_tree_iterator<std::pair<const unsigned int, std::pair<unsigned int, unsigned int> > >, bool>] [line 96, size 0, align 0, offset 0] [decl] [from ]
!150 = metadata !{metadata !"/usr/local/Xilinx/SDSoC/2015.4/SDK/2015.4/gnu/arm/lin/arm-xilinx-linux-gnueabi/include/c++/4.9.2/bits/stl_pair.h", metadata !"/home/vgr16/nfshome/face_with_corner/SDRelease"}
!151 = metadata !{i32 786448, null, null, null, i32 0, i64 0, i64 0, i64 0, i32 0, metadata !152} ; [ DW_TAG_reference_type ] [line 0, size 0, align 0, offset 0] [from ]
!152 = metadata !{i32 786470, null, null, metadata !"", i32 0, i64 0, i64 0, i64 0, i32 0, metadata !153} ; [ DW_TAG_const_type ] [line 0, size 0, align 0, offset 0] [from value_type]
!153 = metadata !{i32 786454, metadata !68, metadata !"_ZTSSt3mapIjSt4pairIjjESt4lessIjESaIS0_IKjS1_EEE", metadata !"value_type", i32 101, i64 0, i64 0, i64 0, i32 0, metadata !"_ZTSSt4pairIKjS_IjjEE"} ; [ DW_TAG_typedef ] [value_type] [line 101, size 0, align 0, offset 0] [from _ZTSSt4pairIKjS_IjjEE]
!154 = metadata !{i32 786478, metadata !68, metadata !"_ZTSSt3mapIjSt4pairIjjESt4lessIjESaIS0_IKjS1_EEE", metadata !"insert", metadata !"insert", metadata !"_ZNSt3mapIjSt4pairIjjESt4lessIjESaIS0_IKjS1_EEE6insertESt17_Rb_tree_iteratorIS5_ERKS5_", i32 681, metadata !155, i1 false, i1 false, i32 0, i32 0, null, i32 256, i1 false, null, null, i32 0, null, i32 681} ; [ DW_TAG_subprogram ] [line 681] [insert]
!155 = metadata !{i32 786453, i32 0, null, metadata !"", i32 0, i64 0, i64 0, i64 0, i32 0, null, metadata !156, i32 0, null, null, null} ; [ DW_TAG_subroutine_type ] [line 0, size 0, align 0, offset 0] [from ]
!156 = metadata !{metadata !100, metadata !75, metadata !100, metadata !151}
!157 = metadata !{i32 786478, metadata !68, metadata !"_ZTSSt3mapIjSt4pairIjjESt4lessIjESaIS0_IKjS1_EEE", metadata !"erase", metadata !"erase", metadata !"_ZNSt3mapIjSt4pairIjjESt4lessIjESaIS0_IKjS1_EEE5eraseESt17_Rb_tree_iteratorIS5_E", i32 745, metadata !158, i1 false, i1 false, i32 0, i32 0, null, i32 256, i1 false, null, null, i32 0, null, i32 745} ; [ DW_TAG_subprogram ] [line 745] [erase]
!158 = metadata !{i32 786453, i32 0, null, metadata !"", i32 0, i64 0, i64 0, i64 0, i32 0, null, metadata !159, i32 0, null, null, null} ; [ DW_TAG_subroutine_type ] [line 0, size 0, align 0, offset 0] [from ]
!159 = metadata !{null, metadata !75, metadata !100}
!160 = metadata !{i32 786478, metadata !68, metadata !"_ZTSSt3mapIjSt4pairIjjESt4lessIjESaIS0_IKjS1_EEE", metadata !"erase", metadata !"erase", metadata !"_ZNSt3mapIjSt4pairIjjESt4lessIjESaIS0_IKjS1_EEE5eraseERS4_", i32 761, metadata !161, i1 false, i1 false, i32 0, i32 0, null, i32 256, i1 false, null, null, i32 0, null, i32 761} ; [ DW_TAG_subprogram ] [line 761] [erase]
!161 = metadata !{i32 786453, i32 0, null, metadata !"", i32 0, i64 0, i64 0, i64 0, i32 0, null, metadata !162, i32 0, null, null, null} ; [ DW_TAG_subroutine_type ] [line 0, size 0, align 0, offset 0] [from ]
!162 = metadata !{metadata !128, metadata !75, metadata !137}
!163 = metadata !{i32 786478, metadata !68, metadata !"_ZTSSt3mapIjSt4pairIjjESt4lessIjESaIS0_IKjS1_EEE", metadata !"erase", metadata !"erase", metadata !"_ZNSt3mapIjSt4pairIjjESt4lessIjESaIS0_IKjS1_EEE5eraseESt17_Rb_tree_iteratorIS5_ES9_", i32 797, metadata !164, i1 false, i1 false, i32 0, i32 0, null, i32 256, i1 false, null, null, i32 0, null, i32 797} ; [ DW_TAG_subprogram ] [line 797] [erase]
!164 = metadata !{i32 786453, i32 0, null, metadata !"", i32 0, i64 0, i64 0, i64 0, i32 0, null, metadata !165, i32 0, null, null, null} ; [ DW_TAG_subroutine_type ] [line 0, size 0, align 0, offset 0] [from ]
!165 = metadata !{null, metadata !75, metadata !100, metadata !100}
!166 = metadata !{i32 786478, metadata !68, metadata !"_ZTSSt3mapIjSt4pairIjjESt4lessIjESaIS0_IKjS1_EEE", metadata !"swap", metadata !"swap", metadata !"_ZNSt3mapIjSt4pairIjjESt4lessIjESaIS0_IKjS1_EEE4swapERS7_", i32 813, metadata !167, i1 false, i1 false, i32 0, i32 0, null, i32 256, i1 false, null, null, i32 0, null, i32 813} ; [ DW_TAG_subprogram ] [line 813] [swap]
!167 = metadata !{i32 786453, i32 0, null, metadata !"", i32 0, i64 0, i64 0, i64 0, i32 0, null, metadata !168, i32 0, null, null, null} ; [ DW_TAG_subroutine_type ] [line 0, size 0, align 0, offset 0] [from ]
!168 = metadata !{null, metadata !75, metadata !92}
!169 = metadata !{i32 786478, metadata !68, metadata !"_ZTSSt3mapIjSt4pairIjjESt4lessIjESaIS0_IKjS1_EEE", metadata !"clear", metadata !"clear", metadata !"_ZNSt3mapIjSt4pairIjjESt4lessIjESaIS0_IKjS1_EEE5clearEv", i32 826, metadata !73, i1 false, i1 false, i32 0, i32 0, null, i32 256, i1 false, null, null, i32 0, null, i32 826} ; [ DW_TAG_subprogram ] [line 826] [clear]
!170 = metadata !{i32 786478, metadata !68, metadata !"_ZTSSt3mapIjSt4pairIjjESt4lessIjESaIS0_IKjS1_EEE", metadata !"key_comp", metadata !"key_comp", metadata !"_ZNKSt3mapIjSt4pairIjjESt4lessIjESaIS0_IKjS1_EEE8key_compEv", i32 835, metadata !171, i1 false, i1 false, i32 0, i32 0, null, i32 256, i1 false, null, null, i32 0, null, i32 835} ; [ DW_TAG_subprogram ] [line 835] [key_comp]
!171 = metadata !{i32 786453, i32 0, null, metadata !"", i32 0, i64 0, i64 0, i64 0, i32 0, null, metadata !172, i32 0, null, null, null} ; [ DW_TAG_subroutine_type ] [line 0, size 0, align 0, offset 0] [from ]
!172 = metadata !{metadata !173, metadata !96}
!173 = metadata !{i32 786454, metadata !68, metadata !"_ZTSSt3mapIjSt4pairIjjESt4lessIjESaIS0_IKjS1_EEE", metadata !"key_compare", i32 102, i64 0, i64 0, i64 0, i32 0, metadata !"_ZTSSt4lessIjE"} ; [ DW_TAG_typedef ] [key_compare] [line 102, size 0, align 0, offset 0] [from _ZTSSt4lessIjE]
!174 = metadata !{i32 786478, metadata !68, metadata !"_ZTSSt3mapIjSt4pairIjjESt4lessIjESaIS0_IKjS1_EEE", metadata !"value_comp", metadata !"value_comp", metadata !"_ZNKSt3mapIjSt4pairIjjESt4lessIjESaIS0_IKjS1_EEE10value_compEv", i32 843, metadata !175, i1 false, i1 false, i32 0, i32 0, null, i32 256, i1 false, null, null, i32 0, null, i32 843} ; [ DW_TAG_subprogram ] [line 843] [value_comp]
!175 = metadata !{i32 786453, i32 0, null, metadata !"", i32 0, i64 0, i64 0, i64 0, i32 0, null, metadata !176, i32 0, null, null, null} ; [ DW_TAG_subroutine_type ] [line 0, size 0, align 0, offset 0] [from ]
!176 = metadata !{metadata !177, metadata !96}
!177 = metadata !{i32 786434, metadata !68, metadata !"_ZTSSt3mapIjSt4pairIjjESt4lessIjESaIS0_IKjS1_EEE", metadata !"value_compare", i32 114, i64 0, i64 0, i32 0, i32 4, null, null, i32 0, null, null, metadata !"_ZTSNSt3mapIjSt4pairIjjESt4lessIjESaIS0_IKjS1_EEE13value_compareE"} ; [ DW_TAG_class_type ] [value_compare] [line 114, size 0, align 0, offset 0] [decl] [from ]
!178 = metadata !{i32 786478, metadata !68, metadata !"_ZTSSt3mapIjSt4pairIjjESt4lessIjESaIS0_IKjS1_EEE", metadata !"find", metadata !"find", metadata !"_ZNSt3mapIjSt4pairIjjESt4lessIjESaIS0_IKjS1_EEE4findERS4_", i32 859, metadata !179, i1 false, i1 false, i32 0, i32 0, null, i32 256, i1 false, null, null, i32 0, null, i32 859} ; [ DW_TAG_subprogram ] [line 859] [find]
!179 = metadata !{i32 786453, i32 0, null, metadata !"", i32 0, i64 0, i64 0, i64 0, i32 0, null, metadata !180, i32 0, null, null, null} ; [ DW_TAG_subroutine_type ] [line 0, size 0, align 0, offset 0] [from ]
!180 = metadata !{metadata !100, metadata !75, metadata !137}
!181 = metadata !{i32 786478, metadata !68, metadata !"_ZTSSt3mapIjSt4pairIjjESt4lessIjESaIS0_IKjS1_EEE", metadata !"find", metadata !"find", metadata !"_ZNKSt3mapIjSt4pairIjjESt4lessIjESaIS0_IKjS1_EEE4findERS4_", i32 874, metadata !182, i1 false, i1 false, i32 0, i32 0, null, i32 256, i1 false, null, null, i32 0, null, i32 874} ; [ DW_TAG_subprogram ] [line 874] [find]
!182 = metadata !{i32 786453, i32 0, null, metadata !"", i32 0, i64 0, i64 0, i64 0, i32 0, null, metadata !183, i32 0, null, null, null} ; [ DW_TAG_subroutine_type ] [line 0, size 0, align 0, offset 0] [from ]
!183 = metadata !{metadata !105, metadata !96, metadata !137}
!184 = metadata !{i32 786478, metadata !68, metadata !"_ZTSSt3mapIjSt4pairIjjESt4lessIjESaIS0_IKjS1_EEE", metadata !"count", metadata !"count", metadata !"_ZNKSt3mapIjSt4pairIjjESt4lessIjESaIS0_IKjS1_EEE5countERS4_", i32 886, metadata !185, i1 false, i1 false, i32 0, i32 0, null, i32 256, i1 false, null, null, i32 0, null, i32 886} ; [ DW_TAG_subprogram ] [line 886] [count]
!185 = metadata !{i32 786453, i32 0, null, metadata !"", i32 0, i64 0, i64 0, i64 0, i32 0, null, metadata !186, i32 0, null, null, null} ; [ DW_TAG_subroutine_type ] [line 0, size 0, align 0, offset 0] [from ]
!186 = metadata !{metadata !128, metadata !96, metadata !137}
!187 = metadata !{i32 786478, metadata !68, metadata !"_ZTSSt3mapIjSt4pairIjjESt4lessIjESaIS0_IKjS1_EEE", metadata !"lower_bound", metadata !"lower_bound", metadata !"_ZNSt3mapIjSt4pairIjjESt4lessIjESaIS0_IKjS1_EEE11lower_boundERS4_", i32 901, metadata !179, i1 false, i1 false, i32 0, i32 0, null, i32 256, i1 false, null, null, i32 0, null, i32 901} ; [ DW_TAG_subprogram ] [line 901] [lower_bound]
!188 = metadata !{i32 786478, metadata !68, metadata !"_ZTSSt3mapIjSt4pairIjjESt4lessIjESaIS0_IKjS1_EEE", metadata !"lower_bound", metadata !"lower_bound", metadata !"_ZNKSt3mapIjSt4pairIjjESt4lessIjESaIS0_IKjS1_EEE11lower_boundERS4_", i32 916, metadata !182, i1 false, i1 false, i32 0, i32 0, null, i32 256, i1 false, null, null, i32 0, null, i32 916} ; [ DW_TAG_subprogram ] [line 916] [lower_bound]
!189 = metadata !{i32 786478, metadata !68, metadata !"_ZTSSt3mapIjSt4pairIjjESt4lessIjESaIS0_IKjS1_EEE", metadata !"upper_bound", metadata !"upper_bound", metadata !"_ZNSt3mapIjSt4pairIjjESt4lessIjESaIS0_IKjS1_EEE11upper_boundERS4_", i32 926, metadata !179, i1 false, i1 false, i32 0, i32 0, null, i32 256, i1 false, null, null, i32 0, null, i32 926} ; [ DW_TAG_subprogram ] [line 926] [upper_bound]
!190 = metadata !{i32 786478, metadata !68, metadata !"_ZTSSt3mapIjSt4pairIjjESt4lessIjESaIS0_IKjS1_EEE", metadata !"upper_bound", metadata !"upper_bound", metadata !"_ZNKSt3mapIjSt4pairIjjESt4lessIjESaIS0_IKjS1_EEE11upper_boundERS4_", i32 936, metadata !182, i1 false, i1 false, i32 0, i32 0, null, i32 256, i1 false, null, null, i32 0, null, i32 936} ; [ DW_TAG_subprogram ] [line 936] [upper_bound]
!191 = metadata !{i32 786478, metadata !68, metadata !"_ZTSSt3mapIjSt4pairIjjESt4lessIjESaIS0_IKjS1_EEE", metadata !"equal_range", metadata !"equal_range", metadata !"_ZNSt3mapIjSt4pairIjjESt4lessIjESaIS0_IKjS1_EEE11equal_rangeERS4_", i32 955, metadata !192, i1 false, i1 false, i32 0, i32 0, null, i32 256, i1 false, null, null, i32 0, null, i32 955} ; [ DW_TAG_subprogram ] [line 955] [equal_range]
!192 = metadata !{i32 786453, i32 0, null, metadata !"", i32 0, i64 0, i64 0, i64 0, i32 0, null, metadata !193, i32 0, null, null, null} ; [ DW_TAG_subroutine_type ] [line 0, size 0, align 0, offset 0] [from ]
!193 = metadata !{metadata !194, metadata !75, metadata !137}
!194 = metadata !{i32 786451, metadata !150, metadata !5, metadata !"pair<std::_Rb_tree_iterator<std::pair<const unsigned int, std::pair<unsigned int, unsigned int> > >, std::_Rb_tree_iterator<std::pair<const unsigned int, std::pair<unsigned int, unsigned int> > > >", i32 96, i64 0, i64 0, i32 0, i32 4, null, null, i32 0, null, null, metadata !"_ZTSSt4pairISt17_Rb_tree_iteratorIS_IKjS_IjjEEES4_E"} ; [ DW_TAG_structure_type ] [pair<std::_Rb_tree_iterator<std::pair<const unsigned int, std::pair<unsigned int, unsigned int> > >, std::_Rb_tree_iterator<std::pair<const unsigned int, std::pair<unsigned int, unsigned int> > > >] [line 96, size 0, align 0, offset 0] [decl] [from ]
!195 = metadata !{i32 786478, metadata !68, metadata !"_ZTSSt3mapIjSt4pairIjjESt4lessIjESaIS0_IKjS1_EEE", metadata !"equal_range", metadata !"equal_range", metadata !"_ZNKSt3mapIjSt4pairIjjESt4lessIjESaIS0_IKjS1_EEE11equal_rangeERS4_", i32 974, metadata !196, i1 false, i1 false, i32 0, i32 0, null, i32 256, i1 false, null, null, i32 0, null, i32 974} ; [ DW_TAG_subprogram ] [line 974] [equal_range]
!196 = metadata !{i32 786453, i32 0, null, metadata !"", i32 0, i64 0, i64 0, i64 0, i32 0, null, metadata !197, i32 0, null, null, null} ; [ DW_TAG_subroutine_type ] [line 0, size 0, align 0, offset 0] [from ]
!197 = metadata !{metadata !198, metadata !96, metadata !137}
!198 = metadata !{i32 786451, metadata !150, metadata !5, metadata !"pair<std::_Rb_tree_const_iterator<std::pair<const unsigned int, std::pair<unsigned int, unsigned int> > >, std::_Rb_tree_const_iterator<std::pair<const unsigned int, std::pair<unsigned int, unsigned int> > > >", i32 96, i64 0, i64 0, i32 0, i32 4, null, null, i32 0, null, null, metadata !"_ZTSSt4pairISt23_Rb_tree_const_iteratorIS_IKjS_IjjEEES4_E"} ; [ DW_TAG_structure_type ] [pair<std::_Rb_tree_const_iterator<std::pair<const unsigned int, std::pair<unsigned int, unsigned int> > >, std::_Rb_tree_const_iterator<std::pair<const unsigned int, std::pair<unsigned int, unsigned int> > > >] [line 96, size 0, align 0, offset 0] [decl] [from ]
!199 = metadata !{metadata !200, metadata !201, metadata !202, metadata !203}
!200 = metadata !{i32 786479, null, metadata !"_Key", metadata !44, null, i32 0, i32 0} ; [ DW_TAG_template_type_parameter ]
!201 = metadata !{i32 786479, null, metadata !"_Tp", metadata !"_ZTSSt4pairIjjE", null, i32 0, i32 0} ; [ DW_TAG_template_type_parameter ]
!202 = metadata !{i32 786479, null, metadata !"_Compare", metadata !"_ZTSSt4lessIjE", null, i32 0, i32 0} ; [ DW_TAG_template_type_parameter ]
!203 = metadata !{i32 786479, null, metadata !"_Alloc", metadata !"_ZTSSaISt4pairIKjS_IjjEEE", null, i32 0, i32 0} ; [ DW_TAG_template_type_parameter ]
!204 = metadata !{i32 786451, metadata !150, metadata !5, metadata !"pair<unsigned int, unsigned int>", i32 96, i64 64, i64 32, i32 0, i32 0, null, metadata !205, i32 0, null, metadata !217, metadata !"_ZTSSt4pairIjjE"} ; [ DW_TAG_structure_type ] [pair<unsigned int, unsigned int>] [line 96, size 64, align 32, offset 0] [def] [from ]
!205 = metadata !{metadata !206, metadata !207, metadata !208, metadata !212}
!206 = metadata !{i32 786445, metadata !150, metadata !"_ZTSSt4pairIjjE", metadata !"first", i32 101, i64 32, i64 32, i64 0, i32 0, metadata !44} ; [ DW_TAG_member ] [first] [line 101, size 32, align 32, offset 0] [from unsigned int]
!207 = metadata !{i32 786445, metadata !150, metadata !"_ZTSSt4pairIjjE", metadata !"second", i32 102, i64 32, i64 32, i64 32, i32 0, metadata !44} ; [ DW_TAG_member ] [second] [line 102, size 32, align 32, offset 32] [from unsigned int]
!208 = metadata !{i32 786478, metadata !150, metadata !"_ZTSSt4pairIjjE", metadata !"pair", metadata !"pair", metadata !"", i32 108, metadata !209, i1 false, i1 false, i32 0, i32 0, null, i32 256, i1 false, null, null, i32 0, null, i32 108} ; [ DW_TAG_subprogram ] [line 108] [pair]
!209 = metadata !{i32 786453, i32 0, null, metadata !"", i32 0, i64 0, i64 0, i64 0, i32 0, null, metadata !210, i32 0, null, null, null} ; [ DW_TAG_subroutine_type ] [line 0, size 0, align 0, offset 0] [from ]
!210 = metadata !{null, metadata !211}
!211 = metadata !{i32 786447, null, null, metadata !"", i32 0, i64 32, i64 32, i64 0, i32 1088, metadata !"_ZTSSt4pairIjjE"} ; [ DW_TAG_pointer_type ] [line 0, size 32, align 32, offset 0] [artificial] [from _ZTSSt4pairIjjE]
!212 = metadata !{i32 786478, metadata !150, metadata !"_ZTSSt4pairIjjE", metadata !"pair", metadata !"pair", metadata !"", i32 112, metadata !213, i1 false, i1 false, i32 0, i32 0, null, i32 256, i1 false, null, null, i32 0, null, i32 112} ; [ DW_TAG_subprogram ] [line 112] [pair]
!213 = metadata !{i32 786453, i32 0, null, metadata !"", i32 0, i64 0, i64 0, i64 0, i32 0, null, metadata !214, i32 0, null, null, null} ; [ DW_TAG_subroutine_type ] [line 0, size 0, align 0, offset 0] [from ]
!214 = metadata !{null, metadata !211, metadata !215, metadata !215}
!215 = metadata !{i32 786448, null, null, null, i32 0, i64 0, i64 0, i64 0, i32 0, metadata !216} ; [ DW_TAG_reference_type ] [line 0, size 0, align 0, offset 0] [from ]
!216 = metadata !{i32 786470, null, null, metadata !"", i32 0, i64 0, i64 0, i64 0, i32 0, metadata !44} ; [ DW_TAG_const_type ] [line 0, size 0, align 0, offset 0] [from unsigned int]
!217 = metadata !{metadata !218, metadata !219}
!218 = metadata !{i32 786479, null, metadata !"_T1", metadata !44, null, i32 0, i32 0} ; [ DW_TAG_template_type_parameter ]
!219 = metadata !{i32 786479, null, metadata !"_T2", metadata !44, null, i32 0, i32 0} ; [ DW_TAG_template_type_parameter ]
!220 = metadata !{i32 786451, metadata !221, metadata !5, metadata !"less<unsigned int>", i32 367, i64 8, i64 8, i32 0, i32 0, null, metadata !222, i32 0, null, metadata !228, metadata !"_ZTSSt4lessIjE"} ; [ DW_TAG_structure_type ] [less<unsigned int>] [line 367, size 8, align 8, offset 0] [def] [from ]
!221 = metadata !{metadata !"/usr/local/Xilinx/SDSoC/2015.4/SDK/2015.4/gnu/arm/lin/arm-xilinx-linux-gnueabi/include/c++/4.9.2/bits/stl_function.h", metadata !"/home/vgr16/nfshome/face_with_corner/SDRelease"}
!222 = metadata !{metadata !223, metadata !224}
!223 = metadata !{i32 786460, null, metadata !"_ZTSSt4lessIjE", null, i32 0, i64 0, i64 0, i64 0, i32 0, metadata !"_ZTSSt15binary_functionIjjbE"} ; [ DW_TAG_inheritance ] [line 0, size 0, align 0, offset 0] [from _ZTSSt15binary_functionIjjbE]
!224 = metadata !{i32 786478, metadata !221, metadata !"_ZTSSt4lessIjE", metadata !"operator()", metadata !"operator()", metadata !"_ZNKSt4lessIjEclERKjS2_", i32 370, metadata !225, i1 false, i1 false, i32 0, i32 0, null, i32 256, i1 false, null, null, i32 0, null, i32 370} ; [ DW_TAG_subprogram ] [line 370] [operator()]
!225 = metadata !{i32 786453, i32 0, null, metadata !"", i32 0, i64 0, i64 0, i64 0, i32 0, null, metadata !226, i32 0, null, null, null} ; [ DW_TAG_subroutine_type ] [line 0, size 0, align 0, offset 0] [from ]
!226 = metadata !{metadata !124, metadata !227, metadata !215, metadata !215}
!227 = metadata !{i32 786447, null, null, metadata !"", i32 0, i64 32, i64 32, i64 0, i32 1088, metadata !80} ; [ DW_TAG_pointer_type ] [line 0, size 32, align 32, offset 0] [artificial] [from ]
!228 = metadata !{metadata !229}
!229 = metadata !{i32 786479, null, metadata !"_Tp", metadata !44, null, i32 0, i32 0} ; [ DW_TAG_template_type_parameter ]
!230 = metadata !{i32 786451, metadata !221, metadata !5, metadata !"binary_function<unsigned int, unsigned int, bool>", i32 118, i64 8, i64 8, i32 0, i32 0, null, metadata !231, i32 0, null, metadata !232, metadata !"_ZTSSt15binary_functionIjjbE"} ; [ DW_TAG_structure_type ] [binary_function<unsigned int, unsigned int, bool>] [line 118, size 8, align 8, offset 0] [def] [from ]
!231 = metadata !{}
!232 = metadata !{metadata !233, metadata !234, metadata !235}
!233 = metadata !{i32 786479, null, metadata !"_Arg1", metadata !44, null, i32 0, i32 0} ; [ DW_TAG_template_type_parameter ]
!234 = metadata !{i32 786479, null, metadata !"_Arg2", metadata !44, null, i32 0, i32 0} ; [ DW_TAG_template_type_parameter ]
!235 = metadata !{i32 786479, null, metadata !"_Result", metadata !124, null, i32 0, i32 0} ; [ DW_TAG_template_type_parameter ]
!236 = metadata !{i32 786434, metadata !237, metadata !5, metadata !"allocator<std::pair<const unsigned int, std::pair<unsigned int, unsigned int> > >", i32 92, i64 8, i64 8, i32 0, i32 0, null, metadata !238, i32 0, null, metadata !250, metadata !"_ZTSSaISt4pairIKjS_IjjEEE"} ; [ DW_TAG_class_type ] [allocator<std::pair<const unsigned int, std::pair<unsigned int, unsigned int> > >] [line 92, size 8, align 8, offset 0] [def] [from ]
!237 = metadata !{metadata !"/usr/local/Xilinx/SDSoC/2015.4/SDK/2015.4/gnu/arm/lin/arm-xilinx-linux-gnueabi/include/c++/4.9.2/bits/allocator.h", metadata !"/home/vgr16/nfshome/face_with_corner/SDRelease"}
!238 = metadata !{metadata !239, metadata !240, metadata !244, metadata !249}
!239 = metadata !{i32 786460, null, metadata !"_ZTSSaISt4pairIKjS_IjjEEE", null, i32 0, i64 0, i64 0, i64 0, i32 0, metadata !"_ZTSN9__gnu_cxx13new_allocatorISt4pairIKjS1_IjjEEEE"} ; [ DW_TAG_inheritance ] [line 0, size 0, align 0, offset 0] [from _ZTSN9__gnu_cxx13new_allocatorISt4pairIKjS1_IjjEEEE]
!240 = metadata !{i32 786478, metadata !237, metadata !"_ZTSSaISt4pairIKjS_IjjEEE", metadata !"allocator", metadata !"allocator", metadata !"", i32 113, metadata !241, i1 false, i1 false, i32 0, i32 0, null, i32 256, i1 false, null, null, i32 0, null, i32 113} ; [ DW_TAG_subprogram ] [line 113] [allocator]
!241 = metadata !{i32 786453, i32 0, null, metadata !"", i32 0, i64 0, i64 0, i64 0, i32 0, null, metadata !242, i32 0, null, null, null} ; [ DW_TAG_subroutine_type ] [line 0, size 0, align 0, offset 0] [from ]
!242 = metadata !{null, metadata !243}
!243 = metadata !{i32 786447, null, null, metadata !"", i32 0, i64 32, i64 32, i64 0, i32 1088, metadata !"_ZTSSaISt4pairIKjS_IjjEEE"} ; [ DW_TAG_pointer_type ] [line 0, size 32, align 32, offset 0] [artificial] [from _ZTSSaISt4pairIKjS_IjjEEE]
!244 = metadata !{i32 786478, metadata !237, metadata !"_ZTSSaISt4pairIKjS_IjjEEE", metadata !"allocator", metadata !"allocator", metadata !"", i32 115, metadata !245, i1 false, i1 false, i32 0, i32 0, null, i32 256, i1 false, null, null, i32 0, null, i32 115} ; [ DW_TAG_subprogram ] [line 115] [allocator]
!245 = metadata !{i32 786453, i32 0, null, metadata !"", i32 0, i64 0, i64 0, i64 0, i32 0, null, metadata !246, i32 0, null, null, null} ; [ DW_TAG_subroutine_type ] [line 0, size 0, align 0, offset 0] [from ]
!246 = metadata !{null, metadata !243, metadata !247}
!247 = metadata !{i32 786448, null, null, null, i32 0, i64 0, i64 0, i64 0, i32 0, metadata !248} ; [ DW_TAG_reference_type ] [line 0, size 0, align 0, offset 0] [from ]
!248 = metadata !{i32 786470, null, null, metadata !"", i32 0, i64 0, i64 0, i64 0, i32 0, metadata !"_ZTSSaISt4pairIKjS_IjjEEE"} ; [ DW_TAG_const_type ] [line 0, size 0, align 0, offset 0] [from _ZTSSaISt4pairIKjS_IjjEEE]
!249 = metadata !{i32 786478, metadata !237, metadata !"_ZTSSaISt4pairIKjS_IjjEEE", metadata !"~allocator", metadata !"~allocator", metadata !"", i32 121, metadata !241, i1 false, i1 false, i32 0, i32 0, null, i32 256, i1 false, null, null, i32 0, null, i32 121} ; [ DW_TAG_subprogram ] [line 121] [~allocator]
!250 = metadata !{metadata !251}
!251 = metadata !{i32 786479, null, metadata !"_Tp", metadata !"_ZTSSt4pairIKjS_IjjEE", null, i32 0, i32 0} ; [ DW_TAG_template_type_parameter ]
!252 = metadata !{i32 786451, metadata !150, metadata !5, metadata !"pair<const unsigned int, std::pair<unsigned int, unsigned int> >", i32 96, i64 96, i64 32, i32 0, i32 0, null, metadata !253, i32 0, null, metadata !265, metadata !"_ZTSSt4pairIKjS_IjjEE"} ; [ DW_TAG_structure_type ] [pair<const unsigned int, std::pair<unsigned int, unsigned int> >] [line 96, size 96, align 32, offset 0] [def] [from ]
!253 = metadata !{metadata !254, metadata !255, metadata !256, metadata !260}
!254 = metadata !{i32 786445, metadata !150, metadata !"_ZTSSt4pairIKjS_IjjEE", metadata !"first", i32 101, i64 32, i64 32, i64 0, i32 0, metadata !216} ; [ DW_TAG_member ] [first] [line 101, size 32, align 32, offset 0] [from ]
!255 = metadata !{i32 786445, metadata !150, metadata !"_ZTSSt4pairIKjS_IjjEE", metadata !"second", i32 102, i64 64, i64 32, i64 32, i32 0, metadata !"_ZTSSt4pairIjjE"} ; [ DW_TAG_member ] [second] [line 102, size 64, align 32, offset 32] [from _ZTSSt4pairIjjE]
!256 = metadata !{i32 786478, metadata !150, metadata !"_ZTSSt4pairIKjS_IjjEE", metadata !"pair", metadata !"pair", metadata !"", i32 108, metadata !257, i1 false, i1 false, i32 0, i32 0, null, i32 256, i1 false, null, null, i32 0, null, i32 108} ; [ DW_TAG_subprogram ] [line 108] [pair]
!257 = metadata !{i32 786453, i32 0, null, metadata !"", i32 0, i64 0, i64 0, i64 0, i32 0, null, metadata !258, i32 0, null, null, null} ; [ DW_TAG_subroutine_type ] [line 0, size 0, align 0, offset 0] [from ]
!258 = metadata !{null, metadata !259}
!259 = metadata !{i32 786447, null, null, metadata !"", i32 0, i64 32, i64 32, i64 0, i32 1088, metadata !"_ZTSSt4pairIKjS_IjjEE"} ; [ DW_TAG_pointer_type ] [line 0, size 32, align 32, offset 0] [artificial] [from _ZTSSt4pairIKjS_IjjEE]
!260 = metadata !{i32 786478, metadata !150, metadata !"_ZTSSt4pairIKjS_IjjEE", metadata !"pair", metadata !"pair", metadata !"", i32 112, metadata !261, i1 false, i1 false, i32 0, i32 0, null, i32 256, i1 false, null, null, i32 0, null, i32 112} ; [ DW_TAG_subprogram ] [line 112] [pair]
!261 = metadata !{i32 786453, i32 0, null, metadata !"", i32 0, i64 0, i64 0, i64 0, i32 0, null, metadata !262, i32 0, null, null, null} ; [ DW_TAG_subroutine_type ] [line 0, size 0, align 0, offset 0] [from ]
!262 = metadata !{null, metadata !259, metadata !215, metadata !263}
!263 = metadata !{i32 786448, null, null, null, i32 0, i64 0, i64 0, i64 0, i32 0, metadata !264} ; [ DW_TAG_reference_type ] [line 0, size 0, align 0, offset 0] [from ]
!264 = metadata !{i32 786470, null, null, metadata !"", i32 0, i64 0, i64 0, i64 0, i32 0, metadata !"_ZTSSt4pairIjjE"} ; [ DW_TAG_const_type ] [line 0, size 0, align 0, offset 0] [from _ZTSSt4pairIjjE]
!265 = metadata !{metadata !266, metadata !267}
!266 = metadata !{i32 786479, null, metadata !"_T1", metadata !216, null, i32 0, i32 0} ; [ DW_TAG_template_type_parameter ]
!267 = metadata !{i32 786479, null, metadata !"_T2", metadata !"_ZTSSt4pairIjjE", null, i32 0, i32 0} ; [ DW_TAG_template_type_parameter ]
!268 = metadata !{i32 786434, metadata !269, metadata !270, metadata !"new_allocator<std::pair<const unsigned int, std::pair<unsigned int, unsigned int> > >", i32 58, i64 8, i64 8, i32 0, i32 0, null, metadata !272, i32 0, null, metadata !250, metadata !"_ZTSN9__gnu_cxx13new_allocatorISt4pairIKjS1_IjjEEEE"} ; [ DW_TAG_class_type ] [new_allocator<std::pair<const unsigned int, std::pair<unsigned int, unsigned int> > >] [line 58, size 8, align 8, offset 0] [def] [from ]
!269 = metadata !{metadata !"/usr/local/Xilinx/SDSoC/2015.4/SDK/2015.4/gnu/arm/lin/arm-xilinx-linux-gnueabi/include/c++/4.9.2/ext/new_allocator.h", metadata !"/home/vgr16/nfshome/face_with_corner/SDRelease"}
!270 = metadata !{i32 786489, metadata !271, null, metadata !"__gnu_cxx", i32 157} ; [ DW_TAG_namespace ] [__gnu_cxx] [line 157]
!271 = metadata !{metadata !"/usr/local/Xilinx/SDSoC/2015.4/SDK/2015.4/gnu/arm/lin/arm-xilinx-linux-gnueabi/include/c++/4.9.2/cstdio", metadata !"/home/vgr16/nfshome/face_with_corner/SDRelease"}
!272 = metadata !{metadata !273, metadata !277, metadata !282, metadata !283, metadata !291, metadata !299, metadata !305, metadata !308, metadata !311, metadata !314}
!273 = metadata !{i32 786478, metadata !269, metadata !"_ZTSN9__gnu_cxx13new_allocatorISt4pairIKjS1_IjjEEEE", metadata !"new_allocator", metadata !"new_allocator", metadata !"", i32 79, metadata !274, i1 false, i1 false, i32 0, i32 0, null, i32 256, i1 false, null, null, i32 0, null, i32 79} ; [ DW_TAG_subprogram ] [line 79] [new_allocator]
!274 = metadata !{i32 786453, i32 0, null, metadata !"", i32 0, i64 0, i64 0, i64 0, i32 0, null, metadata !275, i32 0, null, null, null} ; [ DW_TAG_subroutine_type ] [line 0, size 0, align 0, offset 0] [from ]
!275 = metadata !{null, metadata !276}
!276 = metadata !{i32 786447, null, null, metadata !"", i32 0, i64 32, i64 32, i64 0, i32 1088, metadata !"_ZTSN9__gnu_cxx13new_allocatorISt4pairIKjS1_IjjEEEE"} ; [ DW_TAG_pointer_type ] [line 0, size 32, align 32, offset 0] [artificial] [from _ZTSN9__gnu_cxx13new_allocatorISt4pairIKjS1_IjjEEEE]
!277 = metadata !{i32 786478, metadata !269, metadata !"_ZTSN9__gnu_cxx13new_allocatorISt4pairIKjS1_IjjEEEE", metadata !"new_allocator", metadata !"new_allocator", metadata !"", i32 81, metadata !278, i1 false, i1 false, i32 0, i32 0, null, i32 256, i1 false, null, null, i32 0, null, i32 81} ; [ DW_TAG_subprogram ] [line 81] [new_allocator]
!278 = metadata !{i32 786453, i32 0, null, metadata !"", i32 0, i64 0, i64 0, i64 0, i32 0, null, metadata !279, i32 0, null, null, null} ; [ DW_TAG_subroutine_type ] [line 0, size 0, align 0, offset 0] [from ]
!279 = metadata !{null, metadata !276, metadata !280}
!280 = metadata !{i32 786448, null, null, null, i32 0, i64 0, i64 0, i64 0, i32 0, metadata !281} ; [ DW_TAG_reference_type ] [line 0, size 0, align 0, offset 0] [from ]
!281 = metadata !{i32 786470, null, null, metadata !"", i32 0, i64 0, i64 0, i64 0, i32 0, metadata !"_ZTSN9__gnu_cxx13new_allocatorISt4pairIKjS1_IjjEEEE"} ; [ DW_TAG_const_type ] [line 0, size 0, align 0, offset 0] [from _ZTSN9__gnu_cxx13new_allocatorISt4pairIKjS1_IjjEEEE]
!282 = metadata !{i32 786478, metadata !269, metadata !"_ZTSN9__gnu_cxx13new_allocatorISt4pairIKjS1_IjjEEEE", metadata !"~new_allocator", metadata !"~new_allocator", metadata !"", i32 86, metadata !274, i1 false, i1 false, i32 0, i32 0, null, i32 256, i1 false, null, null, i32 0, null, i32 86} ; [ DW_TAG_subprogram ] [line 86] [~new_allocator]
!283 = metadata !{i32 786478, metadata !269, metadata !"_ZTSN9__gnu_cxx13new_allocatorISt4pairIKjS1_IjjEEEE", metadata !"address", metadata !"address", metadata !"_ZNK9__gnu_cxx13new_allocatorISt4pairIKjS1_IjjEEE7addressERS4_", i32 89, metadata !284, i1 false, i1 false, i32 0, i32 0, null, i32 256, i1 false, null, null, i32 0, null, i32 89} ; [ DW_TAG_subprogram ] [line 89] [address]
!284 = metadata !{i32 786453, i32 0, null, metadata !"", i32 0, i64 0, i64 0, i64 0, i32 0, null, metadata !285, i32 0, null, null, null} ; [ DW_TAG_subroutine_type ] [line 0, size 0, align 0, offset 0] [from ]
!285 = metadata !{metadata !286, metadata !288, metadata !289}
!286 = metadata !{i32 786454, metadata !269, metadata !"_ZTSN9__gnu_cxx13new_allocatorISt4pairIKjS1_IjjEEEE", metadata !"pointer", i32 63, i64 0, i64 0, i64 0, i32 0, metadata !287} ; [ DW_TAG_typedef ] [pointer] [line 63, size 0, align 0, offset 0] [from ]
!287 = metadata !{i32 786447, null, null, metadata !"", i32 0, i64 32, i64 32, i64 0, i32 0, metadata !"_ZTSSt4pairIKjS_IjjEE"} ; [ DW_TAG_pointer_type ] [line 0, size 32, align 32, offset 0] [from _ZTSSt4pairIKjS_IjjEE]
!288 = metadata !{i32 786447, null, null, metadata !"", i32 0, i64 32, i64 32, i64 0, i32 1088, metadata !281} ; [ DW_TAG_pointer_type ] [line 0, size 32, align 32, offset 0] [artificial] [from ]
!289 = metadata !{i32 786454, metadata !269, metadata !"_ZTSN9__gnu_cxx13new_allocatorISt4pairIKjS1_IjjEEEE", metadata !"reference", i32 65, i64 0, i64 0, i64 0, i32 0, metadata !290} ; [ DW_TAG_typedef ] [reference] [line 65, size 0, align 0, offset 0] [from ]
!290 = metadata !{i32 786448, null, null, null, i32 0, i64 0, i64 0, i64 0, i32 0, metadata !"_ZTSSt4pairIKjS_IjjEE"} ; [ DW_TAG_reference_type ] [line 0, size 0, align 0, offset 0] [from _ZTSSt4pairIKjS_IjjEE]
!291 = metadata !{i32 786478, metadata !269, metadata !"_ZTSN9__gnu_cxx13new_allocatorISt4pairIKjS1_IjjEEEE", metadata !"address", metadata !"address", metadata !"_ZNK9__gnu_cxx13new_allocatorISt4pairIKjS1_IjjEEE7addressERKS4_", i32 93, metadata !292, i1 false, i1 false, i32 0, i32 0, null, i32 256, i1 false, null, null, i32 0, null, i32 93} ; [ DW_TAG_subprogram ] [line 93] [address]
!292 = metadata !{i32 786453, i32 0, null, metadata !"", i32 0, i64 0, i64 0, i64 0, i32 0, null, metadata !293, i32 0, null, null, null} ; [ DW_TAG_subroutine_type ] [line 0, size 0, align 0, offset 0] [from ]
!293 = metadata !{metadata !294, metadata !288, metadata !297}
!294 = metadata !{i32 786454, metadata !269, metadata !"_ZTSN9__gnu_cxx13new_allocatorISt4pairIKjS1_IjjEEEE", metadata !"const_pointer", i32 64, i64 0, i64 0, i64 0, i32 0, metadata !295} ; [ DW_TAG_typedef ] [const_pointer] [line 64, size 0, align 0, offset 0] [from ]
!295 = metadata !{i32 786447, null, null, metadata !"", i32 0, i64 32, i64 32, i64 0, i32 0, metadata !296} ; [ DW_TAG_pointer_type ] [line 0, size 32, align 32, offset 0] [from ]
!296 = metadata !{i32 786470, null, null, metadata !"", i32 0, i64 0, i64 0, i64 0, i32 0, metadata !"_ZTSSt4pairIKjS_IjjEE"} ; [ DW_TAG_const_type ] [line 0, size 0, align 0, offset 0] [from _ZTSSt4pairIKjS_IjjEE]
!297 = metadata !{i32 786454, metadata !269, metadata !"_ZTSN9__gnu_cxx13new_allocatorISt4pairIKjS1_IjjEEEE", metadata !"const_reference", i32 66, i64 0, i64 0, i64 0, i32 0, metadata !298} ; [ DW_TAG_typedef ] [const_reference] [line 66, size 0, align 0, offset 0] [from ]
!298 = metadata !{i32 786448, null, null, null, i32 0, i64 0, i64 0, i64 0, i32 0, metadata !296} ; [ DW_TAG_reference_type ] [line 0, size 0, align 0, offset 0] [from ]
!299 = metadata !{i32 786478, metadata !269, metadata !"_ZTSN9__gnu_cxx13new_allocatorISt4pairIKjS1_IjjEEEE", metadata !"allocate", metadata !"allocate", metadata !"_ZN9__gnu_cxx13new_allocatorISt4pairIKjS1_IjjEEE8allocateEjPKv", i32 99, metadata !300, i1 false, i1 false, i32 0, i32 0, null, i32 256, i1 false, null, null, i32 0, null, i32 99} ; [ DW_TAG_subprogram ] [line 99] [allocate]
!300 = metadata !{i32 786453, i32 0, null, metadata !"", i32 0, i64 0, i64 0, i64 0, i32 0, null, metadata !301, i32 0, null, null, null} ; [ DW_TAG_subroutine_type ] [line 0, size 0, align 0, offset 0] [from ]
!301 = metadata !{metadata !286, metadata !276, metadata !302, metadata !303}
!302 = metadata !{i32 786454, metadata !269, null, metadata !"size_type", i32 61, i64 0, i64 0, i64 0, i32 0, metadata !130} ; [ DW_TAG_typedef ] [size_type] [line 61, size 0, align 0, offset 0] [from size_t]
!303 = metadata !{i32 786447, null, null, metadata !"", i32 0, i64 32, i64 32, i64 0, i32 0, metadata !304} ; [ DW_TAG_pointer_type ] [line 0, size 32, align 32, offset 0] [from ]
!304 = metadata !{i32 786470, null, null, metadata !"", i32 0, i64 0, i64 0, i64 0, i32 0, null} ; [ DW_TAG_const_type ] [line 0, size 0, align 0, offset 0] [from ]
!305 = metadata !{i32 786478, metadata !269, metadata !"_ZTSN9__gnu_cxx13new_allocatorISt4pairIKjS1_IjjEEEE", metadata !"deallocate", metadata !"deallocate", metadata !"_ZN9__gnu_cxx13new_allocatorISt4pairIKjS1_IjjEEE10deallocateEPS4_j", i32 109, metadata !306, i1 false, i1 false, i32 0, i32 0, null, i32 256, i1 false, null, null, i32 0, null, i32 109} ; [ DW_TAG_subprogram ] [line 109] [deallocate]
!306 = metadata !{i32 786453, i32 0, null, metadata !"", i32 0, i64 0, i64 0, i64 0, i32 0, null, metadata !307, i32 0, null, null, null} ; [ DW_TAG_subroutine_type ] [line 0, size 0, align 0, offset 0] [from ]
!307 = metadata !{null, metadata !276, metadata !286, metadata !302}
!308 = metadata !{i32 786478, metadata !269, metadata !"_ZTSN9__gnu_cxx13new_allocatorISt4pairIKjS1_IjjEEEE", metadata !"max_size", metadata !"max_size", metadata !"_ZNK9__gnu_cxx13new_allocatorISt4pairIKjS1_IjjEEE8max_sizeEv", i32 113, metadata !309, i1 false, i1 false, i32 0, i32 0, null, i32 256, i1 false, null, null, i32 0, null, i32 113} ; [ DW_TAG_subprogram ] [line 113] [max_size]
!309 = metadata !{i32 786453, i32 0, null, metadata !"", i32 0, i64 0, i64 0, i64 0, i32 0, null, metadata !310, i32 0, null, null, null} ; [ DW_TAG_subroutine_type ] [line 0, size 0, align 0, offset 0] [from ]
!310 = metadata !{metadata !302, metadata !288}
!311 = metadata !{i32 786478, metadata !269, metadata !"_ZTSN9__gnu_cxx13new_allocatorISt4pairIKjS1_IjjEEEE", metadata !"construct", metadata !"construct", metadata !"_ZN9__gnu_cxx13new_allocatorISt4pairIKjS1_IjjEEE9constructEPS4_RKS4_", i32 129, metadata !312, i1 false, i1 false, i32 0, i32 0, null, i32 256, i1 false, null, null, i32 0, null, i32 129} ; [ DW_TAG_subprogram ] [line 129] [construct]
!312 = metadata !{i32 786453, i32 0, null, metadata !"", i32 0, i64 0, i64 0, i64 0, i32 0, null, metadata !313, i32 0, null, null, null} ; [ DW_TAG_subroutine_type ] [line 0, size 0, align 0, offset 0] [from ]
!313 = metadata !{null, metadata !276, metadata !286, metadata !298}
!314 = metadata !{i32 786478, metadata !269, metadata !"_ZTSN9__gnu_cxx13new_allocatorISt4pairIKjS1_IjjEEEE", metadata !"destroy", metadata !"destroy", metadata !"_ZN9__gnu_cxx13new_allocatorISt4pairIKjS1_IjjEEE7destroyEPS4_", i32 133, metadata !315, i1 false, i1 false, i32 0, i32 0, null, i32 256, i1 false, null, null, i32 0, null, i32 133} ; [ DW_TAG_subprogram ] [line 133] [destroy]
!315 = metadata !{i32 786453, i32 0, null, metadata !"", i32 0, i64 0, i64 0, i64 0, i32 0, null, metadata !316, i32 0, null, null, null} ; [ DW_TAG_subroutine_type ] [line 0, size 0, align 0, offset 0] [from ]
!316 = metadata !{null, metadata !276, metadata !286}
